   1               		.file	"DeviceStandardReq.c"
   2               	__SP_H__ = 0x3e
   3               	__SP_L__ = 0x3d
   4               	__SREG__ = 0x3f
   5               	__tmp_reg__ = 0
   6               	__zero_reg__ = 1
   7               		.text
   8               	.Ltext0:
   9               		.cfi_sections	.debug_frame
  10               		.section	.text.USB_Device_ProcessControlRequest,"ax",@progbits
  11               	.global	USB_Device_ProcessControlRequest
  13               	USB_Device_ProcessControlRequest:
  14               	.LFB85:
  15               		.file 1 "lib/lufa/LUFA/Drivers/USB/Core/DeviceStandardReq.c"
   1:lib/lufa/LUFA/Drivers/USB/Core/DeviceStandardReq.c **** /*
   2:lib/lufa/LUFA/Drivers/USB/Core/DeviceStandardReq.c ****              LUFA Library
   3:lib/lufa/LUFA/Drivers/USB/Core/DeviceStandardReq.c ****      Copyright (C) Dean Camera, 2017.
   4:lib/lufa/LUFA/Drivers/USB/Core/DeviceStandardReq.c **** 
   5:lib/lufa/LUFA/Drivers/USB/Core/DeviceStandardReq.c ****   dean [at] fourwalledcubicle [dot] com
   6:lib/lufa/LUFA/Drivers/USB/Core/DeviceStandardReq.c ****            www.lufa-lib.org
   7:lib/lufa/LUFA/Drivers/USB/Core/DeviceStandardReq.c **** */
   8:lib/lufa/LUFA/Drivers/USB/Core/DeviceStandardReq.c **** 
   9:lib/lufa/LUFA/Drivers/USB/Core/DeviceStandardReq.c **** /*
  10:lib/lufa/LUFA/Drivers/USB/Core/DeviceStandardReq.c ****   Copyright 2017  Dean Camera (dean [at] fourwalledcubicle [dot] com)
  11:lib/lufa/LUFA/Drivers/USB/Core/DeviceStandardReq.c **** 
  12:lib/lufa/LUFA/Drivers/USB/Core/DeviceStandardReq.c ****   Permission to use, copy, modify, distribute, and sell this
  13:lib/lufa/LUFA/Drivers/USB/Core/DeviceStandardReq.c ****   software and its documentation for any purpose is hereby granted
  14:lib/lufa/LUFA/Drivers/USB/Core/DeviceStandardReq.c ****   without fee, provided that the above copyright notice appear in
  15:lib/lufa/LUFA/Drivers/USB/Core/DeviceStandardReq.c ****   all copies and that both that the copyright notice and this
  16:lib/lufa/LUFA/Drivers/USB/Core/DeviceStandardReq.c ****   permission notice and warranty disclaimer appear in supporting
  17:lib/lufa/LUFA/Drivers/USB/Core/DeviceStandardReq.c ****   documentation, and that the name of the author not be used in
  18:lib/lufa/LUFA/Drivers/USB/Core/DeviceStandardReq.c ****   advertising or publicity pertaining to distribution of the
  19:lib/lufa/LUFA/Drivers/USB/Core/DeviceStandardReq.c ****   software without specific, written prior permission.
  20:lib/lufa/LUFA/Drivers/USB/Core/DeviceStandardReq.c **** 
  21:lib/lufa/LUFA/Drivers/USB/Core/DeviceStandardReq.c ****   The author disclaims all warranties with regard to this
  22:lib/lufa/LUFA/Drivers/USB/Core/DeviceStandardReq.c ****   software, including all implied warranties of merchantability
  23:lib/lufa/LUFA/Drivers/USB/Core/DeviceStandardReq.c ****   and fitness.  In no event shall the author be liable for any
  24:lib/lufa/LUFA/Drivers/USB/Core/DeviceStandardReq.c ****   special, indirect or consequential damages or any damages
  25:lib/lufa/LUFA/Drivers/USB/Core/DeviceStandardReq.c ****   whatsoever resulting from loss of use, data or profits, whether
  26:lib/lufa/LUFA/Drivers/USB/Core/DeviceStandardReq.c ****   in an action of contract, negligence or other tortious action,
  27:lib/lufa/LUFA/Drivers/USB/Core/DeviceStandardReq.c ****   arising out of or in connection with the use or performance of
  28:lib/lufa/LUFA/Drivers/USB/Core/DeviceStandardReq.c ****   this software.
  29:lib/lufa/LUFA/Drivers/USB/Core/DeviceStandardReq.c **** */
  30:lib/lufa/LUFA/Drivers/USB/Core/DeviceStandardReq.c **** 
  31:lib/lufa/LUFA/Drivers/USB/Core/DeviceStandardReq.c **** #define  __INCLUDE_FROM_USB_DRIVER
  32:lib/lufa/LUFA/Drivers/USB/Core/DeviceStandardReq.c **** #include "USBMode.h"
  33:lib/lufa/LUFA/Drivers/USB/Core/DeviceStandardReq.c **** 
  34:lib/lufa/LUFA/Drivers/USB/Core/DeviceStandardReq.c **** #if defined(USB_CAN_BE_DEVICE)
  35:lib/lufa/LUFA/Drivers/USB/Core/DeviceStandardReq.c **** 
  36:lib/lufa/LUFA/Drivers/USB/Core/DeviceStandardReq.c **** #define  __INCLUDE_FROM_DEVICESTDREQ_C
  37:lib/lufa/LUFA/Drivers/USB/Core/DeviceStandardReq.c **** #include "DeviceStandardReq.h"
  38:lib/lufa/LUFA/Drivers/USB/Core/DeviceStandardReq.c **** 
  39:lib/lufa/LUFA/Drivers/USB/Core/DeviceStandardReq.c **** uint8_t USB_Device_ConfigurationNumber;
  40:lib/lufa/LUFA/Drivers/USB/Core/DeviceStandardReq.c **** 
  41:lib/lufa/LUFA/Drivers/USB/Core/DeviceStandardReq.c **** #if !defined(NO_DEVICE_SELF_POWER)
  42:lib/lufa/LUFA/Drivers/USB/Core/DeviceStandardReq.c **** bool    USB_Device_CurrentlySelfPowered;
  43:lib/lufa/LUFA/Drivers/USB/Core/DeviceStandardReq.c **** #endif
  44:lib/lufa/LUFA/Drivers/USB/Core/DeviceStandardReq.c **** 
  45:lib/lufa/LUFA/Drivers/USB/Core/DeviceStandardReq.c **** #if !defined(NO_DEVICE_REMOTE_WAKEUP)
  46:lib/lufa/LUFA/Drivers/USB/Core/DeviceStandardReq.c **** bool    USB_Device_RemoteWakeupEnabled;
  47:lib/lufa/LUFA/Drivers/USB/Core/DeviceStandardReq.c **** #endif
  48:lib/lufa/LUFA/Drivers/USB/Core/DeviceStandardReq.c **** 
  49:lib/lufa/LUFA/Drivers/USB/Core/DeviceStandardReq.c **** void USB_Device_ProcessControlRequest(void)
  50:lib/lufa/LUFA/Drivers/USB/Core/DeviceStandardReq.c **** {
  16               		.loc 1 50 0
  17               		.cfi_startproc
  18 0000 1F93      		push r17
  19               	.LCFI0:
  20               		.cfi_def_cfa_offset 3
  21               		.cfi_offset 17, -2
  22 0002 CF93      		push r28
  23               	.LCFI1:
  24               		.cfi_def_cfa_offset 4
  25               		.cfi_offset 28, -3
  26 0004 DF93      		push r29
  27               	.LCFI2:
  28               		.cfi_def_cfa_offset 5
  29               		.cfi_offset 29, -4
  30 0006 CDB7      		in r28,__SP_L__
  31 0008 DEB7      		in r29,__SP_H__
  32               	.LCFI3:
  33               		.cfi_def_cfa_register 28
  34 000a AA97      		sbiw r28,42
  35               	.LCFI4:
  36               		.cfi_def_cfa_offset 47
  37 000c 0FB6      		in __tmp_reg__,__SREG__
  38 000e F894      		cli
  39 0010 DEBF      		out __SP_H__,r29
  40 0012 0FBE      		out __SREG__,__tmp_reg__
  41 0014 CDBF      		out __SP_L__,r28
  42               	/* prologue: function */
  43               	/* frame size = 42 */
  44               	/* stack size = 45 */
  45               	.L__stack_usage = 45
  46               	.LVL0:
  47 0016 E0E0      		ldi r30,lo8(USB_ControlRequest)
  48 0018 F0E0      		ldi r31,hi8(USB_ControlRequest)
  49               	.LVL1:
  50               	.L2:
  51               	.LBB172:
  52               	.LBB173:
  53               	.LBB174:
  54               		.file 2 "lib/lufa/LUFA/Drivers/USB/Core/AVR8/../AVR8/Endpoint_AVR8.h"
   1:lib/lufa/LUFA/Drivers/USB/Core/AVR8/../AVR8/Endpoint_AVR8.h **** /*
   2:lib/lufa/LUFA/Drivers/USB/Core/AVR8/../AVR8/Endpoint_AVR8.h ****              LUFA Library
   3:lib/lufa/LUFA/Drivers/USB/Core/AVR8/../AVR8/Endpoint_AVR8.h ****      Copyright (C) Dean Camera, 2017.
   4:lib/lufa/LUFA/Drivers/USB/Core/AVR8/../AVR8/Endpoint_AVR8.h **** 
   5:lib/lufa/LUFA/Drivers/USB/Core/AVR8/../AVR8/Endpoint_AVR8.h ****   dean [at] fourwalledcubicle [dot] com
   6:lib/lufa/LUFA/Drivers/USB/Core/AVR8/../AVR8/Endpoint_AVR8.h ****            www.lufa-lib.org
   7:lib/lufa/LUFA/Drivers/USB/Core/AVR8/../AVR8/Endpoint_AVR8.h **** */
   8:lib/lufa/LUFA/Drivers/USB/Core/AVR8/../AVR8/Endpoint_AVR8.h **** 
   9:lib/lufa/LUFA/Drivers/USB/Core/AVR8/../AVR8/Endpoint_AVR8.h **** /*
  10:lib/lufa/LUFA/Drivers/USB/Core/AVR8/../AVR8/Endpoint_AVR8.h ****   Copyright 2017  Dean Camera (dean [at] fourwalledcubicle [dot] com)
  11:lib/lufa/LUFA/Drivers/USB/Core/AVR8/../AVR8/Endpoint_AVR8.h **** 
  12:lib/lufa/LUFA/Drivers/USB/Core/AVR8/../AVR8/Endpoint_AVR8.h ****   Permission to use, copy, modify, distribute, and sell this
  13:lib/lufa/LUFA/Drivers/USB/Core/AVR8/../AVR8/Endpoint_AVR8.h ****   software and its documentation for any purpose is hereby granted
  14:lib/lufa/LUFA/Drivers/USB/Core/AVR8/../AVR8/Endpoint_AVR8.h ****   without fee, provided that the above copyright notice appear in
  15:lib/lufa/LUFA/Drivers/USB/Core/AVR8/../AVR8/Endpoint_AVR8.h ****   all copies and that both that the copyright notice and this
  16:lib/lufa/LUFA/Drivers/USB/Core/AVR8/../AVR8/Endpoint_AVR8.h ****   permission notice and warranty disclaimer appear in supporting
  17:lib/lufa/LUFA/Drivers/USB/Core/AVR8/../AVR8/Endpoint_AVR8.h ****   documentation, and that the name of the author not be used in
  18:lib/lufa/LUFA/Drivers/USB/Core/AVR8/../AVR8/Endpoint_AVR8.h ****   advertising or publicity pertaining to distribution of the
  19:lib/lufa/LUFA/Drivers/USB/Core/AVR8/../AVR8/Endpoint_AVR8.h ****   software without specific, written prior permission.
  20:lib/lufa/LUFA/Drivers/USB/Core/AVR8/../AVR8/Endpoint_AVR8.h **** 
  21:lib/lufa/LUFA/Drivers/USB/Core/AVR8/../AVR8/Endpoint_AVR8.h ****   The author disclaims all warranties with regard to this
  22:lib/lufa/LUFA/Drivers/USB/Core/AVR8/../AVR8/Endpoint_AVR8.h ****   software, including all implied warranties of merchantability
  23:lib/lufa/LUFA/Drivers/USB/Core/AVR8/../AVR8/Endpoint_AVR8.h ****   and fitness.  In no event shall the author be liable for any
  24:lib/lufa/LUFA/Drivers/USB/Core/AVR8/../AVR8/Endpoint_AVR8.h ****   special, indirect or consequential damages or any damages
  25:lib/lufa/LUFA/Drivers/USB/Core/AVR8/../AVR8/Endpoint_AVR8.h ****   whatsoever resulting from loss of use, data or profits, whether
  26:lib/lufa/LUFA/Drivers/USB/Core/AVR8/../AVR8/Endpoint_AVR8.h ****   in an action of contract, negligence or other tortious action,
  27:lib/lufa/LUFA/Drivers/USB/Core/AVR8/../AVR8/Endpoint_AVR8.h ****   arising out of or in connection with the use or performance of
  28:lib/lufa/LUFA/Drivers/USB/Core/AVR8/../AVR8/Endpoint_AVR8.h ****   this software.
  29:lib/lufa/LUFA/Drivers/USB/Core/AVR8/../AVR8/Endpoint_AVR8.h **** */
  30:lib/lufa/LUFA/Drivers/USB/Core/AVR8/../AVR8/Endpoint_AVR8.h **** 
  31:lib/lufa/LUFA/Drivers/USB/Core/AVR8/../AVR8/Endpoint_AVR8.h **** /** \file
  32:lib/lufa/LUFA/Drivers/USB/Core/AVR8/../AVR8/Endpoint_AVR8.h ****  *  \brief USB Endpoint definitions for the AVR8 microcontrollers.
  33:lib/lufa/LUFA/Drivers/USB/Core/AVR8/../AVR8/Endpoint_AVR8.h ****  *  \copydetails Group_EndpointManagement_AVR8
  34:lib/lufa/LUFA/Drivers/USB/Core/AVR8/../AVR8/Endpoint_AVR8.h ****  *
  35:lib/lufa/LUFA/Drivers/USB/Core/AVR8/../AVR8/Endpoint_AVR8.h ****  *  \note This file should not be included directly. It is automatically included as needed by the 
  36:lib/lufa/LUFA/Drivers/USB/Core/AVR8/../AVR8/Endpoint_AVR8.h ****  *        dispatch header located in LUFA/Drivers/USB/USB.h.
  37:lib/lufa/LUFA/Drivers/USB/Core/AVR8/../AVR8/Endpoint_AVR8.h ****  */
  38:lib/lufa/LUFA/Drivers/USB/Core/AVR8/../AVR8/Endpoint_AVR8.h **** 
  39:lib/lufa/LUFA/Drivers/USB/Core/AVR8/../AVR8/Endpoint_AVR8.h **** /** \ingroup Group_EndpointRW
  40:lib/lufa/LUFA/Drivers/USB/Core/AVR8/../AVR8/Endpoint_AVR8.h ****  *  \defgroup Group_EndpointRW_AVR8 Endpoint Data Reading and Writing (AVR8)
  41:lib/lufa/LUFA/Drivers/USB/Core/AVR8/../AVR8/Endpoint_AVR8.h ****  *  \brief Endpoint data read/write definitions for the Atmel AVR8 architecture.
  42:lib/lufa/LUFA/Drivers/USB/Core/AVR8/../AVR8/Endpoint_AVR8.h ****  *
  43:lib/lufa/LUFA/Drivers/USB/Core/AVR8/../AVR8/Endpoint_AVR8.h ****  *  Functions, macros, variables, enums and types related to data reading and writing from and to e
  44:lib/lufa/LUFA/Drivers/USB/Core/AVR8/../AVR8/Endpoint_AVR8.h ****  */
  45:lib/lufa/LUFA/Drivers/USB/Core/AVR8/../AVR8/Endpoint_AVR8.h **** 
  46:lib/lufa/LUFA/Drivers/USB/Core/AVR8/../AVR8/Endpoint_AVR8.h **** /** \ingroup Group_EndpointPrimitiveRW
  47:lib/lufa/LUFA/Drivers/USB/Core/AVR8/../AVR8/Endpoint_AVR8.h ****  *  \defgroup Group_EndpointPrimitiveRW_AVR8 Read/Write of Primitive Data Types (AVR8)
  48:lib/lufa/LUFA/Drivers/USB/Core/AVR8/../AVR8/Endpoint_AVR8.h ****  *  \brief Endpoint primitive read/write definitions for the Atmel AVR8 architecture.
  49:lib/lufa/LUFA/Drivers/USB/Core/AVR8/../AVR8/Endpoint_AVR8.h ****  *
  50:lib/lufa/LUFA/Drivers/USB/Core/AVR8/../AVR8/Endpoint_AVR8.h ****  *  Functions, macros, variables, enums and types related to data reading and writing of primitive 
  51:lib/lufa/LUFA/Drivers/USB/Core/AVR8/../AVR8/Endpoint_AVR8.h ****  *  from and to endpoints.
  52:lib/lufa/LUFA/Drivers/USB/Core/AVR8/../AVR8/Endpoint_AVR8.h ****  */
  53:lib/lufa/LUFA/Drivers/USB/Core/AVR8/../AVR8/Endpoint_AVR8.h **** 
  54:lib/lufa/LUFA/Drivers/USB/Core/AVR8/../AVR8/Endpoint_AVR8.h **** /** \ingroup Group_EndpointPacketManagement
  55:lib/lufa/LUFA/Drivers/USB/Core/AVR8/../AVR8/Endpoint_AVR8.h ****  *  \defgroup Group_EndpointPacketManagement_AVR8 Endpoint Packet Management (AVR8)
  56:lib/lufa/LUFA/Drivers/USB/Core/AVR8/../AVR8/Endpoint_AVR8.h ****  *  \brief Endpoint packet management definitions for the Atmel AVR8 architecture.
  57:lib/lufa/LUFA/Drivers/USB/Core/AVR8/../AVR8/Endpoint_AVR8.h ****  *
  58:lib/lufa/LUFA/Drivers/USB/Core/AVR8/../AVR8/Endpoint_AVR8.h ****  *  Functions, macros, variables, enums and types related to packet management of endpoints.
  59:lib/lufa/LUFA/Drivers/USB/Core/AVR8/../AVR8/Endpoint_AVR8.h ****  */
  60:lib/lufa/LUFA/Drivers/USB/Core/AVR8/../AVR8/Endpoint_AVR8.h **** 
  61:lib/lufa/LUFA/Drivers/USB/Core/AVR8/../AVR8/Endpoint_AVR8.h **** /** \ingroup Group_EndpointManagement
  62:lib/lufa/LUFA/Drivers/USB/Core/AVR8/../AVR8/Endpoint_AVR8.h ****  *  \defgroup Group_EndpointManagement_AVR8 Endpoint Management (AVR8)
  63:lib/lufa/LUFA/Drivers/USB/Core/AVR8/../AVR8/Endpoint_AVR8.h ****  *  \brief Endpoint management definitions for the Atmel AVR8 architecture.
  64:lib/lufa/LUFA/Drivers/USB/Core/AVR8/../AVR8/Endpoint_AVR8.h ****  *
  65:lib/lufa/LUFA/Drivers/USB/Core/AVR8/../AVR8/Endpoint_AVR8.h ****  *  Functions, macros and enums related to endpoint management when in USB Device mode. This
  66:lib/lufa/LUFA/Drivers/USB/Core/AVR8/../AVR8/Endpoint_AVR8.h ****  *  module contains the endpoint management macros, as well as endpoint interrupt and data
  67:lib/lufa/LUFA/Drivers/USB/Core/AVR8/../AVR8/Endpoint_AVR8.h ****  *  send/receive functions for various data types.
  68:lib/lufa/LUFA/Drivers/USB/Core/AVR8/../AVR8/Endpoint_AVR8.h ****  *
  69:lib/lufa/LUFA/Drivers/USB/Core/AVR8/../AVR8/Endpoint_AVR8.h ****  *  @{
  70:lib/lufa/LUFA/Drivers/USB/Core/AVR8/../AVR8/Endpoint_AVR8.h ****  */
  71:lib/lufa/LUFA/Drivers/USB/Core/AVR8/../AVR8/Endpoint_AVR8.h **** 
  72:lib/lufa/LUFA/Drivers/USB/Core/AVR8/../AVR8/Endpoint_AVR8.h **** #ifndef __ENDPOINT_AVR8_H__
  73:lib/lufa/LUFA/Drivers/USB/Core/AVR8/../AVR8/Endpoint_AVR8.h **** #define __ENDPOINT_AVR8_H__
  74:lib/lufa/LUFA/Drivers/USB/Core/AVR8/../AVR8/Endpoint_AVR8.h **** 
  75:lib/lufa/LUFA/Drivers/USB/Core/AVR8/../AVR8/Endpoint_AVR8.h **** 	/* Includes: */
  76:lib/lufa/LUFA/Drivers/USB/Core/AVR8/../AVR8/Endpoint_AVR8.h **** 		#include "../../../../Common/Common.h"
  77:lib/lufa/LUFA/Drivers/USB/Core/AVR8/../AVR8/Endpoint_AVR8.h **** 		#include "../USBTask.h"
  78:lib/lufa/LUFA/Drivers/USB/Core/AVR8/../AVR8/Endpoint_AVR8.h **** 		#include "../USBInterrupt.h"
  79:lib/lufa/LUFA/Drivers/USB/Core/AVR8/../AVR8/Endpoint_AVR8.h **** 
  80:lib/lufa/LUFA/Drivers/USB/Core/AVR8/../AVR8/Endpoint_AVR8.h **** 	/* Enable C linkage for C++ Compilers: */
  81:lib/lufa/LUFA/Drivers/USB/Core/AVR8/../AVR8/Endpoint_AVR8.h **** 		#if defined(__cplusplus)
  82:lib/lufa/LUFA/Drivers/USB/Core/AVR8/../AVR8/Endpoint_AVR8.h **** 			extern "C" {
  83:lib/lufa/LUFA/Drivers/USB/Core/AVR8/../AVR8/Endpoint_AVR8.h **** 		#endif
  84:lib/lufa/LUFA/Drivers/USB/Core/AVR8/../AVR8/Endpoint_AVR8.h **** 
  85:lib/lufa/LUFA/Drivers/USB/Core/AVR8/../AVR8/Endpoint_AVR8.h **** 	/* Preprocessor Checks: */
  86:lib/lufa/LUFA/Drivers/USB/Core/AVR8/../AVR8/Endpoint_AVR8.h **** 		#if !defined(__INCLUDE_FROM_USB_DRIVER)
  87:lib/lufa/LUFA/Drivers/USB/Core/AVR8/../AVR8/Endpoint_AVR8.h **** 			#error Do not include this file directly. Include LUFA/Drivers/USB/USB.h instead.
  88:lib/lufa/LUFA/Drivers/USB/Core/AVR8/../AVR8/Endpoint_AVR8.h **** 		#endif
  89:lib/lufa/LUFA/Drivers/USB/Core/AVR8/../AVR8/Endpoint_AVR8.h **** 
  90:lib/lufa/LUFA/Drivers/USB/Core/AVR8/../AVR8/Endpoint_AVR8.h **** 	/* Private Interface - For use in library only: */
  91:lib/lufa/LUFA/Drivers/USB/Core/AVR8/../AVR8/Endpoint_AVR8.h **** 	#if !defined(__DOXYGEN__)
  92:lib/lufa/LUFA/Drivers/USB/Core/AVR8/../AVR8/Endpoint_AVR8.h **** 		/* Inline Functions: */
  93:lib/lufa/LUFA/Drivers/USB/Core/AVR8/../AVR8/Endpoint_AVR8.h **** 			static inline uint8_t Endpoint_BytesToEPSizeMask(const uint16_t Bytes) ATTR_WARN_UNUSED_RESULT A
  94:lib/lufa/LUFA/Drivers/USB/Core/AVR8/../AVR8/Endpoint_AVR8.h **** 			                                                                       ATTR_ALWAYS_INLINE;
  95:lib/lufa/LUFA/Drivers/USB/Core/AVR8/../AVR8/Endpoint_AVR8.h **** 			static inline uint8_t Endpoint_BytesToEPSizeMask(const uint16_t Bytes)
  96:lib/lufa/LUFA/Drivers/USB/Core/AVR8/../AVR8/Endpoint_AVR8.h **** 			{
  97:lib/lufa/LUFA/Drivers/USB/Core/AVR8/../AVR8/Endpoint_AVR8.h **** 				uint8_t  MaskVal    = 0;
  98:lib/lufa/LUFA/Drivers/USB/Core/AVR8/../AVR8/Endpoint_AVR8.h **** 				uint16_t CheckBytes = 8;
  99:lib/lufa/LUFA/Drivers/USB/Core/AVR8/../AVR8/Endpoint_AVR8.h **** 
 100:lib/lufa/LUFA/Drivers/USB/Core/AVR8/../AVR8/Endpoint_AVR8.h **** 				while (CheckBytes < Bytes)
 101:lib/lufa/LUFA/Drivers/USB/Core/AVR8/../AVR8/Endpoint_AVR8.h **** 				{
 102:lib/lufa/LUFA/Drivers/USB/Core/AVR8/../AVR8/Endpoint_AVR8.h **** 					MaskVal++;
 103:lib/lufa/LUFA/Drivers/USB/Core/AVR8/../AVR8/Endpoint_AVR8.h **** 					CheckBytes <<= 1;
 104:lib/lufa/LUFA/Drivers/USB/Core/AVR8/../AVR8/Endpoint_AVR8.h **** 				}
 105:lib/lufa/LUFA/Drivers/USB/Core/AVR8/../AVR8/Endpoint_AVR8.h **** 
 106:lib/lufa/LUFA/Drivers/USB/Core/AVR8/../AVR8/Endpoint_AVR8.h **** 				return (MaskVal << EPSIZE0);
 107:lib/lufa/LUFA/Drivers/USB/Core/AVR8/../AVR8/Endpoint_AVR8.h **** 			}
 108:lib/lufa/LUFA/Drivers/USB/Core/AVR8/../AVR8/Endpoint_AVR8.h **** 
 109:lib/lufa/LUFA/Drivers/USB/Core/AVR8/../AVR8/Endpoint_AVR8.h **** 		/* Function Prototypes: */
 110:lib/lufa/LUFA/Drivers/USB/Core/AVR8/../AVR8/Endpoint_AVR8.h **** 			void Endpoint_ClearEndpoints(void);
 111:lib/lufa/LUFA/Drivers/USB/Core/AVR8/../AVR8/Endpoint_AVR8.h **** 			bool Endpoint_ConfigureEndpoint_Prv(const uint8_t Number,
 112:lib/lufa/LUFA/Drivers/USB/Core/AVR8/../AVR8/Endpoint_AVR8.h **** 			                                    const uint8_t UECFG0XData,
 113:lib/lufa/LUFA/Drivers/USB/Core/AVR8/../AVR8/Endpoint_AVR8.h **** 			                                    const uint8_t UECFG1XData);
 114:lib/lufa/LUFA/Drivers/USB/Core/AVR8/../AVR8/Endpoint_AVR8.h **** 
 115:lib/lufa/LUFA/Drivers/USB/Core/AVR8/../AVR8/Endpoint_AVR8.h **** 	#endif
 116:lib/lufa/LUFA/Drivers/USB/Core/AVR8/../AVR8/Endpoint_AVR8.h **** 
 117:lib/lufa/LUFA/Drivers/USB/Core/AVR8/../AVR8/Endpoint_AVR8.h **** 	/* Public Interface - May be used in end-application: */
 118:lib/lufa/LUFA/Drivers/USB/Core/AVR8/../AVR8/Endpoint_AVR8.h **** 		/* Macros: */
 119:lib/lufa/LUFA/Drivers/USB/Core/AVR8/../AVR8/Endpoint_AVR8.h **** 			#if (!defined(FIXED_CONTROL_ENDPOINT_SIZE) || defined(__DOXYGEN__))
 120:lib/lufa/LUFA/Drivers/USB/Core/AVR8/../AVR8/Endpoint_AVR8.h **** 				/** Default size of the default control endpoint's bank, until altered by the control endpoint 
 121:lib/lufa/LUFA/Drivers/USB/Core/AVR8/../AVR8/Endpoint_AVR8.h **** 				 *  value in the device descriptor. Not available if the \c FIXED_CONTROL_ENDPOINT_SIZE token i
 122:lib/lufa/LUFA/Drivers/USB/Core/AVR8/../AVR8/Endpoint_AVR8.h **** 				 */
 123:lib/lufa/LUFA/Drivers/USB/Core/AVR8/../AVR8/Endpoint_AVR8.h **** 				#define ENDPOINT_CONTROLEP_DEFAULT_SIZE     8
 124:lib/lufa/LUFA/Drivers/USB/Core/AVR8/../AVR8/Endpoint_AVR8.h **** 			#endif
 125:lib/lufa/LUFA/Drivers/USB/Core/AVR8/../AVR8/Endpoint_AVR8.h **** 
 126:lib/lufa/LUFA/Drivers/USB/Core/AVR8/../AVR8/Endpoint_AVR8.h **** 			#if !defined(CONTROL_ONLY_DEVICE) || defined(__DOXYGEN__)
 127:lib/lufa/LUFA/Drivers/USB/Core/AVR8/../AVR8/Endpoint_AVR8.h **** 				#if defined(USB_SERIES_4_AVR) || defined(USB_SERIES_6_AVR) || defined(USB_SERIES_7_AVR) || defi
 128:lib/lufa/LUFA/Drivers/USB/Core/AVR8/../AVR8/Endpoint_AVR8.h **** 					/** Total number of endpoints (including the default control endpoint at address 0) which may
 129:lib/lufa/LUFA/Drivers/USB/Core/AVR8/../AVR8/Endpoint_AVR8.h **** 					 *  be used in the device. Different USB AVR models support different amounts of endpoints,
 130:lib/lufa/LUFA/Drivers/USB/Core/AVR8/../AVR8/Endpoint_AVR8.h **** 					 *  this value reflects the maximum number of endpoints for the currently selected AVR model.
 131:lib/lufa/LUFA/Drivers/USB/Core/AVR8/../AVR8/Endpoint_AVR8.h **** 					 */
 132:lib/lufa/LUFA/Drivers/USB/Core/AVR8/../AVR8/Endpoint_AVR8.h **** 					#define ENDPOINT_TOTAL_ENDPOINTS        7
 133:lib/lufa/LUFA/Drivers/USB/Core/AVR8/../AVR8/Endpoint_AVR8.h **** 				#else
 134:lib/lufa/LUFA/Drivers/USB/Core/AVR8/../AVR8/Endpoint_AVR8.h **** 					#define ENDPOINT_TOTAL_ENDPOINTS        5
 135:lib/lufa/LUFA/Drivers/USB/Core/AVR8/../AVR8/Endpoint_AVR8.h **** 				#endif
 136:lib/lufa/LUFA/Drivers/USB/Core/AVR8/../AVR8/Endpoint_AVR8.h **** 			#else
 137:lib/lufa/LUFA/Drivers/USB/Core/AVR8/../AVR8/Endpoint_AVR8.h **** 				#define ENDPOINT_TOTAL_ENDPOINTS            1
 138:lib/lufa/LUFA/Drivers/USB/Core/AVR8/../AVR8/Endpoint_AVR8.h **** 			#endif
 139:lib/lufa/LUFA/Drivers/USB/Core/AVR8/../AVR8/Endpoint_AVR8.h **** 
 140:lib/lufa/LUFA/Drivers/USB/Core/AVR8/../AVR8/Endpoint_AVR8.h **** 		/* Enums: */
 141:lib/lufa/LUFA/Drivers/USB/Core/AVR8/../AVR8/Endpoint_AVR8.h **** 			/** Enum for the possible error return codes of the \ref Endpoint_WaitUntilReady() function.
 142:lib/lufa/LUFA/Drivers/USB/Core/AVR8/../AVR8/Endpoint_AVR8.h **** 			 *
 143:lib/lufa/LUFA/Drivers/USB/Core/AVR8/../AVR8/Endpoint_AVR8.h **** 			 *  \ingroup Group_EndpointRW_AVR8
 144:lib/lufa/LUFA/Drivers/USB/Core/AVR8/../AVR8/Endpoint_AVR8.h **** 			 */
 145:lib/lufa/LUFA/Drivers/USB/Core/AVR8/../AVR8/Endpoint_AVR8.h **** 			enum Endpoint_WaitUntilReady_ErrorCodes_t
 146:lib/lufa/LUFA/Drivers/USB/Core/AVR8/../AVR8/Endpoint_AVR8.h **** 			{
 147:lib/lufa/LUFA/Drivers/USB/Core/AVR8/../AVR8/Endpoint_AVR8.h **** 				ENDPOINT_READYWAIT_NoError                 = 0, /**< Endpoint is ready for next packet, no erro
 148:lib/lufa/LUFA/Drivers/USB/Core/AVR8/../AVR8/Endpoint_AVR8.h **** 				ENDPOINT_READYWAIT_EndpointStalled         = 1, /**< The endpoint was stalled during the stream
 149:lib/lufa/LUFA/Drivers/USB/Core/AVR8/../AVR8/Endpoint_AVR8.h **** 				                                                 *   transfer by the host or device.
 150:lib/lufa/LUFA/Drivers/USB/Core/AVR8/../AVR8/Endpoint_AVR8.h **** 				                                                 */
 151:lib/lufa/LUFA/Drivers/USB/Core/AVR8/../AVR8/Endpoint_AVR8.h **** 				ENDPOINT_READYWAIT_DeviceDisconnected      = 2,	/**< Device was disconnected from the host whil
 152:lib/lufa/LUFA/Drivers/USB/Core/AVR8/../AVR8/Endpoint_AVR8.h **** 				                                                 *   waiting for the endpoint to become ready.
 153:lib/lufa/LUFA/Drivers/USB/Core/AVR8/../AVR8/Endpoint_AVR8.h **** 				                                                 */
 154:lib/lufa/LUFA/Drivers/USB/Core/AVR8/../AVR8/Endpoint_AVR8.h **** 				ENDPOINT_READYWAIT_BusSuspended            = 3, /**< The USB bus has been suspended by the host
 155:lib/lufa/LUFA/Drivers/USB/Core/AVR8/../AVR8/Endpoint_AVR8.h **** 				                                                 *   no USB endpoint traffic can occur until th
 156:lib/lufa/LUFA/Drivers/USB/Core/AVR8/../AVR8/Endpoint_AVR8.h **** 				                                                 *   has resumed.
 157:lib/lufa/LUFA/Drivers/USB/Core/AVR8/../AVR8/Endpoint_AVR8.h **** 				                                                 */
 158:lib/lufa/LUFA/Drivers/USB/Core/AVR8/../AVR8/Endpoint_AVR8.h **** 				ENDPOINT_READYWAIT_Timeout                 = 4, /**< The host failed to accept or send the next
 159:lib/lufa/LUFA/Drivers/USB/Core/AVR8/../AVR8/Endpoint_AVR8.h **** 				                                                 *   within the software timeout period set by 
 160:lib/lufa/LUFA/Drivers/USB/Core/AVR8/../AVR8/Endpoint_AVR8.h **** 				                                                 *   \ref USB_STREAM_TIMEOUT_MS macro.
 161:lib/lufa/LUFA/Drivers/USB/Core/AVR8/../AVR8/Endpoint_AVR8.h **** 				                                                 */
 162:lib/lufa/LUFA/Drivers/USB/Core/AVR8/../AVR8/Endpoint_AVR8.h **** 			};
 163:lib/lufa/LUFA/Drivers/USB/Core/AVR8/../AVR8/Endpoint_AVR8.h **** 
 164:lib/lufa/LUFA/Drivers/USB/Core/AVR8/../AVR8/Endpoint_AVR8.h **** 		/* Inline Functions: */
 165:lib/lufa/LUFA/Drivers/USB/Core/AVR8/../AVR8/Endpoint_AVR8.h **** 			/** Configures the specified endpoint address with the given endpoint type, bank size and number
 166:lib/lufa/LUFA/Drivers/USB/Core/AVR8/../AVR8/Endpoint_AVR8.h **** 			 *  banks. Once configured, the endpoint may be read from or written to, depending on its direct
 167:lib/lufa/LUFA/Drivers/USB/Core/AVR8/../AVR8/Endpoint_AVR8.h **** 			 *
 168:lib/lufa/LUFA/Drivers/USB/Core/AVR8/../AVR8/Endpoint_AVR8.h **** 			 *  \param[in] Address    Endpoint address to configure.
 169:lib/lufa/LUFA/Drivers/USB/Core/AVR8/../AVR8/Endpoint_AVR8.h **** 			 *
 170:lib/lufa/LUFA/Drivers/USB/Core/AVR8/../AVR8/Endpoint_AVR8.h **** 			 *  \param[in] Type       Type of endpoint to configure, a \c EP_TYPE_* mask. Not all endpoint t
 171:lib/lufa/LUFA/Drivers/USB/Core/AVR8/../AVR8/Endpoint_AVR8.h **** 			 *                        are available on Low Speed USB devices - refer to the USB 2.0 specific
 172:lib/lufa/LUFA/Drivers/USB/Core/AVR8/../AVR8/Endpoint_AVR8.h **** 			 *
 173:lib/lufa/LUFA/Drivers/USB/Core/AVR8/../AVR8/Endpoint_AVR8.h **** 			 *  \param[in] Size       Size of the endpoint's bank, where packets are stored before they are 
 174:lib/lufa/LUFA/Drivers/USB/Core/AVR8/../AVR8/Endpoint_AVR8.h **** 			 *                        to the USB host, or after they have been received from the USB host (d
 175:lib/lufa/LUFA/Drivers/USB/Core/AVR8/../AVR8/Endpoint_AVR8.h **** 			 *                        the endpoint's data direction). The bank size must indicate the maximu
 176:lib/lufa/LUFA/Drivers/USB/Core/AVR8/../AVR8/Endpoint_AVR8.h **** 			 *                        that the endpoint can handle.
 177:lib/lufa/LUFA/Drivers/USB/Core/AVR8/../AVR8/Endpoint_AVR8.h **** 			 *
 178:lib/lufa/LUFA/Drivers/USB/Core/AVR8/../AVR8/Endpoint_AVR8.h **** 			 *  \param[in] Banks      Number of banks to use for the endpoint being configured.
 179:lib/lufa/LUFA/Drivers/USB/Core/AVR8/../AVR8/Endpoint_AVR8.h **** 			 *
 180:lib/lufa/LUFA/Drivers/USB/Core/AVR8/../AVR8/Endpoint_AVR8.h **** 			 *  \attention When the \c ORDERED_EP_CONFIG compile time option is used, Endpoints <b>must</b> 
 181:lib/lufa/LUFA/Drivers/USB/Core/AVR8/../AVR8/Endpoint_AVR8.h **** 			 *             ascending order, or bank corruption will occur.
 182:lib/lufa/LUFA/Drivers/USB/Core/AVR8/../AVR8/Endpoint_AVR8.h **** 			 *
 183:lib/lufa/LUFA/Drivers/USB/Core/AVR8/../AVR8/Endpoint_AVR8.h **** 			 *  \note Different endpoints may have different maximum packet sizes based on the endpoint's in
 184:lib/lufa/LUFA/Drivers/USB/Core/AVR8/../AVR8/Endpoint_AVR8.h **** 			 *        refer to the chosen microcontroller model's datasheet to determine the maximum bank si
 185:lib/lufa/LUFA/Drivers/USB/Core/AVR8/../AVR8/Endpoint_AVR8.h **** 			 *        \n\n
 186:lib/lufa/LUFA/Drivers/USB/Core/AVR8/../AVR8/Endpoint_AVR8.h **** 			 *
 187:lib/lufa/LUFA/Drivers/USB/Core/AVR8/../AVR8/Endpoint_AVR8.h **** 			 *  \note The default control endpoint should not be manually configured by the user application
 188:lib/lufa/LUFA/Drivers/USB/Core/AVR8/../AVR8/Endpoint_AVR8.h **** 			 *        it is automatically configured by the library internally.
 189:lib/lufa/LUFA/Drivers/USB/Core/AVR8/../AVR8/Endpoint_AVR8.h **** 			 *        \n\n
 190:lib/lufa/LUFA/Drivers/USB/Core/AVR8/../AVR8/Endpoint_AVR8.h **** 			 *
 191:lib/lufa/LUFA/Drivers/USB/Core/AVR8/../AVR8/Endpoint_AVR8.h **** 			 *  \note This routine will automatically select the specified endpoint upon success. Upon failu
 192:lib/lufa/LUFA/Drivers/USB/Core/AVR8/../AVR8/Endpoint_AVR8.h **** 			 *        which failed to reconfigure correctly will be selected.
 193:lib/lufa/LUFA/Drivers/USB/Core/AVR8/../AVR8/Endpoint_AVR8.h **** 			 *
 194:lib/lufa/LUFA/Drivers/USB/Core/AVR8/../AVR8/Endpoint_AVR8.h **** 			 *  \return Boolean \c true if the configuration succeeded, \c false otherwise.
 195:lib/lufa/LUFA/Drivers/USB/Core/AVR8/../AVR8/Endpoint_AVR8.h **** 			 */
 196:lib/lufa/LUFA/Drivers/USB/Core/AVR8/../AVR8/Endpoint_AVR8.h **** 			static inline bool Endpoint_ConfigureEndpoint(const uint8_t Address,
 197:lib/lufa/LUFA/Drivers/USB/Core/AVR8/../AVR8/Endpoint_AVR8.h **** 			                                              const uint8_t Type,
 198:lib/lufa/LUFA/Drivers/USB/Core/AVR8/../AVR8/Endpoint_AVR8.h **** 			                                              const uint16_t Size,
 199:lib/lufa/LUFA/Drivers/USB/Core/AVR8/../AVR8/Endpoint_AVR8.h **** 			                                              const uint8_t Banks) ATTR_ALWAYS_INLINE;
 200:lib/lufa/LUFA/Drivers/USB/Core/AVR8/../AVR8/Endpoint_AVR8.h **** 			static inline bool Endpoint_ConfigureEndpoint(const uint8_t Address,
 201:lib/lufa/LUFA/Drivers/USB/Core/AVR8/../AVR8/Endpoint_AVR8.h **** 			                                              const uint8_t Type,
 202:lib/lufa/LUFA/Drivers/USB/Core/AVR8/../AVR8/Endpoint_AVR8.h **** 			                                              const uint16_t Size,
 203:lib/lufa/LUFA/Drivers/USB/Core/AVR8/../AVR8/Endpoint_AVR8.h **** 			                                              const uint8_t Banks)
 204:lib/lufa/LUFA/Drivers/USB/Core/AVR8/../AVR8/Endpoint_AVR8.h **** 			{
 205:lib/lufa/LUFA/Drivers/USB/Core/AVR8/../AVR8/Endpoint_AVR8.h **** 				uint8_t Number = (Address & ENDPOINT_EPNUM_MASK);
 206:lib/lufa/LUFA/Drivers/USB/Core/AVR8/../AVR8/Endpoint_AVR8.h **** 
 207:lib/lufa/LUFA/Drivers/USB/Core/AVR8/../AVR8/Endpoint_AVR8.h **** 				if (Number >= ENDPOINT_TOTAL_ENDPOINTS)
 208:lib/lufa/LUFA/Drivers/USB/Core/AVR8/../AVR8/Endpoint_AVR8.h **** 				  return false;
 209:lib/lufa/LUFA/Drivers/USB/Core/AVR8/../AVR8/Endpoint_AVR8.h **** 
 210:lib/lufa/LUFA/Drivers/USB/Core/AVR8/../AVR8/Endpoint_AVR8.h **** 				return Endpoint_ConfigureEndpoint_Prv(Number,
 211:lib/lufa/LUFA/Drivers/USB/Core/AVR8/../AVR8/Endpoint_AVR8.h **** 				                                      ((Type << EPTYPE0) | ((Address & ENDPOINT_DIR_IN) ? (1 <<
 212:lib/lufa/LUFA/Drivers/USB/Core/AVR8/../AVR8/Endpoint_AVR8.h **** 				                                      ((1 << ALLOC) | ((Banks > 1) ? (1 << EPBK0) : 0) | Endpoi
 213:lib/lufa/LUFA/Drivers/USB/Core/AVR8/../AVR8/Endpoint_AVR8.h **** 			}
 214:lib/lufa/LUFA/Drivers/USB/Core/AVR8/../AVR8/Endpoint_AVR8.h **** 
 215:lib/lufa/LUFA/Drivers/USB/Core/AVR8/../AVR8/Endpoint_AVR8.h **** 			/** Indicates the number of bytes currently stored in the current endpoint's selected bank.
 216:lib/lufa/LUFA/Drivers/USB/Core/AVR8/../AVR8/Endpoint_AVR8.h **** 			 *
 217:lib/lufa/LUFA/Drivers/USB/Core/AVR8/../AVR8/Endpoint_AVR8.h **** 			 *  \ingroup Group_EndpointRW_AVR8
 218:lib/lufa/LUFA/Drivers/USB/Core/AVR8/../AVR8/Endpoint_AVR8.h **** 			 *
 219:lib/lufa/LUFA/Drivers/USB/Core/AVR8/../AVR8/Endpoint_AVR8.h **** 			 *  \return Total number of bytes in the currently selected Endpoint's FIFO buffer.
 220:lib/lufa/LUFA/Drivers/USB/Core/AVR8/../AVR8/Endpoint_AVR8.h **** 			 */
 221:lib/lufa/LUFA/Drivers/USB/Core/AVR8/../AVR8/Endpoint_AVR8.h **** 			static inline uint16_t Endpoint_BytesInEndpoint(void) ATTR_WARN_UNUSED_RESULT ATTR_ALWAYS_INLINE
 222:lib/lufa/LUFA/Drivers/USB/Core/AVR8/../AVR8/Endpoint_AVR8.h **** 			static inline uint16_t Endpoint_BytesInEndpoint(void)
 223:lib/lufa/LUFA/Drivers/USB/Core/AVR8/../AVR8/Endpoint_AVR8.h **** 			{
 224:lib/lufa/LUFA/Drivers/USB/Core/AVR8/../AVR8/Endpoint_AVR8.h **** 				#if (defined(USB_SERIES_6_AVR) || defined(USB_SERIES_7_AVR))
 225:lib/lufa/LUFA/Drivers/USB/Core/AVR8/../AVR8/Endpoint_AVR8.h **** 					return UEBCX;
 226:lib/lufa/LUFA/Drivers/USB/Core/AVR8/../AVR8/Endpoint_AVR8.h **** 				#elif defined(USB_SERIES_4_AVR)
 227:lib/lufa/LUFA/Drivers/USB/Core/AVR8/../AVR8/Endpoint_AVR8.h **** 					return (((uint16_t)UEBCHX << 8) | UEBCLX);
 228:lib/lufa/LUFA/Drivers/USB/Core/AVR8/../AVR8/Endpoint_AVR8.h **** 				#elif defined(USB_SERIES_2_AVR)
 229:lib/lufa/LUFA/Drivers/USB/Core/AVR8/../AVR8/Endpoint_AVR8.h **** 					return UEBCLX;
 230:lib/lufa/LUFA/Drivers/USB/Core/AVR8/../AVR8/Endpoint_AVR8.h **** 				#endif
 231:lib/lufa/LUFA/Drivers/USB/Core/AVR8/../AVR8/Endpoint_AVR8.h **** 			}
 232:lib/lufa/LUFA/Drivers/USB/Core/AVR8/../AVR8/Endpoint_AVR8.h **** 
 233:lib/lufa/LUFA/Drivers/USB/Core/AVR8/../AVR8/Endpoint_AVR8.h **** 			/** Determines the currently selected endpoint's direction.
 234:lib/lufa/LUFA/Drivers/USB/Core/AVR8/../AVR8/Endpoint_AVR8.h **** 			 *
 235:lib/lufa/LUFA/Drivers/USB/Core/AVR8/../AVR8/Endpoint_AVR8.h **** 			 *  \return The currently selected endpoint's direction, as a \c ENDPOINT_DIR_* mask.
 236:lib/lufa/LUFA/Drivers/USB/Core/AVR8/../AVR8/Endpoint_AVR8.h **** 			 */
 237:lib/lufa/LUFA/Drivers/USB/Core/AVR8/../AVR8/Endpoint_AVR8.h **** 			static inline uint8_t Endpoint_GetEndpointDirection(void) ATTR_WARN_UNUSED_RESULT ATTR_ALWAYS_IN
 238:lib/lufa/LUFA/Drivers/USB/Core/AVR8/../AVR8/Endpoint_AVR8.h **** 			static inline uint8_t Endpoint_GetEndpointDirection(void)
 239:lib/lufa/LUFA/Drivers/USB/Core/AVR8/../AVR8/Endpoint_AVR8.h **** 			{
 240:lib/lufa/LUFA/Drivers/USB/Core/AVR8/../AVR8/Endpoint_AVR8.h **** 				return (UECFG0X & (1 << EPDIR)) ? ENDPOINT_DIR_IN : ENDPOINT_DIR_OUT;
 241:lib/lufa/LUFA/Drivers/USB/Core/AVR8/../AVR8/Endpoint_AVR8.h **** 			}
 242:lib/lufa/LUFA/Drivers/USB/Core/AVR8/../AVR8/Endpoint_AVR8.h **** 
 243:lib/lufa/LUFA/Drivers/USB/Core/AVR8/../AVR8/Endpoint_AVR8.h **** 			/** Get the endpoint address of the currently selected endpoint. This is typically used to save
 244:lib/lufa/LUFA/Drivers/USB/Core/AVR8/../AVR8/Endpoint_AVR8.h **** 			 *  the currently selected endpoint so that it can be restored after another endpoint has been
 245:lib/lufa/LUFA/Drivers/USB/Core/AVR8/../AVR8/Endpoint_AVR8.h **** 			 *  manipulated.
 246:lib/lufa/LUFA/Drivers/USB/Core/AVR8/../AVR8/Endpoint_AVR8.h **** 			 *
 247:lib/lufa/LUFA/Drivers/USB/Core/AVR8/../AVR8/Endpoint_AVR8.h **** 			 *  \return Index of the currently selected endpoint.
 248:lib/lufa/LUFA/Drivers/USB/Core/AVR8/../AVR8/Endpoint_AVR8.h **** 			 */
 249:lib/lufa/LUFA/Drivers/USB/Core/AVR8/../AVR8/Endpoint_AVR8.h **** 			static inline uint8_t Endpoint_GetCurrentEndpoint(void) ATTR_WARN_UNUSED_RESULT ATTR_ALWAYS_INLI
 250:lib/lufa/LUFA/Drivers/USB/Core/AVR8/../AVR8/Endpoint_AVR8.h **** 			static inline uint8_t Endpoint_GetCurrentEndpoint(void)
 251:lib/lufa/LUFA/Drivers/USB/Core/AVR8/../AVR8/Endpoint_AVR8.h **** 			{
 252:lib/lufa/LUFA/Drivers/USB/Core/AVR8/../AVR8/Endpoint_AVR8.h **** 				#if !defined(CONTROL_ONLY_DEVICE)
 253:lib/lufa/LUFA/Drivers/USB/Core/AVR8/../AVR8/Endpoint_AVR8.h **** 					return ((UENUM & ENDPOINT_EPNUM_MASK) | Endpoint_GetEndpointDirection());
 254:lib/lufa/LUFA/Drivers/USB/Core/AVR8/../AVR8/Endpoint_AVR8.h **** 				#else
 255:lib/lufa/LUFA/Drivers/USB/Core/AVR8/../AVR8/Endpoint_AVR8.h **** 					return ENDPOINT_CONTROLEP;
 256:lib/lufa/LUFA/Drivers/USB/Core/AVR8/../AVR8/Endpoint_AVR8.h **** 				#endif
 257:lib/lufa/LUFA/Drivers/USB/Core/AVR8/../AVR8/Endpoint_AVR8.h **** 			}
 258:lib/lufa/LUFA/Drivers/USB/Core/AVR8/../AVR8/Endpoint_AVR8.h **** 
 259:lib/lufa/LUFA/Drivers/USB/Core/AVR8/../AVR8/Endpoint_AVR8.h **** 			/** Selects the given endpoint address.
 260:lib/lufa/LUFA/Drivers/USB/Core/AVR8/../AVR8/Endpoint_AVR8.h **** 			 *
 261:lib/lufa/LUFA/Drivers/USB/Core/AVR8/../AVR8/Endpoint_AVR8.h **** 			 *  Any endpoint operations which do not require the endpoint address to be indicated will opera
 262:lib/lufa/LUFA/Drivers/USB/Core/AVR8/../AVR8/Endpoint_AVR8.h **** 			 *  the currently selected endpoint.
 263:lib/lufa/LUFA/Drivers/USB/Core/AVR8/../AVR8/Endpoint_AVR8.h **** 			 *
 264:lib/lufa/LUFA/Drivers/USB/Core/AVR8/../AVR8/Endpoint_AVR8.h **** 			 *  \param[in] Address Endpoint address to select.
 265:lib/lufa/LUFA/Drivers/USB/Core/AVR8/../AVR8/Endpoint_AVR8.h **** 			 */
 266:lib/lufa/LUFA/Drivers/USB/Core/AVR8/../AVR8/Endpoint_AVR8.h **** 			static inline void Endpoint_SelectEndpoint(const uint8_t Address) ATTR_ALWAYS_INLINE;
 267:lib/lufa/LUFA/Drivers/USB/Core/AVR8/../AVR8/Endpoint_AVR8.h **** 			static inline void Endpoint_SelectEndpoint(const uint8_t Address)
 268:lib/lufa/LUFA/Drivers/USB/Core/AVR8/../AVR8/Endpoint_AVR8.h **** 			{
 269:lib/lufa/LUFA/Drivers/USB/Core/AVR8/../AVR8/Endpoint_AVR8.h **** 				#if !defined(CONTROL_ONLY_DEVICE)
 270:lib/lufa/LUFA/Drivers/USB/Core/AVR8/../AVR8/Endpoint_AVR8.h **** 					UENUM = (Address & ENDPOINT_EPNUM_MASK);
 271:lib/lufa/LUFA/Drivers/USB/Core/AVR8/../AVR8/Endpoint_AVR8.h **** 				#endif
 272:lib/lufa/LUFA/Drivers/USB/Core/AVR8/../AVR8/Endpoint_AVR8.h **** 			}
 273:lib/lufa/LUFA/Drivers/USB/Core/AVR8/../AVR8/Endpoint_AVR8.h **** 
 274:lib/lufa/LUFA/Drivers/USB/Core/AVR8/../AVR8/Endpoint_AVR8.h **** 			/** Resets the endpoint bank FIFO. This clears all the endpoint banks and resets the USB control
 275:lib/lufa/LUFA/Drivers/USB/Core/AVR8/../AVR8/Endpoint_AVR8.h **** 			 *  data In and Out pointers to the bank's contents.
 276:lib/lufa/LUFA/Drivers/USB/Core/AVR8/../AVR8/Endpoint_AVR8.h **** 			 *
 277:lib/lufa/LUFA/Drivers/USB/Core/AVR8/../AVR8/Endpoint_AVR8.h **** 			 *  \param[in] Address  Endpoint address whose FIFO buffers are to be reset.
 278:lib/lufa/LUFA/Drivers/USB/Core/AVR8/../AVR8/Endpoint_AVR8.h **** 			 */
 279:lib/lufa/LUFA/Drivers/USB/Core/AVR8/../AVR8/Endpoint_AVR8.h **** 			static inline void Endpoint_ResetEndpoint(const uint8_t Address) ATTR_ALWAYS_INLINE;
 280:lib/lufa/LUFA/Drivers/USB/Core/AVR8/../AVR8/Endpoint_AVR8.h **** 			static inline void Endpoint_ResetEndpoint(const uint8_t Address)
 281:lib/lufa/LUFA/Drivers/USB/Core/AVR8/../AVR8/Endpoint_AVR8.h **** 			{
 282:lib/lufa/LUFA/Drivers/USB/Core/AVR8/../AVR8/Endpoint_AVR8.h **** 				UERST = (1 << (Address & ENDPOINT_EPNUM_MASK));
 283:lib/lufa/LUFA/Drivers/USB/Core/AVR8/../AVR8/Endpoint_AVR8.h **** 				UERST = 0;
 284:lib/lufa/LUFA/Drivers/USB/Core/AVR8/../AVR8/Endpoint_AVR8.h **** 			}
 285:lib/lufa/LUFA/Drivers/USB/Core/AVR8/../AVR8/Endpoint_AVR8.h **** 
 286:lib/lufa/LUFA/Drivers/USB/Core/AVR8/../AVR8/Endpoint_AVR8.h **** 			/** Enables the currently selected endpoint so that data can be sent and received through it to
 287:lib/lufa/LUFA/Drivers/USB/Core/AVR8/../AVR8/Endpoint_AVR8.h **** 			 *  and from a host.
 288:lib/lufa/LUFA/Drivers/USB/Core/AVR8/../AVR8/Endpoint_AVR8.h **** 			 *
 289:lib/lufa/LUFA/Drivers/USB/Core/AVR8/../AVR8/Endpoint_AVR8.h **** 			 *  \note Endpoints must first be configured properly via \ref Endpoint_ConfigureEndpoint().
 290:lib/lufa/LUFA/Drivers/USB/Core/AVR8/../AVR8/Endpoint_AVR8.h **** 			 */
 291:lib/lufa/LUFA/Drivers/USB/Core/AVR8/../AVR8/Endpoint_AVR8.h **** 			static inline void Endpoint_EnableEndpoint(void) ATTR_ALWAYS_INLINE;
 292:lib/lufa/LUFA/Drivers/USB/Core/AVR8/../AVR8/Endpoint_AVR8.h **** 			static inline void Endpoint_EnableEndpoint(void)
 293:lib/lufa/LUFA/Drivers/USB/Core/AVR8/../AVR8/Endpoint_AVR8.h **** 			{
 294:lib/lufa/LUFA/Drivers/USB/Core/AVR8/../AVR8/Endpoint_AVR8.h **** 				UECONX |= (1 << EPEN);
 295:lib/lufa/LUFA/Drivers/USB/Core/AVR8/../AVR8/Endpoint_AVR8.h **** 			}
 296:lib/lufa/LUFA/Drivers/USB/Core/AVR8/../AVR8/Endpoint_AVR8.h **** 
 297:lib/lufa/LUFA/Drivers/USB/Core/AVR8/../AVR8/Endpoint_AVR8.h **** 			/** Disables the currently selected endpoint so that data cannot be sent and received through it
 298:lib/lufa/LUFA/Drivers/USB/Core/AVR8/../AVR8/Endpoint_AVR8.h **** 			 *  to and from a host.
 299:lib/lufa/LUFA/Drivers/USB/Core/AVR8/../AVR8/Endpoint_AVR8.h **** 			 */
 300:lib/lufa/LUFA/Drivers/USB/Core/AVR8/../AVR8/Endpoint_AVR8.h **** 			static inline void Endpoint_DisableEndpoint(void) ATTR_ALWAYS_INLINE;
 301:lib/lufa/LUFA/Drivers/USB/Core/AVR8/../AVR8/Endpoint_AVR8.h **** 			static inline void Endpoint_DisableEndpoint(void)
 302:lib/lufa/LUFA/Drivers/USB/Core/AVR8/../AVR8/Endpoint_AVR8.h **** 			{
 303:lib/lufa/LUFA/Drivers/USB/Core/AVR8/../AVR8/Endpoint_AVR8.h **** 				UECONX &= ~(1 << EPEN);
 304:lib/lufa/LUFA/Drivers/USB/Core/AVR8/../AVR8/Endpoint_AVR8.h **** 			}
 305:lib/lufa/LUFA/Drivers/USB/Core/AVR8/../AVR8/Endpoint_AVR8.h **** 
 306:lib/lufa/LUFA/Drivers/USB/Core/AVR8/../AVR8/Endpoint_AVR8.h **** 			/** Determines if the currently selected endpoint is enabled, but not necessarily configured.
 307:lib/lufa/LUFA/Drivers/USB/Core/AVR8/../AVR8/Endpoint_AVR8.h **** 			 *
 308:lib/lufa/LUFA/Drivers/USB/Core/AVR8/../AVR8/Endpoint_AVR8.h **** 			 * \return Boolean \c true if the currently selected endpoint is enabled, \c false otherwise.
 309:lib/lufa/LUFA/Drivers/USB/Core/AVR8/../AVR8/Endpoint_AVR8.h **** 			 */
 310:lib/lufa/LUFA/Drivers/USB/Core/AVR8/../AVR8/Endpoint_AVR8.h **** 			static inline bool Endpoint_IsEnabled(void) ATTR_WARN_UNUSED_RESULT ATTR_ALWAYS_INLINE;
 311:lib/lufa/LUFA/Drivers/USB/Core/AVR8/../AVR8/Endpoint_AVR8.h **** 			static inline bool Endpoint_IsEnabled(void)
 312:lib/lufa/LUFA/Drivers/USB/Core/AVR8/../AVR8/Endpoint_AVR8.h **** 			{
 313:lib/lufa/LUFA/Drivers/USB/Core/AVR8/../AVR8/Endpoint_AVR8.h **** 				return ((UECONX & (1 << EPEN)) ? true : false);
 314:lib/lufa/LUFA/Drivers/USB/Core/AVR8/../AVR8/Endpoint_AVR8.h **** 			}
 315:lib/lufa/LUFA/Drivers/USB/Core/AVR8/../AVR8/Endpoint_AVR8.h **** 
 316:lib/lufa/LUFA/Drivers/USB/Core/AVR8/../AVR8/Endpoint_AVR8.h **** 			/** Retrieves the number of busy banks in the currently selected endpoint, which have been queue
 317:lib/lufa/LUFA/Drivers/USB/Core/AVR8/../AVR8/Endpoint_AVR8.h **** 			 *  transmission via the \ref Endpoint_ClearIN() command, or are awaiting acknowledgment via the
 318:lib/lufa/LUFA/Drivers/USB/Core/AVR8/../AVR8/Endpoint_AVR8.h **** 			 *  \ref Endpoint_ClearOUT() command.
 319:lib/lufa/LUFA/Drivers/USB/Core/AVR8/../AVR8/Endpoint_AVR8.h **** 			 *
 320:lib/lufa/LUFA/Drivers/USB/Core/AVR8/../AVR8/Endpoint_AVR8.h **** 			 *  \ingroup Group_EndpointPacketManagement_AVR8
 321:lib/lufa/LUFA/Drivers/USB/Core/AVR8/../AVR8/Endpoint_AVR8.h **** 			 *
 322:lib/lufa/LUFA/Drivers/USB/Core/AVR8/../AVR8/Endpoint_AVR8.h **** 			 *  \return Total number of busy banks in the selected endpoint.
 323:lib/lufa/LUFA/Drivers/USB/Core/AVR8/../AVR8/Endpoint_AVR8.h **** 			 */
 324:lib/lufa/LUFA/Drivers/USB/Core/AVR8/../AVR8/Endpoint_AVR8.h **** 			static inline uint8_t Endpoint_GetBusyBanks(void) ATTR_ALWAYS_INLINE ATTR_WARN_UNUSED_RESULT;
 325:lib/lufa/LUFA/Drivers/USB/Core/AVR8/../AVR8/Endpoint_AVR8.h **** 			static inline uint8_t Endpoint_GetBusyBanks(void)
 326:lib/lufa/LUFA/Drivers/USB/Core/AVR8/../AVR8/Endpoint_AVR8.h **** 			{
 327:lib/lufa/LUFA/Drivers/USB/Core/AVR8/../AVR8/Endpoint_AVR8.h **** 				return (UESTA0X & (0x03 << NBUSYBK0));
 328:lib/lufa/LUFA/Drivers/USB/Core/AVR8/../AVR8/Endpoint_AVR8.h **** 			}
 329:lib/lufa/LUFA/Drivers/USB/Core/AVR8/../AVR8/Endpoint_AVR8.h **** 
 330:lib/lufa/LUFA/Drivers/USB/Core/AVR8/../AVR8/Endpoint_AVR8.h **** 			/** Aborts all pending IN transactions on the currently selected endpoint, once the bank
 331:lib/lufa/LUFA/Drivers/USB/Core/AVR8/../AVR8/Endpoint_AVR8.h **** 			 *  has been queued for transmission to the host via \ref Endpoint_ClearIN(). This function
 332:lib/lufa/LUFA/Drivers/USB/Core/AVR8/../AVR8/Endpoint_AVR8.h **** 			 *  will terminate all queued transactions, resetting the endpoint banks ready for a new
 333:lib/lufa/LUFA/Drivers/USB/Core/AVR8/../AVR8/Endpoint_AVR8.h **** 			 *  packet.
 334:lib/lufa/LUFA/Drivers/USB/Core/AVR8/../AVR8/Endpoint_AVR8.h **** 			 *
 335:lib/lufa/LUFA/Drivers/USB/Core/AVR8/../AVR8/Endpoint_AVR8.h **** 			 *  \ingroup Group_EndpointPacketManagement_AVR8
 336:lib/lufa/LUFA/Drivers/USB/Core/AVR8/../AVR8/Endpoint_AVR8.h **** 			 */
 337:lib/lufa/LUFA/Drivers/USB/Core/AVR8/../AVR8/Endpoint_AVR8.h **** 			static inline void Endpoint_AbortPendingIN(void)
 338:lib/lufa/LUFA/Drivers/USB/Core/AVR8/../AVR8/Endpoint_AVR8.h **** 			{
 339:lib/lufa/LUFA/Drivers/USB/Core/AVR8/../AVR8/Endpoint_AVR8.h **** 				while (Endpoint_GetBusyBanks() != 0)
 340:lib/lufa/LUFA/Drivers/USB/Core/AVR8/../AVR8/Endpoint_AVR8.h **** 				{
 341:lib/lufa/LUFA/Drivers/USB/Core/AVR8/../AVR8/Endpoint_AVR8.h **** 					UEINTX |= (1 << RXOUTI);
 342:lib/lufa/LUFA/Drivers/USB/Core/AVR8/../AVR8/Endpoint_AVR8.h **** 					while (UEINTX & (1 << RXOUTI));
 343:lib/lufa/LUFA/Drivers/USB/Core/AVR8/../AVR8/Endpoint_AVR8.h **** 				}
 344:lib/lufa/LUFA/Drivers/USB/Core/AVR8/../AVR8/Endpoint_AVR8.h **** 			}
 345:lib/lufa/LUFA/Drivers/USB/Core/AVR8/../AVR8/Endpoint_AVR8.h **** 
 346:lib/lufa/LUFA/Drivers/USB/Core/AVR8/../AVR8/Endpoint_AVR8.h **** 			/** Determines if the currently selected endpoint may be read from (if data is waiting in the en
 347:lib/lufa/LUFA/Drivers/USB/Core/AVR8/../AVR8/Endpoint_AVR8.h **** 			 *  bank and the endpoint is an OUT direction, or if the bank is not yet full if the endpoint is
 348:lib/lufa/LUFA/Drivers/USB/Core/AVR8/../AVR8/Endpoint_AVR8.h **** 			 *  direction). This function will return false if an error has occurred in the endpoint, if the
 349:lib/lufa/LUFA/Drivers/USB/Core/AVR8/../AVR8/Endpoint_AVR8.h **** 			 *  is an OUT direction and no packet (or an empty packet) has been received, or if the endpoint
 350:lib/lufa/LUFA/Drivers/USB/Core/AVR8/../AVR8/Endpoint_AVR8.h **** 			 *  direction and the endpoint bank is full.
 351:lib/lufa/LUFA/Drivers/USB/Core/AVR8/../AVR8/Endpoint_AVR8.h **** 			 *
 352:lib/lufa/LUFA/Drivers/USB/Core/AVR8/../AVR8/Endpoint_AVR8.h **** 			 *  \ingroup Group_EndpointPacketManagement_AVR8
 353:lib/lufa/LUFA/Drivers/USB/Core/AVR8/../AVR8/Endpoint_AVR8.h **** 			 *
 354:lib/lufa/LUFA/Drivers/USB/Core/AVR8/../AVR8/Endpoint_AVR8.h **** 			 *  \return Boolean \c true if the currently selected endpoint may be read from or written to, d
 355:lib/lufa/LUFA/Drivers/USB/Core/AVR8/../AVR8/Endpoint_AVR8.h **** 			 *          on its direction.
 356:lib/lufa/LUFA/Drivers/USB/Core/AVR8/../AVR8/Endpoint_AVR8.h **** 			 */
 357:lib/lufa/LUFA/Drivers/USB/Core/AVR8/../AVR8/Endpoint_AVR8.h **** 			static inline bool Endpoint_IsReadWriteAllowed(void) ATTR_WARN_UNUSED_RESULT ATTR_ALWAYS_INLINE;
 358:lib/lufa/LUFA/Drivers/USB/Core/AVR8/../AVR8/Endpoint_AVR8.h **** 			static inline bool Endpoint_IsReadWriteAllowed(void)
 359:lib/lufa/LUFA/Drivers/USB/Core/AVR8/../AVR8/Endpoint_AVR8.h **** 			{
 360:lib/lufa/LUFA/Drivers/USB/Core/AVR8/../AVR8/Endpoint_AVR8.h **** 				return ((UEINTX & (1 << RWAL)) ? true : false);
 361:lib/lufa/LUFA/Drivers/USB/Core/AVR8/../AVR8/Endpoint_AVR8.h **** 			}
 362:lib/lufa/LUFA/Drivers/USB/Core/AVR8/../AVR8/Endpoint_AVR8.h **** 
 363:lib/lufa/LUFA/Drivers/USB/Core/AVR8/../AVR8/Endpoint_AVR8.h **** 			/** Determines if the currently selected endpoint is configured.
 364:lib/lufa/LUFA/Drivers/USB/Core/AVR8/../AVR8/Endpoint_AVR8.h **** 			 *
 365:lib/lufa/LUFA/Drivers/USB/Core/AVR8/../AVR8/Endpoint_AVR8.h **** 			 *  \return Boolean \c true if the currently selected endpoint has been configured, \c false oth
 366:lib/lufa/LUFA/Drivers/USB/Core/AVR8/../AVR8/Endpoint_AVR8.h **** 			 */
 367:lib/lufa/LUFA/Drivers/USB/Core/AVR8/../AVR8/Endpoint_AVR8.h **** 			static inline bool Endpoint_IsConfigured(void) ATTR_WARN_UNUSED_RESULT ATTR_ALWAYS_INLINE;
 368:lib/lufa/LUFA/Drivers/USB/Core/AVR8/../AVR8/Endpoint_AVR8.h **** 			static inline bool Endpoint_IsConfigured(void)
 369:lib/lufa/LUFA/Drivers/USB/Core/AVR8/../AVR8/Endpoint_AVR8.h **** 			{
 370:lib/lufa/LUFA/Drivers/USB/Core/AVR8/../AVR8/Endpoint_AVR8.h **** 				return ((UESTA0X & (1 << CFGOK)) ? true : false);
 371:lib/lufa/LUFA/Drivers/USB/Core/AVR8/../AVR8/Endpoint_AVR8.h **** 			}
 372:lib/lufa/LUFA/Drivers/USB/Core/AVR8/../AVR8/Endpoint_AVR8.h **** 
 373:lib/lufa/LUFA/Drivers/USB/Core/AVR8/../AVR8/Endpoint_AVR8.h **** 			/** Returns a mask indicating which INTERRUPT type endpoints have interrupted - i.e. their
 374:lib/lufa/LUFA/Drivers/USB/Core/AVR8/../AVR8/Endpoint_AVR8.h **** 			 *  interrupt duration has elapsed. Which endpoints have interrupted can be determined by
 375:lib/lufa/LUFA/Drivers/USB/Core/AVR8/../AVR8/Endpoint_AVR8.h **** 			 *  masking the return value against <tt>(1 << <i>{Endpoint Number}</i>)</tt>.
 376:lib/lufa/LUFA/Drivers/USB/Core/AVR8/../AVR8/Endpoint_AVR8.h **** 			 *
 377:lib/lufa/LUFA/Drivers/USB/Core/AVR8/../AVR8/Endpoint_AVR8.h **** 			 *  \return Mask whose bits indicate which endpoints have interrupted.
 378:lib/lufa/LUFA/Drivers/USB/Core/AVR8/../AVR8/Endpoint_AVR8.h **** 			 */
 379:lib/lufa/LUFA/Drivers/USB/Core/AVR8/../AVR8/Endpoint_AVR8.h **** 			static inline uint8_t Endpoint_GetEndpointInterrupts(void) ATTR_WARN_UNUSED_RESULT ATTR_ALWAYS_I
 380:lib/lufa/LUFA/Drivers/USB/Core/AVR8/../AVR8/Endpoint_AVR8.h **** 			static inline uint8_t Endpoint_GetEndpointInterrupts(void)
 381:lib/lufa/LUFA/Drivers/USB/Core/AVR8/../AVR8/Endpoint_AVR8.h **** 			{
 382:lib/lufa/LUFA/Drivers/USB/Core/AVR8/../AVR8/Endpoint_AVR8.h **** 				return UEINT;
 383:lib/lufa/LUFA/Drivers/USB/Core/AVR8/../AVR8/Endpoint_AVR8.h **** 			}
 384:lib/lufa/LUFA/Drivers/USB/Core/AVR8/../AVR8/Endpoint_AVR8.h **** 
 385:lib/lufa/LUFA/Drivers/USB/Core/AVR8/../AVR8/Endpoint_AVR8.h **** 			/** Determines if the specified endpoint number has interrupted (valid only for INTERRUPT type
 386:lib/lufa/LUFA/Drivers/USB/Core/AVR8/../AVR8/Endpoint_AVR8.h **** 			 *  endpoints).
 387:lib/lufa/LUFA/Drivers/USB/Core/AVR8/../AVR8/Endpoint_AVR8.h **** 			 *
 388:lib/lufa/LUFA/Drivers/USB/Core/AVR8/../AVR8/Endpoint_AVR8.h **** 			 *  \param[in] Address  Address of the endpoint whose interrupt flag should be tested.
 389:lib/lufa/LUFA/Drivers/USB/Core/AVR8/../AVR8/Endpoint_AVR8.h **** 			 *
 390:lib/lufa/LUFA/Drivers/USB/Core/AVR8/../AVR8/Endpoint_AVR8.h **** 			 *  \return Boolean \c true if the specified endpoint has interrupted, \c false otherwise.
 391:lib/lufa/LUFA/Drivers/USB/Core/AVR8/../AVR8/Endpoint_AVR8.h **** 			 */
 392:lib/lufa/LUFA/Drivers/USB/Core/AVR8/../AVR8/Endpoint_AVR8.h **** 			static inline bool Endpoint_HasEndpointInterrupted(const uint8_t Address) ATTR_WARN_UNUSED_RESUL
 393:lib/lufa/LUFA/Drivers/USB/Core/AVR8/../AVR8/Endpoint_AVR8.h **** 			static inline bool Endpoint_HasEndpointInterrupted(const uint8_t Address)
 394:lib/lufa/LUFA/Drivers/USB/Core/AVR8/../AVR8/Endpoint_AVR8.h **** 			{
 395:lib/lufa/LUFA/Drivers/USB/Core/AVR8/../AVR8/Endpoint_AVR8.h **** 				return ((Endpoint_GetEndpointInterrupts() & (1 << (Address & ENDPOINT_EPNUM_MASK))) ? true : fa
 396:lib/lufa/LUFA/Drivers/USB/Core/AVR8/../AVR8/Endpoint_AVR8.h **** 			}
 397:lib/lufa/LUFA/Drivers/USB/Core/AVR8/../AVR8/Endpoint_AVR8.h **** 
 398:lib/lufa/LUFA/Drivers/USB/Core/AVR8/../AVR8/Endpoint_AVR8.h **** 			/** Determines if the selected IN endpoint is ready for a new packet to be sent to the host.
 399:lib/lufa/LUFA/Drivers/USB/Core/AVR8/../AVR8/Endpoint_AVR8.h **** 			 *
 400:lib/lufa/LUFA/Drivers/USB/Core/AVR8/../AVR8/Endpoint_AVR8.h **** 			 *  \ingroup Group_EndpointPacketManagement_AVR8
 401:lib/lufa/LUFA/Drivers/USB/Core/AVR8/../AVR8/Endpoint_AVR8.h **** 			 *
 402:lib/lufa/LUFA/Drivers/USB/Core/AVR8/../AVR8/Endpoint_AVR8.h **** 			 *  \return Boolean \c true if the current endpoint is ready for an IN packet, \c false otherwis
 403:lib/lufa/LUFA/Drivers/USB/Core/AVR8/../AVR8/Endpoint_AVR8.h **** 			 */
 404:lib/lufa/LUFA/Drivers/USB/Core/AVR8/../AVR8/Endpoint_AVR8.h **** 			static inline bool Endpoint_IsINReady(void) ATTR_WARN_UNUSED_RESULT ATTR_ALWAYS_INLINE;
 405:lib/lufa/LUFA/Drivers/USB/Core/AVR8/../AVR8/Endpoint_AVR8.h **** 			static inline bool Endpoint_IsINReady(void)
 406:lib/lufa/LUFA/Drivers/USB/Core/AVR8/../AVR8/Endpoint_AVR8.h **** 			{
 407:lib/lufa/LUFA/Drivers/USB/Core/AVR8/../AVR8/Endpoint_AVR8.h **** 				return ((UEINTX & (1 << TXINI)) ? true : false);
 408:lib/lufa/LUFA/Drivers/USB/Core/AVR8/../AVR8/Endpoint_AVR8.h **** 			}
 409:lib/lufa/LUFA/Drivers/USB/Core/AVR8/../AVR8/Endpoint_AVR8.h **** 
 410:lib/lufa/LUFA/Drivers/USB/Core/AVR8/../AVR8/Endpoint_AVR8.h **** 			/** Determines if the selected OUT endpoint has received new packet from the host.
 411:lib/lufa/LUFA/Drivers/USB/Core/AVR8/../AVR8/Endpoint_AVR8.h **** 			 *
 412:lib/lufa/LUFA/Drivers/USB/Core/AVR8/../AVR8/Endpoint_AVR8.h **** 			 *  \ingroup Group_EndpointPacketManagement_AVR8
 413:lib/lufa/LUFA/Drivers/USB/Core/AVR8/../AVR8/Endpoint_AVR8.h **** 			 *
 414:lib/lufa/LUFA/Drivers/USB/Core/AVR8/../AVR8/Endpoint_AVR8.h **** 			 *  \return Boolean \c true if current endpoint is has received an OUT packet, \c false otherwis
 415:lib/lufa/LUFA/Drivers/USB/Core/AVR8/../AVR8/Endpoint_AVR8.h **** 			 */
 416:lib/lufa/LUFA/Drivers/USB/Core/AVR8/../AVR8/Endpoint_AVR8.h **** 			static inline bool Endpoint_IsOUTReceived(void) ATTR_WARN_UNUSED_RESULT ATTR_ALWAYS_INLINE;
 417:lib/lufa/LUFA/Drivers/USB/Core/AVR8/../AVR8/Endpoint_AVR8.h **** 			static inline bool Endpoint_IsOUTReceived(void)
 418:lib/lufa/LUFA/Drivers/USB/Core/AVR8/../AVR8/Endpoint_AVR8.h **** 			{
 419:lib/lufa/LUFA/Drivers/USB/Core/AVR8/../AVR8/Endpoint_AVR8.h **** 				return ((UEINTX & (1 << RXOUTI)) ? true : false);
 420:lib/lufa/LUFA/Drivers/USB/Core/AVR8/../AVR8/Endpoint_AVR8.h **** 			}
 421:lib/lufa/LUFA/Drivers/USB/Core/AVR8/../AVR8/Endpoint_AVR8.h **** 
 422:lib/lufa/LUFA/Drivers/USB/Core/AVR8/../AVR8/Endpoint_AVR8.h **** 			/** Determines if the current CONTROL type endpoint has received a SETUP packet.
 423:lib/lufa/LUFA/Drivers/USB/Core/AVR8/../AVR8/Endpoint_AVR8.h **** 			 *
 424:lib/lufa/LUFA/Drivers/USB/Core/AVR8/../AVR8/Endpoint_AVR8.h **** 			 *  \ingroup Group_EndpointPacketManagement_AVR8
 425:lib/lufa/LUFA/Drivers/USB/Core/AVR8/../AVR8/Endpoint_AVR8.h **** 			 *
 426:lib/lufa/LUFA/Drivers/USB/Core/AVR8/../AVR8/Endpoint_AVR8.h **** 			 *  \return Boolean \c true if the selected endpoint has received a SETUP packet, \c false other
 427:lib/lufa/LUFA/Drivers/USB/Core/AVR8/../AVR8/Endpoint_AVR8.h **** 			 */
 428:lib/lufa/LUFA/Drivers/USB/Core/AVR8/../AVR8/Endpoint_AVR8.h **** 			static inline bool Endpoint_IsSETUPReceived(void) ATTR_WARN_UNUSED_RESULT ATTR_ALWAYS_INLINE;
 429:lib/lufa/LUFA/Drivers/USB/Core/AVR8/../AVR8/Endpoint_AVR8.h **** 			static inline bool Endpoint_IsSETUPReceived(void)
 430:lib/lufa/LUFA/Drivers/USB/Core/AVR8/../AVR8/Endpoint_AVR8.h **** 			{
 431:lib/lufa/LUFA/Drivers/USB/Core/AVR8/../AVR8/Endpoint_AVR8.h **** 				return ((UEINTX & (1 << RXSTPI)) ? true : false);
 432:lib/lufa/LUFA/Drivers/USB/Core/AVR8/../AVR8/Endpoint_AVR8.h **** 			}
 433:lib/lufa/LUFA/Drivers/USB/Core/AVR8/../AVR8/Endpoint_AVR8.h **** 
 434:lib/lufa/LUFA/Drivers/USB/Core/AVR8/../AVR8/Endpoint_AVR8.h **** 			/** Clears a received SETUP packet on the currently selected CONTROL type endpoint, freeing up t
 435:lib/lufa/LUFA/Drivers/USB/Core/AVR8/../AVR8/Endpoint_AVR8.h **** 			 *  endpoint for the next packet.
 436:lib/lufa/LUFA/Drivers/USB/Core/AVR8/../AVR8/Endpoint_AVR8.h **** 			 *
 437:lib/lufa/LUFA/Drivers/USB/Core/AVR8/../AVR8/Endpoint_AVR8.h **** 			 *  \ingroup Group_EndpointPacketManagement_AVR8
 438:lib/lufa/LUFA/Drivers/USB/Core/AVR8/../AVR8/Endpoint_AVR8.h **** 			 *
 439:lib/lufa/LUFA/Drivers/USB/Core/AVR8/../AVR8/Endpoint_AVR8.h **** 			 *  \note This is not applicable for non CONTROL type endpoints.
 440:lib/lufa/LUFA/Drivers/USB/Core/AVR8/../AVR8/Endpoint_AVR8.h **** 			 */
 441:lib/lufa/LUFA/Drivers/USB/Core/AVR8/../AVR8/Endpoint_AVR8.h **** 			static inline void Endpoint_ClearSETUP(void) ATTR_ALWAYS_INLINE;
 442:lib/lufa/LUFA/Drivers/USB/Core/AVR8/../AVR8/Endpoint_AVR8.h **** 			static inline void Endpoint_ClearSETUP(void)
 443:lib/lufa/LUFA/Drivers/USB/Core/AVR8/../AVR8/Endpoint_AVR8.h **** 			{
 444:lib/lufa/LUFA/Drivers/USB/Core/AVR8/../AVR8/Endpoint_AVR8.h **** 				UEINTX &= ~(1 << RXSTPI);
 445:lib/lufa/LUFA/Drivers/USB/Core/AVR8/../AVR8/Endpoint_AVR8.h **** 			}
 446:lib/lufa/LUFA/Drivers/USB/Core/AVR8/../AVR8/Endpoint_AVR8.h **** 
 447:lib/lufa/LUFA/Drivers/USB/Core/AVR8/../AVR8/Endpoint_AVR8.h **** 			/** Sends an IN packet to the host on the currently selected endpoint, freeing up the endpoint f
 448:lib/lufa/LUFA/Drivers/USB/Core/AVR8/../AVR8/Endpoint_AVR8.h **** 			 *  next packet and switching to the alternative endpoint bank if double banked.
 449:lib/lufa/LUFA/Drivers/USB/Core/AVR8/../AVR8/Endpoint_AVR8.h **** 			 *
 450:lib/lufa/LUFA/Drivers/USB/Core/AVR8/../AVR8/Endpoint_AVR8.h **** 			 *  \ingroup Group_EndpointPacketManagement_AVR8
 451:lib/lufa/LUFA/Drivers/USB/Core/AVR8/../AVR8/Endpoint_AVR8.h **** 			 */
 452:lib/lufa/LUFA/Drivers/USB/Core/AVR8/../AVR8/Endpoint_AVR8.h **** 			static inline void Endpoint_ClearIN(void) ATTR_ALWAYS_INLINE;
 453:lib/lufa/LUFA/Drivers/USB/Core/AVR8/../AVR8/Endpoint_AVR8.h **** 			static inline void Endpoint_ClearIN(void)
 454:lib/lufa/LUFA/Drivers/USB/Core/AVR8/../AVR8/Endpoint_AVR8.h **** 			{
 455:lib/lufa/LUFA/Drivers/USB/Core/AVR8/../AVR8/Endpoint_AVR8.h **** 				#if !defined(CONTROL_ONLY_DEVICE)
 456:lib/lufa/LUFA/Drivers/USB/Core/AVR8/../AVR8/Endpoint_AVR8.h **** 					UEINTX &= ~((1 << TXINI) | (1 << FIFOCON));
 457:lib/lufa/LUFA/Drivers/USB/Core/AVR8/../AVR8/Endpoint_AVR8.h **** 				#else
 458:lib/lufa/LUFA/Drivers/USB/Core/AVR8/../AVR8/Endpoint_AVR8.h **** 					UEINTX &= ~(1 << TXINI);
 459:lib/lufa/LUFA/Drivers/USB/Core/AVR8/../AVR8/Endpoint_AVR8.h **** 				#endif
 460:lib/lufa/LUFA/Drivers/USB/Core/AVR8/../AVR8/Endpoint_AVR8.h **** 			}
 461:lib/lufa/LUFA/Drivers/USB/Core/AVR8/../AVR8/Endpoint_AVR8.h **** 
 462:lib/lufa/LUFA/Drivers/USB/Core/AVR8/../AVR8/Endpoint_AVR8.h **** 			/** Acknowledges an OUT packet to the host on the currently selected endpoint, freeing up the en
 463:lib/lufa/LUFA/Drivers/USB/Core/AVR8/../AVR8/Endpoint_AVR8.h **** 			 *  for the next packet and switching to the alternative endpoint bank if double banked.
 464:lib/lufa/LUFA/Drivers/USB/Core/AVR8/../AVR8/Endpoint_AVR8.h **** 			 *
 465:lib/lufa/LUFA/Drivers/USB/Core/AVR8/../AVR8/Endpoint_AVR8.h **** 			 *  \ingroup Group_EndpointPacketManagement_AVR8
 466:lib/lufa/LUFA/Drivers/USB/Core/AVR8/../AVR8/Endpoint_AVR8.h **** 			 */
 467:lib/lufa/LUFA/Drivers/USB/Core/AVR8/../AVR8/Endpoint_AVR8.h **** 			static inline void Endpoint_ClearOUT(void) ATTR_ALWAYS_INLINE;
 468:lib/lufa/LUFA/Drivers/USB/Core/AVR8/../AVR8/Endpoint_AVR8.h **** 			static inline void Endpoint_ClearOUT(void)
 469:lib/lufa/LUFA/Drivers/USB/Core/AVR8/../AVR8/Endpoint_AVR8.h **** 			{
 470:lib/lufa/LUFA/Drivers/USB/Core/AVR8/../AVR8/Endpoint_AVR8.h **** 				#if !defined(CONTROL_ONLY_DEVICE)
 471:lib/lufa/LUFA/Drivers/USB/Core/AVR8/../AVR8/Endpoint_AVR8.h **** 					UEINTX &= ~((1 << RXOUTI) | (1 << FIFOCON));
 472:lib/lufa/LUFA/Drivers/USB/Core/AVR8/../AVR8/Endpoint_AVR8.h **** 				#else
 473:lib/lufa/LUFA/Drivers/USB/Core/AVR8/../AVR8/Endpoint_AVR8.h **** 					UEINTX &= ~(1 << RXOUTI);
 474:lib/lufa/LUFA/Drivers/USB/Core/AVR8/../AVR8/Endpoint_AVR8.h **** 				#endif
 475:lib/lufa/LUFA/Drivers/USB/Core/AVR8/../AVR8/Endpoint_AVR8.h **** 			}
 476:lib/lufa/LUFA/Drivers/USB/Core/AVR8/../AVR8/Endpoint_AVR8.h **** 
 477:lib/lufa/LUFA/Drivers/USB/Core/AVR8/../AVR8/Endpoint_AVR8.h **** 			/** Stalls the current endpoint, indicating to the host that a logical problem occurred with the
 478:lib/lufa/LUFA/Drivers/USB/Core/AVR8/../AVR8/Endpoint_AVR8.h **** 			 *  indicated endpoint and that the current transfer sequence should be aborted. This provides a
 479:lib/lufa/LUFA/Drivers/USB/Core/AVR8/../AVR8/Endpoint_AVR8.h **** 			 *  way for devices to indicate invalid commands to the host so that the current transfer can be
 480:lib/lufa/LUFA/Drivers/USB/Core/AVR8/../AVR8/Endpoint_AVR8.h **** 			 *  aborted and the host can begin its own recovery sequence.
 481:lib/lufa/LUFA/Drivers/USB/Core/AVR8/../AVR8/Endpoint_AVR8.h **** 			 *
 482:lib/lufa/LUFA/Drivers/USB/Core/AVR8/../AVR8/Endpoint_AVR8.h **** 			 *  The currently selected endpoint remains stalled until either the \ref Endpoint_ClearStall() 
 483:lib/lufa/LUFA/Drivers/USB/Core/AVR8/../AVR8/Endpoint_AVR8.h **** 			 *  is called, or the host issues a CLEAR FEATURE request to the device for the currently select
 484:lib/lufa/LUFA/Drivers/USB/Core/AVR8/../AVR8/Endpoint_AVR8.h **** 			 *  endpoint.
 485:lib/lufa/LUFA/Drivers/USB/Core/AVR8/../AVR8/Endpoint_AVR8.h **** 			 *
 486:lib/lufa/LUFA/Drivers/USB/Core/AVR8/../AVR8/Endpoint_AVR8.h **** 			 *  \ingroup Group_EndpointPacketManagement_AVR8
 487:lib/lufa/LUFA/Drivers/USB/Core/AVR8/../AVR8/Endpoint_AVR8.h **** 			 */
 488:lib/lufa/LUFA/Drivers/USB/Core/AVR8/../AVR8/Endpoint_AVR8.h **** 			static inline void Endpoint_StallTransaction(void) ATTR_ALWAYS_INLINE;
 489:lib/lufa/LUFA/Drivers/USB/Core/AVR8/../AVR8/Endpoint_AVR8.h **** 			static inline void Endpoint_StallTransaction(void)
 490:lib/lufa/LUFA/Drivers/USB/Core/AVR8/../AVR8/Endpoint_AVR8.h **** 			{
 491:lib/lufa/LUFA/Drivers/USB/Core/AVR8/../AVR8/Endpoint_AVR8.h **** 				UECONX |= (1 << STALLRQ);
 492:lib/lufa/LUFA/Drivers/USB/Core/AVR8/../AVR8/Endpoint_AVR8.h **** 			}
 493:lib/lufa/LUFA/Drivers/USB/Core/AVR8/../AVR8/Endpoint_AVR8.h **** 
 494:lib/lufa/LUFA/Drivers/USB/Core/AVR8/../AVR8/Endpoint_AVR8.h **** 			/** Clears the STALL condition on the currently selected endpoint.
 495:lib/lufa/LUFA/Drivers/USB/Core/AVR8/../AVR8/Endpoint_AVR8.h **** 			 *
 496:lib/lufa/LUFA/Drivers/USB/Core/AVR8/../AVR8/Endpoint_AVR8.h **** 			 *  \ingroup Group_EndpointPacketManagement_AVR8
 497:lib/lufa/LUFA/Drivers/USB/Core/AVR8/../AVR8/Endpoint_AVR8.h **** 			 */
 498:lib/lufa/LUFA/Drivers/USB/Core/AVR8/../AVR8/Endpoint_AVR8.h **** 			static inline void Endpoint_ClearStall(void) ATTR_ALWAYS_INLINE;
 499:lib/lufa/LUFA/Drivers/USB/Core/AVR8/../AVR8/Endpoint_AVR8.h **** 			static inline void Endpoint_ClearStall(void)
 500:lib/lufa/LUFA/Drivers/USB/Core/AVR8/../AVR8/Endpoint_AVR8.h **** 			{
 501:lib/lufa/LUFA/Drivers/USB/Core/AVR8/../AVR8/Endpoint_AVR8.h **** 				UECONX |= (1 << STALLRQC);
 502:lib/lufa/LUFA/Drivers/USB/Core/AVR8/../AVR8/Endpoint_AVR8.h **** 			}
 503:lib/lufa/LUFA/Drivers/USB/Core/AVR8/../AVR8/Endpoint_AVR8.h **** 
 504:lib/lufa/LUFA/Drivers/USB/Core/AVR8/../AVR8/Endpoint_AVR8.h **** 			/** Determines if the currently selected endpoint is stalled, \c false otherwise.
 505:lib/lufa/LUFA/Drivers/USB/Core/AVR8/../AVR8/Endpoint_AVR8.h **** 			 *
 506:lib/lufa/LUFA/Drivers/USB/Core/AVR8/../AVR8/Endpoint_AVR8.h **** 			 *  \ingroup Group_EndpointPacketManagement_AVR8
 507:lib/lufa/LUFA/Drivers/USB/Core/AVR8/../AVR8/Endpoint_AVR8.h **** 			 *
 508:lib/lufa/LUFA/Drivers/USB/Core/AVR8/../AVR8/Endpoint_AVR8.h **** 			 *  \return Boolean \c true if the currently selected endpoint is stalled, \c false otherwise.
 509:lib/lufa/LUFA/Drivers/USB/Core/AVR8/../AVR8/Endpoint_AVR8.h **** 			 */
 510:lib/lufa/LUFA/Drivers/USB/Core/AVR8/../AVR8/Endpoint_AVR8.h **** 			static inline bool Endpoint_IsStalled(void) ATTR_WARN_UNUSED_RESULT ATTR_ALWAYS_INLINE;
 511:lib/lufa/LUFA/Drivers/USB/Core/AVR8/../AVR8/Endpoint_AVR8.h **** 			static inline bool Endpoint_IsStalled(void)
 512:lib/lufa/LUFA/Drivers/USB/Core/AVR8/../AVR8/Endpoint_AVR8.h **** 			{
 513:lib/lufa/LUFA/Drivers/USB/Core/AVR8/../AVR8/Endpoint_AVR8.h **** 				return ((UECONX & (1 << STALLRQ)) ? true : false);
 514:lib/lufa/LUFA/Drivers/USB/Core/AVR8/../AVR8/Endpoint_AVR8.h **** 			}
 515:lib/lufa/LUFA/Drivers/USB/Core/AVR8/../AVR8/Endpoint_AVR8.h **** 
 516:lib/lufa/LUFA/Drivers/USB/Core/AVR8/../AVR8/Endpoint_AVR8.h **** 			/** Resets the data toggle of the currently selected endpoint. */
 517:lib/lufa/LUFA/Drivers/USB/Core/AVR8/../AVR8/Endpoint_AVR8.h **** 			static inline void Endpoint_ResetDataToggle(void) ATTR_ALWAYS_INLINE;
 518:lib/lufa/LUFA/Drivers/USB/Core/AVR8/../AVR8/Endpoint_AVR8.h **** 			static inline void Endpoint_ResetDataToggle(void)
 519:lib/lufa/LUFA/Drivers/USB/Core/AVR8/../AVR8/Endpoint_AVR8.h **** 			{
 520:lib/lufa/LUFA/Drivers/USB/Core/AVR8/../AVR8/Endpoint_AVR8.h **** 				UECONX |= (1 << RSTDT);
 521:lib/lufa/LUFA/Drivers/USB/Core/AVR8/../AVR8/Endpoint_AVR8.h **** 			}
 522:lib/lufa/LUFA/Drivers/USB/Core/AVR8/../AVR8/Endpoint_AVR8.h **** 
 523:lib/lufa/LUFA/Drivers/USB/Core/AVR8/../AVR8/Endpoint_AVR8.h **** 			/** Sets the direction of the currently selected endpoint.
 524:lib/lufa/LUFA/Drivers/USB/Core/AVR8/../AVR8/Endpoint_AVR8.h **** 			 *
 525:lib/lufa/LUFA/Drivers/USB/Core/AVR8/../AVR8/Endpoint_AVR8.h **** 			 *  \param[in] DirectionMask  New endpoint direction, as a \c ENDPOINT_DIR_* mask.
 526:lib/lufa/LUFA/Drivers/USB/Core/AVR8/../AVR8/Endpoint_AVR8.h **** 			 */
 527:lib/lufa/LUFA/Drivers/USB/Core/AVR8/../AVR8/Endpoint_AVR8.h **** 			static inline void Endpoint_SetEndpointDirection(const uint8_t DirectionMask) ATTR_ALWAYS_INLINE
 528:lib/lufa/LUFA/Drivers/USB/Core/AVR8/../AVR8/Endpoint_AVR8.h **** 			static inline void Endpoint_SetEndpointDirection(const uint8_t DirectionMask)
 529:lib/lufa/LUFA/Drivers/USB/Core/AVR8/../AVR8/Endpoint_AVR8.h **** 			{
 530:lib/lufa/LUFA/Drivers/USB/Core/AVR8/../AVR8/Endpoint_AVR8.h **** 				UECFG0X = ((UECFG0X & ~(1 << EPDIR)) | (DirectionMask ? (1 << EPDIR) : 0));
 531:lib/lufa/LUFA/Drivers/USB/Core/AVR8/../AVR8/Endpoint_AVR8.h **** 			}
 532:lib/lufa/LUFA/Drivers/USB/Core/AVR8/../AVR8/Endpoint_AVR8.h **** 
 533:lib/lufa/LUFA/Drivers/USB/Core/AVR8/../AVR8/Endpoint_AVR8.h **** 			/** Reads one byte from the currently selected endpoint's bank, for OUT direction endpoints.
 534:lib/lufa/LUFA/Drivers/USB/Core/AVR8/../AVR8/Endpoint_AVR8.h **** 			 *
 535:lib/lufa/LUFA/Drivers/USB/Core/AVR8/../AVR8/Endpoint_AVR8.h **** 			 *  \ingroup Group_EndpointPrimitiveRW_AVR8
 536:lib/lufa/LUFA/Drivers/USB/Core/AVR8/../AVR8/Endpoint_AVR8.h **** 			 *
 537:lib/lufa/LUFA/Drivers/USB/Core/AVR8/../AVR8/Endpoint_AVR8.h **** 			 *  \return Next byte in the currently selected endpoint's FIFO buffer.
 538:lib/lufa/LUFA/Drivers/USB/Core/AVR8/../AVR8/Endpoint_AVR8.h **** 			 */
 539:lib/lufa/LUFA/Drivers/USB/Core/AVR8/../AVR8/Endpoint_AVR8.h **** 			static inline uint8_t Endpoint_Read_8(void) ATTR_WARN_UNUSED_RESULT ATTR_ALWAYS_INLINE;
 540:lib/lufa/LUFA/Drivers/USB/Core/AVR8/../AVR8/Endpoint_AVR8.h **** 			static inline uint8_t Endpoint_Read_8(void)
 541:lib/lufa/LUFA/Drivers/USB/Core/AVR8/../AVR8/Endpoint_AVR8.h **** 			{
 542:lib/lufa/LUFA/Drivers/USB/Core/AVR8/../AVR8/Endpoint_AVR8.h **** 				return UEDATX;
  55               		.loc 2 542 0 discriminator 3
  56 001a 8091 F100 		lds r24,241
  57               	.LBE174:
  58               	.LBE173:
  51:lib/lufa/LUFA/Drivers/USB/Core/DeviceStandardReq.c **** 	#if defined(ARCH_BIG_ENDIAN)
  52:lib/lufa/LUFA/Drivers/USB/Core/DeviceStandardReq.c **** 	USB_ControlRequest.bmRequestType = Endpoint_Read_8();
  53:lib/lufa/LUFA/Drivers/USB/Core/DeviceStandardReq.c **** 	USB_ControlRequest.bRequest      = Endpoint_Read_8();
  54:lib/lufa/LUFA/Drivers/USB/Core/DeviceStandardReq.c **** 	USB_ControlRequest.wValue        = Endpoint_Read_16_LE();
  55:lib/lufa/LUFA/Drivers/USB/Core/DeviceStandardReq.c **** 	USB_ControlRequest.wIndex        = Endpoint_Read_16_LE();
  56:lib/lufa/LUFA/Drivers/USB/Core/DeviceStandardReq.c **** 	USB_ControlRequest.wLength       = Endpoint_Read_16_LE();
  57:lib/lufa/LUFA/Drivers/USB/Core/DeviceStandardReq.c **** 	#else
  58:lib/lufa/LUFA/Drivers/USB/Core/DeviceStandardReq.c **** 	uint8_t* RequestHeader = (uint8_t*)&USB_ControlRequest;
  59:lib/lufa/LUFA/Drivers/USB/Core/DeviceStandardReq.c **** 
  60:lib/lufa/LUFA/Drivers/USB/Core/DeviceStandardReq.c **** 	for (uint8_t RequestHeaderByte = 0; RequestHeaderByte < sizeof(USB_Request_Header_t); RequestHeade
  61:lib/lufa/LUFA/Drivers/USB/Core/DeviceStandardReq.c **** 	  *(RequestHeader++) = Endpoint_Read_8();
  59               		.loc 1 61 0 discriminator 3
  60 001e 8193      		st Z+,r24
  61               	.LVL2:
  60:lib/lufa/LUFA/Drivers/USB/Core/DeviceStandardReq.c **** 	  *(RequestHeader++) = Endpoint_Read_8();
  62               		.loc 1 60 0 discriminator 3
  63 0020 20E0      		ldi r18,hi8(USB_ControlRequest+8)
  64 0022 E030      		cpi r30,lo8(USB_ControlRequest+8)
  65 0024 F207      		cpc r31,r18
  66 0026 01F4      		brne .L2
  67               	.LBE172:
  62:lib/lufa/LUFA/Drivers/USB/Core/DeviceStandardReq.c **** 	#endif
  63:lib/lufa/LUFA/Drivers/USB/Core/DeviceStandardReq.c **** 
  64:lib/lufa/LUFA/Drivers/USB/Core/DeviceStandardReq.c **** 	EVENT_USB_Device_ControlRequest();
  68               		.loc 1 64 0
  69 0028 0E94 0000 		call EVENT_USB_Device_ControlRequest
  70               	.LVL3:
  71               	.LBB175:
  72               	.LBB176:
 431:lib/lufa/LUFA/Drivers/USB/Core/AVR8/../AVR8/Endpoint_AVR8.h **** 			}
  73               		.loc 2 431 0
  74 002c 8091 E800 		lds r24,232
  75               	.LBE176:
  76               	.LBE175:
  65:lib/lufa/LUFA/Drivers/USB/Core/DeviceStandardReq.c **** 
  66:lib/lufa/LUFA/Drivers/USB/Core/DeviceStandardReq.c **** 	if (Endpoint_IsSETUPReceived())
  77               		.loc 1 66 0
  78 0030 83FF      		sbrs r24,3
  79 0032 00C0      		rjmp .L3
  80               	.LBB177:
  67:lib/lufa/LUFA/Drivers/USB/Core/DeviceStandardReq.c **** 	{
  68:lib/lufa/LUFA/Drivers/USB/Core/DeviceStandardReq.c **** 		uint8_t bmRequestType = USB_ControlRequest.bmRequestType;
  81               		.loc 1 68 0
  82 0034 8091 0000 		lds r24,USB_ControlRequest
  83               	.LVL4:
  69:lib/lufa/LUFA/Drivers/USB/Core/DeviceStandardReq.c **** 
  70:lib/lufa/LUFA/Drivers/USB/Core/DeviceStandardReq.c **** 		switch (USB_ControlRequest.bRequest)
  84               		.loc 1 70 0
  85 0038 9091 0000 		lds r25,USB_ControlRequest+1
  86 003c 492F      		mov r20,r25
  87 003e 50E0      		ldi r21,0
  88 0040 4A30      		cpi r20,10
  89 0042 5105      		cpc r21,__zero_reg__
  90 0044 00F0      		brlo .+2
  91 0046 00C0      		rjmp .L3
  92 0048 FA01      		movw r30,r20
  93 004a E050      		subi r30,lo8(-(gs(.L5)))
  94 004c F040      		sbci r31,hi8(-(gs(.L5)))
  95 004e 0C94 0000 		jmp __tablejump2__
  96               		.section	.progmem.gcc_sw_table.USB_Device_ProcessControlRequest,"a",@progbits
  97               		.p2align	1
  98               	.L5:
  99 0000 0000      		.word gs(.L4)
 100 0002 0000      		.word gs(.L6)
 101 0004 0000      		.word gs(.L3)
 102 0006 0000      		.word gs(.L6)
 103 0008 0000      		.word gs(.L3)
 104 000a 0000      		.word gs(.L7)
 105 000c 0000      		.word gs(.L8)
 106 000e 0000      		.word gs(.L3)
 107 0010 0000      		.word gs(.L9)
 108 0012 0000      		.word gs(.L10)
 109               		.section	.text.USB_Device_ProcessControlRequest
 110               	.L4:
  71:lib/lufa/LUFA/Drivers/USB/Core/DeviceStandardReq.c **** 		{
  72:lib/lufa/LUFA/Drivers/USB/Core/DeviceStandardReq.c **** 			case REQ_GetStatus:
  73:lib/lufa/LUFA/Drivers/USB/Core/DeviceStandardReq.c **** 				if ((bmRequestType == (REQDIR_DEVICETOHOST | REQTYPE_STANDARD | REQREC_DEVICE)) ||
 111               		.loc 1 73 0
 112 0052 8038      		cpi r24,lo8(-128)
 113 0054 01F0      		breq .L11
 114               		.loc 1 73 0 is_stmt 0 discriminator 1
 115 0056 8238      		cpi r24,lo8(-126)
 116 0058 01F0      		breq .+2
 117 005a 00C0      		rjmp .L3
 118 005c 00C0      		rjmp .L65
 119               	.L11:
 120               	.LVL5:
 121               	.LBB178:
 122               	.LBB179:
  74:lib/lufa/LUFA/Drivers/USB/Core/DeviceStandardReq.c **** 					(bmRequestType == (REQDIR_DEVICETOHOST | REQTYPE_STANDARD | REQREC_ENDPOINT)))
  75:lib/lufa/LUFA/Drivers/USB/Core/DeviceStandardReq.c **** 				{
  76:lib/lufa/LUFA/Drivers/USB/Core/DeviceStandardReq.c **** 					USB_Device_GetStatus();
  77:lib/lufa/LUFA/Drivers/USB/Core/DeviceStandardReq.c **** 				}
  78:lib/lufa/LUFA/Drivers/USB/Core/DeviceStandardReq.c **** 
  79:lib/lufa/LUFA/Drivers/USB/Core/DeviceStandardReq.c **** 				break;
  80:lib/lufa/LUFA/Drivers/USB/Core/DeviceStandardReq.c **** 			case REQ_ClearFeature:
  81:lib/lufa/LUFA/Drivers/USB/Core/DeviceStandardReq.c **** 			case REQ_SetFeature:
  82:lib/lufa/LUFA/Drivers/USB/Core/DeviceStandardReq.c **** 				if ((bmRequestType == (REQDIR_HOSTTODEVICE | REQTYPE_STANDARD | REQREC_DEVICE)) ||
  83:lib/lufa/LUFA/Drivers/USB/Core/DeviceStandardReq.c **** 					(bmRequestType == (REQDIR_HOSTTODEVICE | REQTYPE_STANDARD | REQREC_ENDPOINT)))
  84:lib/lufa/LUFA/Drivers/USB/Core/DeviceStandardReq.c **** 				{
  85:lib/lufa/LUFA/Drivers/USB/Core/DeviceStandardReq.c **** 					USB_Device_ClearSetFeature();
  86:lib/lufa/LUFA/Drivers/USB/Core/DeviceStandardReq.c **** 				}
  87:lib/lufa/LUFA/Drivers/USB/Core/DeviceStandardReq.c **** 
  88:lib/lufa/LUFA/Drivers/USB/Core/DeviceStandardReq.c **** 				break;
  89:lib/lufa/LUFA/Drivers/USB/Core/DeviceStandardReq.c **** 			case REQ_SetAddress:
  90:lib/lufa/LUFA/Drivers/USB/Core/DeviceStandardReq.c **** 				if (bmRequestType == (REQDIR_HOSTTODEVICE | REQTYPE_STANDARD | REQREC_DEVICE))
  91:lib/lufa/LUFA/Drivers/USB/Core/DeviceStandardReq.c **** 				  USB_Device_SetAddress();
  92:lib/lufa/LUFA/Drivers/USB/Core/DeviceStandardReq.c **** 
  93:lib/lufa/LUFA/Drivers/USB/Core/DeviceStandardReq.c **** 				break;
  94:lib/lufa/LUFA/Drivers/USB/Core/DeviceStandardReq.c **** 			case REQ_GetDescriptor:
  95:lib/lufa/LUFA/Drivers/USB/Core/DeviceStandardReq.c **** 				if ((bmRequestType == (REQDIR_DEVICETOHOST | REQTYPE_STANDARD | REQREC_DEVICE)) ||
  96:lib/lufa/LUFA/Drivers/USB/Core/DeviceStandardReq.c **** 					(bmRequestType == (REQDIR_DEVICETOHOST | REQTYPE_STANDARD | REQREC_INTERFACE)))
  97:lib/lufa/LUFA/Drivers/USB/Core/DeviceStandardReq.c **** 				{
  98:lib/lufa/LUFA/Drivers/USB/Core/DeviceStandardReq.c **** 					USB_Device_GetDescriptor();
  99:lib/lufa/LUFA/Drivers/USB/Core/DeviceStandardReq.c **** 				}
 100:lib/lufa/LUFA/Drivers/USB/Core/DeviceStandardReq.c **** 
 101:lib/lufa/LUFA/Drivers/USB/Core/DeviceStandardReq.c **** 				break;
 102:lib/lufa/LUFA/Drivers/USB/Core/DeviceStandardReq.c **** 			case REQ_GetConfiguration:
 103:lib/lufa/LUFA/Drivers/USB/Core/DeviceStandardReq.c **** 				if (bmRequestType == (REQDIR_DEVICETOHOST | REQTYPE_STANDARD | REQREC_DEVICE))
 104:lib/lufa/LUFA/Drivers/USB/Core/DeviceStandardReq.c **** 				  USB_Device_GetConfiguration();
 105:lib/lufa/LUFA/Drivers/USB/Core/DeviceStandardReq.c **** 
 106:lib/lufa/LUFA/Drivers/USB/Core/DeviceStandardReq.c **** 				break;
 107:lib/lufa/LUFA/Drivers/USB/Core/DeviceStandardReq.c **** 			case REQ_SetConfiguration:
 108:lib/lufa/LUFA/Drivers/USB/Core/DeviceStandardReq.c **** 				if (bmRequestType == (REQDIR_HOSTTODEVICE | REQTYPE_STANDARD | REQREC_DEVICE))
 109:lib/lufa/LUFA/Drivers/USB/Core/DeviceStandardReq.c **** 				  USB_Device_SetConfiguration();
 110:lib/lufa/LUFA/Drivers/USB/Core/DeviceStandardReq.c **** 
 111:lib/lufa/LUFA/Drivers/USB/Core/DeviceStandardReq.c **** 				break;
 112:lib/lufa/LUFA/Drivers/USB/Core/DeviceStandardReq.c **** 
 113:lib/lufa/LUFA/Drivers/USB/Core/DeviceStandardReq.c **** 			default:
 114:lib/lufa/LUFA/Drivers/USB/Core/DeviceStandardReq.c **** 				break;
 115:lib/lufa/LUFA/Drivers/USB/Core/DeviceStandardReq.c **** 		}
 116:lib/lufa/LUFA/Drivers/USB/Core/DeviceStandardReq.c **** 	}
 117:lib/lufa/LUFA/Drivers/USB/Core/DeviceStandardReq.c **** 
 118:lib/lufa/LUFA/Drivers/USB/Core/DeviceStandardReq.c **** 	if (Endpoint_IsSETUPReceived())
 119:lib/lufa/LUFA/Drivers/USB/Core/DeviceStandardReq.c **** 	{
 120:lib/lufa/LUFA/Drivers/USB/Core/DeviceStandardReq.c **** 		Endpoint_ClearSETUP();
 121:lib/lufa/LUFA/Drivers/USB/Core/DeviceStandardReq.c **** 		Endpoint_StallTransaction();
 122:lib/lufa/LUFA/Drivers/USB/Core/DeviceStandardReq.c **** 	}
 123:lib/lufa/LUFA/Drivers/USB/Core/DeviceStandardReq.c **** }
 124:lib/lufa/LUFA/Drivers/USB/Core/DeviceStandardReq.c **** 
 125:lib/lufa/LUFA/Drivers/USB/Core/DeviceStandardReq.c **** static void USB_Device_SetAddress(void)
 126:lib/lufa/LUFA/Drivers/USB/Core/DeviceStandardReq.c **** {
 127:lib/lufa/LUFA/Drivers/USB/Core/DeviceStandardReq.c **** 	uint8_t DeviceAddress = (USB_ControlRequest.wValue & 0x7F);
 128:lib/lufa/LUFA/Drivers/USB/Core/DeviceStandardReq.c **** 
 129:lib/lufa/LUFA/Drivers/USB/Core/DeviceStandardReq.c **** 	USB_Device_SetDeviceAddress(DeviceAddress);
 130:lib/lufa/LUFA/Drivers/USB/Core/DeviceStandardReq.c **** 
 131:lib/lufa/LUFA/Drivers/USB/Core/DeviceStandardReq.c **** 	Endpoint_ClearSETUP();
 132:lib/lufa/LUFA/Drivers/USB/Core/DeviceStandardReq.c **** 
 133:lib/lufa/LUFA/Drivers/USB/Core/DeviceStandardReq.c **** 	Endpoint_ClearStatusStage();
 134:lib/lufa/LUFA/Drivers/USB/Core/DeviceStandardReq.c **** 
 135:lib/lufa/LUFA/Drivers/USB/Core/DeviceStandardReq.c **** 	while (!(Endpoint_IsINReady()));
 136:lib/lufa/LUFA/Drivers/USB/Core/DeviceStandardReq.c **** 
 137:lib/lufa/LUFA/Drivers/USB/Core/DeviceStandardReq.c **** 	USB_Device_EnableDeviceAddress(DeviceAddress);
 138:lib/lufa/LUFA/Drivers/USB/Core/DeviceStandardReq.c **** 
 139:lib/lufa/LUFA/Drivers/USB/Core/DeviceStandardReq.c **** 	USB_DeviceState = (DeviceAddress) ? DEVICE_STATE_Addressed : DEVICE_STATE_Default;
 140:lib/lufa/LUFA/Drivers/USB/Core/DeviceStandardReq.c **** }
 141:lib/lufa/LUFA/Drivers/USB/Core/DeviceStandardReq.c **** 
 142:lib/lufa/LUFA/Drivers/USB/Core/DeviceStandardReq.c **** static void USB_Device_SetConfiguration(void)
 143:lib/lufa/LUFA/Drivers/USB/Core/DeviceStandardReq.c **** {
 144:lib/lufa/LUFA/Drivers/USB/Core/DeviceStandardReq.c **** 	#if defined(FIXED_NUM_CONFIGURATIONS)
 145:lib/lufa/LUFA/Drivers/USB/Core/DeviceStandardReq.c **** 	if ((uint8_t)USB_ControlRequest.wValue > FIXED_NUM_CONFIGURATIONS)
 146:lib/lufa/LUFA/Drivers/USB/Core/DeviceStandardReq.c **** 	  return;
 147:lib/lufa/LUFA/Drivers/USB/Core/DeviceStandardReq.c **** 	#else
 148:lib/lufa/LUFA/Drivers/USB/Core/DeviceStandardReq.c **** 	USB_Descriptor_Device_t* DevDescriptorPtr;
 149:lib/lufa/LUFA/Drivers/USB/Core/DeviceStandardReq.c **** 
 150:lib/lufa/LUFA/Drivers/USB/Core/DeviceStandardReq.c **** 	#if defined(ARCH_HAS_MULTI_ADDRESS_SPACE)
 151:lib/lufa/LUFA/Drivers/USB/Core/DeviceStandardReq.c **** 		#if defined(USE_FLASH_DESCRIPTORS)
 152:lib/lufa/LUFA/Drivers/USB/Core/DeviceStandardReq.c **** 			#define MemoryAddressSpace  MEMSPACE_FLASH
 153:lib/lufa/LUFA/Drivers/USB/Core/DeviceStandardReq.c **** 		#elif defined(USE_EEPROM_DESCRIPTORS)
 154:lib/lufa/LUFA/Drivers/USB/Core/DeviceStandardReq.c **** 			#define MemoryAddressSpace  MEMSPACE_EEPROM
 155:lib/lufa/LUFA/Drivers/USB/Core/DeviceStandardReq.c **** 		#elif defined(USE_RAM_DESCRIPTORS)
 156:lib/lufa/LUFA/Drivers/USB/Core/DeviceStandardReq.c **** 			#define MemoryAddressSpace  MEMSPACE_RAM
 157:lib/lufa/LUFA/Drivers/USB/Core/DeviceStandardReq.c **** 		#else
 158:lib/lufa/LUFA/Drivers/USB/Core/DeviceStandardReq.c **** 			uint8_t MemoryAddressSpace;
 159:lib/lufa/LUFA/Drivers/USB/Core/DeviceStandardReq.c **** 		#endif
 160:lib/lufa/LUFA/Drivers/USB/Core/DeviceStandardReq.c **** 	#endif
 161:lib/lufa/LUFA/Drivers/USB/Core/DeviceStandardReq.c **** 
 162:lib/lufa/LUFA/Drivers/USB/Core/DeviceStandardReq.c **** 	if (CALLBACK_USB_GetDescriptor((DTYPE_Device << 8), 0, (void*)&DevDescriptorPtr
 163:lib/lufa/LUFA/Drivers/USB/Core/DeviceStandardReq.c **** 	#if defined(ARCH_HAS_MULTI_ADDRESS_SPACE) && \
 164:lib/lufa/LUFA/Drivers/USB/Core/DeviceStandardReq.c **** 	    !(defined(USE_FLASH_DESCRIPTORS) || defined(USE_EEPROM_DESCRIPTORS) || defined(USE_RAM_DESCRIP
 165:lib/lufa/LUFA/Drivers/USB/Core/DeviceStandardReq.c **** 	                               , &MemoryAddressSpace
 166:lib/lufa/LUFA/Drivers/USB/Core/DeviceStandardReq.c **** 	#endif
 167:lib/lufa/LUFA/Drivers/USB/Core/DeviceStandardReq.c **** 	                               ) == NO_DESCRIPTOR)
 168:lib/lufa/LUFA/Drivers/USB/Core/DeviceStandardReq.c **** 	{
 169:lib/lufa/LUFA/Drivers/USB/Core/DeviceStandardReq.c **** 		return;
 170:lib/lufa/LUFA/Drivers/USB/Core/DeviceStandardReq.c **** 	}
 171:lib/lufa/LUFA/Drivers/USB/Core/DeviceStandardReq.c **** 
 172:lib/lufa/LUFA/Drivers/USB/Core/DeviceStandardReq.c **** 	#if defined(ARCH_HAS_MULTI_ADDRESS_SPACE)
 173:lib/lufa/LUFA/Drivers/USB/Core/DeviceStandardReq.c **** 	if (MemoryAddressSpace == MEMSPACE_FLASH)
 174:lib/lufa/LUFA/Drivers/USB/Core/DeviceStandardReq.c **** 	{
 175:lib/lufa/LUFA/Drivers/USB/Core/DeviceStandardReq.c **** 		if (((uint8_t)USB_ControlRequest.wValue > pgm_read_byte(&DevDescriptorPtr->NumberOfConfigurations
 176:lib/lufa/LUFA/Drivers/USB/Core/DeviceStandardReq.c **** 		  return;
 177:lib/lufa/LUFA/Drivers/USB/Core/DeviceStandardReq.c **** 	}
 178:lib/lufa/LUFA/Drivers/USB/Core/DeviceStandardReq.c **** 	else if (MemoryAddressSpace == MEMSPACE_EEPROM)
 179:lib/lufa/LUFA/Drivers/USB/Core/DeviceStandardReq.c **** 	{
 180:lib/lufa/LUFA/Drivers/USB/Core/DeviceStandardReq.c **** 		if (((uint8_t)USB_ControlRequest.wValue > eeprom_read_byte(&DevDescriptorPtr->NumberOfConfigurati
 181:lib/lufa/LUFA/Drivers/USB/Core/DeviceStandardReq.c **** 		  return;
 182:lib/lufa/LUFA/Drivers/USB/Core/DeviceStandardReq.c **** 	}
 183:lib/lufa/LUFA/Drivers/USB/Core/DeviceStandardReq.c **** 	else
 184:lib/lufa/LUFA/Drivers/USB/Core/DeviceStandardReq.c **** 	{
 185:lib/lufa/LUFA/Drivers/USB/Core/DeviceStandardReq.c **** 		if ((uint8_t)USB_ControlRequest.wValue > DevDescriptorPtr->NumberOfConfigurations)
 186:lib/lufa/LUFA/Drivers/USB/Core/DeviceStandardReq.c **** 		  return;
 187:lib/lufa/LUFA/Drivers/USB/Core/DeviceStandardReq.c **** 	}
 188:lib/lufa/LUFA/Drivers/USB/Core/DeviceStandardReq.c **** 	#else
 189:lib/lufa/LUFA/Drivers/USB/Core/DeviceStandardReq.c **** 	if ((uint8_t)USB_ControlRequest.wValue > DevDescriptorPtr->NumberOfConfigurations)
 190:lib/lufa/LUFA/Drivers/USB/Core/DeviceStandardReq.c **** 	  return;
 191:lib/lufa/LUFA/Drivers/USB/Core/DeviceStandardReq.c **** 	#endif
 192:lib/lufa/LUFA/Drivers/USB/Core/DeviceStandardReq.c **** 	#endif
 193:lib/lufa/LUFA/Drivers/USB/Core/DeviceStandardReq.c **** 
 194:lib/lufa/LUFA/Drivers/USB/Core/DeviceStandardReq.c **** 	Endpoint_ClearSETUP();
 195:lib/lufa/LUFA/Drivers/USB/Core/DeviceStandardReq.c **** 
 196:lib/lufa/LUFA/Drivers/USB/Core/DeviceStandardReq.c **** 	USB_Device_ConfigurationNumber = (uint8_t)USB_ControlRequest.wValue;
 197:lib/lufa/LUFA/Drivers/USB/Core/DeviceStandardReq.c **** 
 198:lib/lufa/LUFA/Drivers/USB/Core/DeviceStandardReq.c **** 	Endpoint_ClearStatusStage();
 199:lib/lufa/LUFA/Drivers/USB/Core/DeviceStandardReq.c **** 
 200:lib/lufa/LUFA/Drivers/USB/Core/DeviceStandardReq.c **** 	if (USB_Device_ConfigurationNumber)
 201:lib/lufa/LUFA/Drivers/USB/Core/DeviceStandardReq.c **** 	  USB_DeviceState = DEVICE_STATE_Configured;
 202:lib/lufa/LUFA/Drivers/USB/Core/DeviceStandardReq.c **** 	else
 203:lib/lufa/LUFA/Drivers/USB/Core/DeviceStandardReq.c **** 	  USB_DeviceState = (USB_Device_IsAddressSet()) ? DEVICE_STATE_Configured : DEVICE_STATE_Powered;
 204:lib/lufa/LUFA/Drivers/USB/Core/DeviceStandardReq.c **** 
 205:lib/lufa/LUFA/Drivers/USB/Core/DeviceStandardReq.c **** 	EVENT_USB_Device_ConfigurationChanged();
 206:lib/lufa/LUFA/Drivers/USB/Core/DeviceStandardReq.c **** }
 207:lib/lufa/LUFA/Drivers/USB/Core/DeviceStandardReq.c **** 
 208:lib/lufa/LUFA/Drivers/USB/Core/DeviceStandardReq.c **** static void USB_Device_GetConfiguration(void)
 209:lib/lufa/LUFA/Drivers/USB/Core/DeviceStandardReq.c **** {
 210:lib/lufa/LUFA/Drivers/USB/Core/DeviceStandardReq.c **** 	Endpoint_ClearSETUP();
 211:lib/lufa/LUFA/Drivers/USB/Core/DeviceStandardReq.c **** 
 212:lib/lufa/LUFA/Drivers/USB/Core/DeviceStandardReq.c **** 	Endpoint_Write_8(USB_Device_ConfigurationNumber);
 213:lib/lufa/LUFA/Drivers/USB/Core/DeviceStandardReq.c **** 	Endpoint_ClearIN();
 214:lib/lufa/LUFA/Drivers/USB/Core/DeviceStandardReq.c **** 
 215:lib/lufa/LUFA/Drivers/USB/Core/DeviceStandardReq.c **** 	Endpoint_ClearStatusStage();
 216:lib/lufa/LUFA/Drivers/USB/Core/DeviceStandardReq.c **** }
 217:lib/lufa/LUFA/Drivers/USB/Core/DeviceStandardReq.c **** 
 218:lib/lufa/LUFA/Drivers/USB/Core/DeviceStandardReq.c **** #if !defined(NO_INTERNAL_SERIAL) && (USE_INTERNAL_SERIAL != NO_DESCRIPTOR)
 219:lib/lufa/LUFA/Drivers/USB/Core/DeviceStandardReq.c **** static void USB_Device_GetInternalSerialDescriptor(void)
 220:lib/lufa/LUFA/Drivers/USB/Core/DeviceStandardReq.c **** {
 221:lib/lufa/LUFA/Drivers/USB/Core/DeviceStandardReq.c **** 	struct
 222:lib/lufa/LUFA/Drivers/USB/Core/DeviceStandardReq.c **** 	{
 223:lib/lufa/LUFA/Drivers/USB/Core/DeviceStandardReq.c **** 		USB_Descriptor_Header_t Header;
 224:lib/lufa/LUFA/Drivers/USB/Core/DeviceStandardReq.c **** 		uint16_t                UnicodeString[INTERNAL_SERIAL_LENGTH_BITS / 4];
 225:lib/lufa/LUFA/Drivers/USB/Core/DeviceStandardReq.c **** 	} SignatureDescriptor;
 226:lib/lufa/LUFA/Drivers/USB/Core/DeviceStandardReq.c **** 
 227:lib/lufa/LUFA/Drivers/USB/Core/DeviceStandardReq.c **** 	SignatureDescriptor.Header.Type = DTYPE_String;
 228:lib/lufa/LUFA/Drivers/USB/Core/DeviceStandardReq.c **** 	SignatureDescriptor.Header.Size = USB_STRING_LEN(INTERNAL_SERIAL_LENGTH_BITS / 4);
 229:lib/lufa/LUFA/Drivers/USB/Core/DeviceStandardReq.c **** 
 230:lib/lufa/LUFA/Drivers/USB/Core/DeviceStandardReq.c **** 	USB_Device_GetSerialString(SignatureDescriptor.UnicodeString);
 231:lib/lufa/LUFA/Drivers/USB/Core/DeviceStandardReq.c **** 
 232:lib/lufa/LUFA/Drivers/USB/Core/DeviceStandardReq.c **** 	Endpoint_ClearSETUP();
 233:lib/lufa/LUFA/Drivers/USB/Core/DeviceStandardReq.c **** 
 234:lib/lufa/LUFA/Drivers/USB/Core/DeviceStandardReq.c **** 	Endpoint_Write_Control_Stream_LE(&SignatureDescriptor, sizeof(SignatureDescriptor));
 235:lib/lufa/LUFA/Drivers/USB/Core/DeviceStandardReq.c **** 	Endpoint_ClearOUT();
 236:lib/lufa/LUFA/Drivers/USB/Core/DeviceStandardReq.c **** }
 237:lib/lufa/LUFA/Drivers/USB/Core/DeviceStandardReq.c **** #endif
 238:lib/lufa/LUFA/Drivers/USB/Core/DeviceStandardReq.c **** 
 239:lib/lufa/LUFA/Drivers/USB/Core/DeviceStandardReq.c **** static void USB_Device_GetDescriptor(void)
 240:lib/lufa/LUFA/Drivers/USB/Core/DeviceStandardReq.c **** {
 241:lib/lufa/LUFA/Drivers/USB/Core/DeviceStandardReq.c **** 	const void* DescriptorPointer;
 242:lib/lufa/LUFA/Drivers/USB/Core/DeviceStandardReq.c **** 	uint16_t    DescriptorSize;
 243:lib/lufa/LUFA/Drivers/USB/Core/DeviceStandardReq.c **** 
 244:lib/lufa/LUFA/Drivers/USB/Core/DeviceStandardReq.c **** 	#if defined(ARCH_HAS_MULTI_ADDRESS_SPACE) && \
 245:lib/lufa/LUFA/Drivers/USB/Core/DeviceStandardReq.c **** 	    !(defined(USE_FLASH_DESCRIPTORS) || defined(USE_EEPROM_DESCRIPTORS) || defined(USE_RAM_DESCRIP
 246:lib/lufa/LUFA/Drivers/USB/Core/DeviceStandardReq.c **** 	uint8_t DescriptorAddressSpace;
 247:lib/lufa/LUFA/Drivers/USB/Core/DeviceStandardReq.c **** 	#endif
 248:lib/lufa/LUFA/Drivers/USB/Core/DeviceStandardReq.c **** 
 249:lib/lufa/LUFA/Drivers/USB/Core/DeviceStandardReq.c **** 	#if !defined(NO_INTERNAL_SERIAL) && (USE_INTERNAL_SERIAL != NO_DESCRIPTOR)
 250:lib/lufa/LUFA/Drivers/USB/Core/DeviceStandardReq.c **** 	if (USB_ControlRequest.wValue == ((DTYPE_String << 8) | USE_INTERNAL_SERIAL))
 251:lib/lufa/LUFA/Drivers/USB/Core/DeviceStandardReq.c **** 	{
 252:lib/lufa/LUFA/Drivers/USB/Core/DeviceStandardReq.c **** 		USB_Device_GetInternalSerialDescriptor();
 253:lib/lufa/LUFA/Drivers/USB/Core/DeviceStandardReq.c **** 		return;
 254:lib/lufa/LUFA/Drivers/USB/Core/DeviceStandardReq.c **** 	}
 255:lib/lufa/LUFA/Drivers/USB/Core/DeviceStandardReq.c **** 	#endif
 256:lib/lufa/LUFA/Drivers/USB/Core/DeviceStandardReq.c **** 
 257:lib/lufa/LUFA/Drivers/USB/Core/DeviceStandardReq.c **** 	if ((DescriptorSize = CALLBACK_USB_GetDescriptor(USB_ControlRequest.wValue, USB_ControlRequest.wIn
 258:lib/lufa/LUFA/Drivers/USB/Core/DeviceStandardReq.c **** 	                                                 &DescriptorPointer
 259:lib/lufa/LUFA/Drivers/USB/Core/DeviceStandardReq.c **** 	#if defined(ARCH_HAS_MULTI_ADDRESS_SPACE) && \
 260:lib/lufa/LUFA/Drivers/USB/Core/DeviceStandardReq.c **** 	    !(defined(USE_FLASH_DESCRIPTORS) || defined(USE_EEPROM_DESCRIPTORS) || defined(USE_RAM_DESCRIP
 261:lib/lufa/LUFA/Drivers/USB/Core/DeviceStandardReq.c **** 	                                                 , &DescriptorAddressSpace
 262:lib/lufa/LUFA/Drivers/USB/Core/DeviceStandardReq.c **** 	#endif
 263:lib/lufa/LUFA/Drivers/USB/Core/DeviceStandardReq.c **** 													 )) == NO_DESCRIPTOR)
 264:lib/lufa/LUFA/Drivers/USB/Core/DeviceStandardReq.c **** 	{
 265:lib/lufa/LUFA/Drivers/USB/Core/DeviceStandardReq.c **** 		return;
 266:lib/lufa/LUFA/Drivers/USB/Core/DeviceStandardReq.c **** 	}
 267:lib/lufa/LUFA/Drivers/USB/Core/DeviceStandardReq.c **** 
 268:lib/lufa/LUFA/Drivers/USB/Core/DeviceStandardReq.c **** 	Endpoint_ClearSETUP();
 269:lib/lufa/LUFA/Drivers/USB/Core/DeviceStandardReq.c **** 
 270:lib/lufa/LUFA/Drivers/USB/Core/DeviceStandardReq.c **** 	#if defined(USE_RAM_DESCRIPTORS) || !defined(ARCH_HAS_MULTI_ADDRESS_SPACE)
 271:lib/lufa/LUFA/Drivers/USB/Core/DeviceStandardReq.c **** 	Endpoint_Write_Control_Stream_LE(DescriptorPointer, DescriptorSize);
 272:lib/lufa/LUFA/Drivers/USB/Core/DeviceStandardReq.c **** 	#elif defined(USE_EEPROM_DESCRIPTORS)
 273:lib/lufa/LUFA/Drivers/USB/Core/DeviceStandardReq.c **** 	Endpoint_Write_Control_EStream_LE(DescriptorPointer, DescriptorSize);
 274:lib/lufa/LUFA/Drivers/USB/Core/DeviceStandardReq.c **** 	#elif defined(USE_FLASH_DESCRIPTORS)
 275:lib/lufa/LUFA/Drivers/USB/Core/DeviceStandardReq.c **** 	Endpoint_Write_Control_PStream_LE(DescriptorPointer, DescriptorSize);
 276:lib/lufa/LUFA/Drivers/USB/Core/DeviceStandardReq.c **** 	#else
 277:lib/lufa/LUFA/Drivers/USB/Core/DeviceStandardReq.c **** 	if (DescriptorAddressSpace == MEMSPACE_FLASH)
 278:lib/lufa/LUFA/Drivers/USB/Core/DeviceStandardReq.c **** 	  Endpoint_Write_Control_PStream_LE(DescriptorPointer, DescriptorSize);
 279:lib/lufa/LUFA/Drivers/USB/Core/DeviceStandardReq.c **** 	else if (DescriptorAddressSpace == MEMSPACE_EEPROM)
 280:lib/lufa/LUFA/Drivers/USB/Core/DeviceStandardReq.c **** 	  Endpoint_Write_Control_EStream_LE(DescriptorPointer, DescriptorSize);
 281:lib/lufa/LUFA/Drivers/USB/Core/DeviceStandardReq.c **** 	else
 282:lib/lufa/LUFA/Drivers/USB/Core/DeviceStandardReq.c **** 	  Endpoint_Write_Control_Stream_LE(DescriptorPointer, DescriptorSize);
 283:lib/lufa/LUFA/Drivers/USB/Core/DeviceStandardReq.c **** 	#endif
 284:lib/lufa/LUFA/Drivers/USB/Core/DeviceStandardReq.c **** 
 285:lib/lufa/LUFA/Drivers/USB/Core/DeviceStandardReq.c **** 	Endpoint_ClearOUT();
 286:lib/lufa/LUFA/Drivers/USB/Core/DeviceStandardReq.c **** }
 287:lib/lufa/LUFA/Drivers/USB/Core/DeviceStandardReq.c **** 
 288:lib/lufa/LUFA/Drivers/USB/Core/DeviceStandardReq.c **** static void USB_Device_GetStatus(void)
 289:lib/lufa/LUFA/Drivers/USB/Core/DeviceStandardReq.c **** {
 290:lib/lufa/LUFA/Drivers/USB/Core/DeviceStandardReq.c **** 	uint8_t CurrentStatus = 0;
 123               		.loc 1 290 0 is_stmt 1
 124 005e 8091 0000 		lds r24,USB_Device_CurrentlySelfPowered
 125               	.LVL6:
 291:lib/lufa/LUFA/Drivers/USB/Core/DeviceStandardReq.c **** 
 292:lib/lufa/LUFA/Drivers/USB/Core/DeviceStandardReq.c **** 	switch (USB_ControlRequest.bmRequestType)
 293:lib/lufa/LUFA/Drivers/USB/Core/DeviceStandardReq.c **** 	{
 294:lib/lufa/LUFA/Drivers/USB/Core/DeviceStandardReq.c **** 		case (REQDIR_DEVICETOHOST | REQTYPE_STANDARD | REQREC_DEVICE):
 295:lib/lufa/LUFA/Drivers/USB/Core/DeviceStandardReq.c **** 		{
 296:lib/lufa/LUFA/Drivers/USB/Core/DeviceStandardReq.c **** 			#if !defined(NO_DEVICE_SELF_POWER)
 297:lib/lufa/LUFA/Drivers/USB/Core/DeviceStandardReq.c **** 			if (USB_Device_CurrentlySelfPowered)
 298:lib/lufa/LUFA/Drivers/USB/Core/DeviceStandardReq.c **** 			  CurrentStatus |= FEATURE_SELFPOWERED_ENABLED;
 299:lib/lufa/LUFA/Drivers/USB/Core/DeviceStandardReq.c **** 			#endif
 300:lib/lufa/LUFA/Drivers/USB/Core/DeviceStandardReq.c **** 
 301:lib/lufa/LUFA/Drivers/USB/Core/DeviceStandardReq.c **** 			#if !defined(NO_DEVICE_REMOTE_WAKEUP)
 302:lib/lufa/LUFA/Drivers/USB/Core/DeviceStandardReq.c **** 			if (USB_Device_RemoteWakeupEnabled)
 126               		.loc 1 302 0
 127 0062 9091 0000 		lds r25,USB_Device_RemoteWakeupEnabled
 128 0066 9923      		tst r25
 129 0068 01F0      		breq .L13
 303:lib/lufa/LUFA/Drivers/USB/Core/DeviceStandardReq.c **** 			  CurrentStatus |= FEATURE_REMOTE_WAKEUP_ENABLED;
 130               		.loc 1 303 0
 131 006a 8260      		ori r24,lo8(2)
 132               	.LVL7:
 133 006c 00C0      		rjmp .L13
 134               	.LVL8:
 135               	.L65:
 136               	.LBB180:
 304:lib/lufa/LUFA/Drivers/USB/Core/DeviceStandardReq.c **** 			#endif
 305:lib/lufa/LUFA/Drivers/USB/Core/DeviceStandardReq.c **** 			break;
 306:lib/lufa/LUFA/Drivers/USB/Core/DeviceStandardReq.c **** 		}
 307:lib/lufa/LUFA/Drivers/USB/Core/DeviceStandardReq.c **** 		case (REQDIR_DEVICETOHOST | REQTYPE_STANDARD | REQREC_ENDPOINT):
 308:lib/lufa/LUFA/Drivers/USB/Core/DeviceStandardReq.c **** 		{
 309:lib/lufa/LUFA/Drivers/USB/Core/DeviceStandardReq.c **** 			#if !defined(CONTROL_ONLY_DEVICE)
 310:lib/lufa/LUFA/Drivers/USB/Core/DeviceStandardReq.c **** 			uint8_t EndpointIndex = ((uint8_t)USB_ControlRequest.wIndex & ENDPOINT_EPNUM_MASK);
 137               		.loc 1 310 0
 138 006e 8091 0000 		lds r24,USB_ControlRequest+4
 139               	.LVL9:
 140 0072 8F70      		andi r24,lo8(15)
 141               	.LVL10:
 311:lib/lufa/LUFA/Drivers/USB/Core/DeviceStandardReq.c **** 
 312:lib/lufa/LUFA/Drivers/USB/Core/DeviceStandardReq.c **** 			if (EndpointIndex >= ENDPOINT_TOTAL_ENDPOINTS)
 142               		.loc 1 312 0
 143 0074 8730      		cpi r24,lo8(7)
 144 0076 00F0      		brlo .+2
 145 0078 00C0      		rjmp .L3
 146               	.LVL11:
 147               	.LBB181:
 148               	.LBB182:
 270:lib/lufa/LUFA/Drivers/USB/Core/AVR8/../AVR8/Endpoint_AVR8.h **** 				#endif
 149               		.loc 2 270 0
 150 007a 8093 E900 		sts 233,r24
 151               	.LVL12:
 152               	.LBE182:
 153               	.LBE181:
 154               	.LBB183:
 155               	.LBB184:
 513:lib/lufa/LUFA/Drivers/USB/Core/AVR8/../AVR8/Endpoint_AVR8.h **** 			}
 156               		.loc 2 513 0
 157 007e 8091 EB00 		lds r24,235
 158               	.LVL13:
 159               	.LBE184:
 160               	.LBE183:
 313:lib/lufa/LUFA/Drivers/USB/Core/DeviceStandardReq.c **** 				return;
 314:lib/lufa/LUFA/Drivers/USB/Core/DeviceStandardReq.c **** 
 315:lib/lufa/LUFA/Drivers/USB/Core/DeviceStandardReq.c **** 			Endpoint_SelectEndpoint(EndpointIndex);
 316:lib/lufa/LUFA/Drivers/USB/Core/DeviceStandardReq.c **** 
 317:lib/lufa/LUFA/Drivers/USB/Core/DeviceStandardReq.c **** 			CurrentStatus = Endpoint_IsStalled();
 161               		.loc 1 317 0
 162 0082 85FB      		bst r24,5
 163 0084 8827      		clr r24
 164 0086 80F9      		bld r24,0
 165               	.LVL14:
 166               	.LBB185:
 167               	.LBB186:
 270:lib/lufa/LUFA/Drivers/USB/Core/AVR8/../AVR8/Endpoint_AVR8.h **** 				#endif
 168               		.loc 2 270 0
 169 0088 1092 E900 		sts 233,__zero_reg__
 170               	.LVL15:
 171               	.L13:
 172               	.LBE186:
 173               	.LBE185:
 174               	.LBE180:
 175               	.LBB187:
 176               	.LBB188:
 444:lib/lufa/LUFA/Drivers/USB/Core/AVR8/../AVR8/Endpoint_AVR8.h **** 			}
 177               		.loc 2 444 0
 178 008c 9091 E800 		lds r25,232
 179 0090 977F      		andi r25,lo8(-9)
 180 0092 9093 E800 		sts 232,r25
 181               	.LVL16:
 182               	.LBE188:
 183               	.LBE187:
 184               	.LBB189:
 185               	.LBB190:
 543:lib/lufa/LUFA/Drivers/USB/Core/AVR8/../AVR8/Endpoint_AVR8.h **** 			}
 544:lib/lufa/LUFA/Drivers/USB/Core/AVR8/../AVR8/Endpoint_AVR8.h **** 
 545:lib/lufa/LUFA/Drivers/USB/Core/AVR8/../AVR8/Endpoint_AVR8.h **** 			/** Writes one byte to the currently selected endpoint's bank, for IN direction endpoints.
 546:lib/lufa/LUFA/Drivers/USB/Core/AVR8/../AVR8/Endpoint_AVR8.h **** 			 *
 547:lib/lufa/LUFA/Drivers/USB/Core/AVR8/../AVR8/Endpoint_AVR8.h **** 			 *  \ingroup Group_EndpointPrimitiveRW_AVR8
 548:lib/lufa/LUFA/Drivers/USB/Core/AVR8/../AVR8/Endpoint_AVR8.h **** 			 *
 549:lib/lufa/LUFA/Drivers/USB/Core/AVR8/../AVR8/Endpoint_AVR8.h **** 			 *  \param[in] Data  Data to write into the the currently selected endpoint's FIFO buffer.
 550:lib/lufa/LUFA/Drivers/USB/Core/AVR8/../AVR8/Endpoint_AVR8.h **** 			 */
 551:lib/lufa/LUFA/Drivers/USB/Core/AVR8/../AVR8/Endpoint_AVR8.h **** 			static inline void Endpoint_Write_8(const uint8_t Data) ATTR_ALWAYS_INLINE;
 552:lib/lufa/LUFA/Drivers/USB/Core/AVR8/../AVR8/Endpoint_AVR8.h **** 			static inline void Endpoint_Write_8(const uint8_t Data)
 553:lib/lufa/LUFA/Drivers/USB/Core/AVR8/../AVR8/Endpoint_AVR8.h **** 			{
 554:lib/lufa/LUFA/Drivers/USB/Core/AVR8/../AVR8/Endpoint_AVR8.h **** 				UEDATX = Data;
 555:lib/lufa/LUFA/Drivers/USB/Core/AVR8/../AVR8/Endpoint_AVR8.h **** 			}
 556:lib/lufa/LUFA/Drivers/USB/Core/AVR8/../AVR8/Endpoint_AVR8.h **** 
 557:lib/lufa/LUFA/Drivers/USB/Core/AVR8/../AVR8/Endpoint_AVR8.h **** 			/** Discards one byte from the currently selected endpoint's bank, for OUT direction endpoints.
 558:lib/lufa/LUFA/Drivers/USB/Core/AVR8/../AVR8/Endpoint_AVR8.h **** 			 *
 559:lib/lufa/LUFA/Drivers/USB/Core/AVR8/../AVR8/Endpoint_AVR8.h **** 			 *  \ingroup Group_EndpointPrimitiveRW_AVR8
 560:lib/lufa/LUFA/Drivers/USB/Core/AVR8/../AVR8/Endpoint_AVR8.h **** 			 */
 561:lib/lufa/LUFA/Drivers/USB/Core/AVR8/../AVR8/Endpoint_AVR8.h **** 			static inline void Endpoint_Discard_8(void) ATTR_ALWAYS_INLINE;
 562:lib/lufa/LUFA/Drivers/USB/Core/AVR8/../AVR8/Endpoint_AVR8.h **** 			static inline void Endpoint_Discard_8(void)
 563:lib/lufa/LUFA/Drivers/USB/Core/AVR8/../AVR8/Endpoint_AVR8.h **** 			{
 564:lib/lufa/LUFA/Drivers/USB/Core/AVR8/../AVR8/Endpoint_AVR8.h **** 				uint8_t Dummy;
 565:lib/lufa/LUFA/Drivers/USB/Core/AVR8/../AVR8/Endpoint_AVR8.h **** 
 566:lib/lufa/LUFA/Drivers/USB/Core/AVR8/../AVR8/Endpoint_AVR8.h **** 				Dummy = UEDATX;
 567:lib/lufa/LUFA/Drivers/USB/Core/AVR8/../AVR8/Endpoint_AVR8.h **** 
 568:lib/lufa/LUFA/Drivers/USB/Core/AVR8/../AVR8/Endpoint_AVR8.h **** 				(void)Dummy;
 569:lib/lufa/LUFA/Drivers/USB/Core/AVR8/../AVR8/Endpoint_AVR8.h **** 			}
 570:lib/lufa/LUFA/Drivers/USB/Core/AVR8/../AVR8/Endpoint_AVR8.h **** 
 571:lib/lufa/LUFA/Drivers/USB/Core/AVR8/../AVR8/Endpoint_AVR8.h **** 			/** Reads two bytes from the currently selected endpoint's bank in little endian format, for OUT
 572:lib/lufa/LUFA/Drivers/USB/Core/AVR8/../AVR8/Endpoint_AVR8.h **** 			 *  direction endpoints.
 573:lib/lufa/LUFA/Drivers/USB/Core/AVR8/../AVR8/Endpoint_AVR8.h **** 			 *
 574:lib/lufa/LUFA/Drivers/USB/Core/AVR8/../AVR8/Endpoint_AVR8.h **** 			 *  \ingroup Group_EndpointPrimitiveRW_AVR8
 575:lib/lufa/LUFA/Drivers/USB/Core/AVR8/../AVR8/Endpoint_AVR8.h **** 			 *
 576:lib/lufa/LUFA/Drivers/USB/Core/AVR8/../AVR8/Endpoint_AVR8.h **** 			 *  \return Next two bytes in the currently selected endpoint's FIFO buffer.
 577:lib/lufa/LUFA/Drivers/USB/Core/AVR8/../AVR8/Endpoint_AVR8.h **** 			 */
 578:lib/lufa/LUFA/Drivers/USB/Core/AVR8/../AVR8/Endpoint_AVR8.h **** 			static inline uint16_t Endpoint_Read_16_LE(void) ATTR_WARN_UNUSED_RESULT ATTR_ALWAYS_INLINE;
 579:lib/lufa/LUFA/Drivers/USB/Core/AVR8/../AVR8/Endpoint_AVR8.h **** 			static inline uint16_t Endpoint_Read_16_LE(void)
 580:lib/lufa/LUFA/Drivers/USB/Core/AVR8/../AVR8/Endpoint_AVR8.h **** 			{
 581:lib/lufa/LUFA/Drivers/USB/Core/AVR8/../AVR8/Endpoint_AVR8.h **** 				union
 582:lib/lufa/LUFA/Drivers/USB/Core/AVR8/../AVR8/Endpoint_AVR8.h **** 				{
 583:lib/lufa/LUFA/Drivers/USB/Core/AVR8/../AVR8/Endpoint_AVR8.h **** 					uint16_t Value;
 584:lib/lufa/LUFA/Drivers/USB/Core/AVR8/../AVR8/Endpoint_AVR8.h **** 					uint8_t  Bytes[2];
 585:lib/lufa/LUFA/Drivers/USB/Core/AVR8/../AVR8/Endpoint_AVR8.h **** 				} Data;
 586:lib/lufa/LUFA/Drivers/USB/Core/AVR8/../AVR8/Endpoint_AVR8.h **** 
 587:lib/lufa/LUFA/Drivers/USB/Core/AVR8/../AVR8/Endpoint_AVR8.h **** 				Data.Bytes[0] = UEDATX;
 588:lib/lufa/LUFA/Drivers/USB/Core/AVR8/../AVR8/Endpoint_AVR8.h **** 				Data.Bytes[1] = UEDATX;
 589:lib/lufa/LUFA/Drivers/USB/Core/AVR8/../AVR8/Endpoint_AVR8.h **** 
 590:lib/lufa/LUFA/Drivers/USB/Core/AVR8/../AVR8/Endpoint_AVR8.h **** 				return Data.Value;
 591:lib/lufa/LUFA/Drivers/USB/Core/AVR8/../AVR8/Endpoint_AVR8.h **** 			}
 592:lib/lufa/LUFA/Drivers/USB/Core/AVR8/../AVR8/Endpoint_AVR8.h **** 
 593:lib/lufa/LUFA/Drivers/USB/Core/AVR8/../AVR8/Endpoint_AVR8.h **** 			/** Reads two bytes from the currently selected endpoint's bank in big endian format, for OUT
 594:lib/lufa/LUFA/Drivers/USB/Core/AVR8/../AVR8/Endpoint_AVR8.h **** 			 *  direction endpoints.
 595:lib/lufa/LUFA/Drivers/USB/Core/AVR8/../AVR8/Endpoint_AVR8.h **** 			 *
 596:lib/lufa/LUFA/Drivers/USB/Core/AVR8/../AVR8/Endpoint_AVR8.h **** 			 *  \ingroup Group_EndpointPrimitiveRW_AVR8
 597:lib/lufa/LUFA/Drivers/USB/Core/AVR8/../AVR8/Endpoint_AVR8.h **** 			 *
 598:lib/lufa/LUFA/Drivers/USB/Core/AVR8/../AVR8/Endpoint_AVR8.h **** 			 *  \return Next two bytes in the currently selected endpoint's FIFO buffer.
 599:lib/lufa/LUFA/Drivers/USB/Core/AVR8/../AVR8/Endpoint_AVR8.h **** 			 */
 600:lib/lufa/LUFA/Drivers/USB/Core/AVR8/../AVR8/Endpoint_AVR8.h **** 			static inline uint16_t Endpoint_Read_16_BE(void) ATTR_WARN_UNUSED_RESULT ATTR_ALWAYS_INLINE;
 601:lib/lufa/LUFA/Drivers/USB/Core/AVR8/../AVR8/Endpoint_AVR8.h **** 			static inline uint16_t Endpoint_Read_16_BE(void)
 602:lib/lufa/LUFA/Drivers/USB/Core/AVR8/../AVR8/Endpoint_AVR8.h **** 			{
 603:lib/lufa/LUFA/Drivers/USB/Core/AVR8/../AVR8/Endpoint_AVR8.h **** 				union
 604:lib/lufa/LUFA/Drivers/USB/Core/AVR8/../AVR8/Endpoint_AVR8.h **** 				{
 605:lib/lufa/LUFA/Drivers/USB/Core/AVR8/../AVR8/Endpoint_AVR8.h **** 					uint16_t Value;
 606:lib/lufa/LUFA/Drivers/USB/Core/AVR8/../AVR8/Endpoint_AVR8.h **** 					uint8_t  Bytes[2];
 607:lib/lufa/LUFA/Drivers/USB/Core/AVR8/../AVR8/Endpoint_AVR8.h **** 				} Data;
 608:lib/lufa/LUFA/Drivers/USB/Core/AVR8/../AVR8/Endpoint_AVR8.h **** 
 609:lib/lufa/LUFA/Drivers/USB/Core/AVR8/../AVR8/Endpoint_AVR8.h **** 				Data.Bytes[1] = UEDATX;
 610:lib/lufa/LUFA/Drivers/USB/Core/AVR8/../AVR8/Endpoint_AVR8.h **** 				Data.Bytes[0] = UEDATX;
 611:lib/lufa/LUFA/Drivers/USB/Core/AVR8/../AVR8/Endpoint_AVR8.h **** 
 612:lib/lufa/LUFA/Drivers/USB/Core/AVR8/../AVR8/Endpoint_AVR8.h **** 				return Data.Value;
 613:lib/lufa/LUFA/Drivers/USB/Core/AVR8/../AVR8/Endpoint_AVR8.h **** 			}
 614:lib/lufa/LUFA/Drivers/USB/Core/AVR8/../AVR8/Endpoint_AVR8.h **** 
 615:lib/lufa/LUFA/Drivers/USB/Core/AVR8/../AVR8/Endpoint_AVR8.h **** 			/** Writes two bytes to the currently selected endpoint's bank in little endian format, for IN
 616:lib/lufa/LUFA/Drivers/USB/Core/AVR8/../AVR8/Endpoint_AVR8.h **** 			 *  direction endpoints.
 617:lib/lufa/LUFA/Drivers/USB/Core/AVR8/../AVR8/Endpoint_AVR8.h **** 			 *
 618:lib/lufa/LUFA/Drivers/USB/Core/AVR8/../AVR8/Endpoint_AVR8.h **** 			 *  \ingroup Group_EndpointPrimitiveRW_AVR8
 619:lib/lufa/LUFA/Drivers/USB/Core/AVR8/../AVR8/Endpoint_AVR8.h **** 			 *
 620:lib/lufa/LUFA/Drivers/USB/Core/AVR8/../AVR8/Endpoint_AVR8.h **** 			 *  \param[in] Data  Data to write to the currently selected endpoint's FIFO buffer.
 621:lib/lufa/LUFA/Drivers/USB/Core/AVR8/../AVR8/Endpoint_AVR8.h **** 			 */
 622:lib/lufa/LUFA/Drivers/USB/Core/AVR8/../AVR8/Endpoint_AVR8.h **** 			static inline void Endpoint_Write_16_LE(const uint16_t Data) ATTR_ALWAYS_INLINE;
 623:lib/lufa/LUFA/Drivers/USB/Core/AVR8/../AVR8/Endpoint_AVR8.h **** 			static inline void Endpoint_Write_16_LE(const uint16_t Data)
 624:lib/lufa/LUFA/Drivers/USB/Core/AVR8/../AVR8/Endpoint_AVR8.h **** 			{
 625:lib/lufa/LUFA/Drivers/USB/Core/AVR8/../AVR8/Endpoint_AVR8.h **** 				UEDATX = (Data & 0xFF);
 186               		.loc 2 625 0
 187 0096 8093 F100 		sts 241,r24
 626:lib/lufa/LUFA/Drivers/USB/Core/AVR8/../AVR8/Endpoint_AVR8.h **** 				UEDATX = (Data >> 8);
 188               		.loc 2 626 0
 189 009a 1092 F100 		sts 241,__zero_reg__
 190               	.LVL17:
 191 009e 00C0      		rjmp .L63
 192               	.LVL18:
 193               	.L6:
 194               	.LBE190:
 195               	.LBE189:
 196               	.LBE179:
 197               	.LBE178:
  82:lib/lufa/LUFA/Drivers/USB/Core/DeviceStandardReq.c **** 					(bmRequestType == (REQDIR_HOSTTODEVICE | REQTYPE_STANDARD | REQREC_ENDPOINT)))
 198               		.loc 1 82 0
 199 00a0 282F      		mov r18,r24
 200 00a2 2D7F      		andi r18,lo8(-3)
 201 00a4 01F0      		breq .+2
 202 00a6 00C0      		rjmp .L3
 203               	.LBB191:
 204               	.LBB192:
 318:lib/lufa/LUFA/Drivers/USB/Core/DeviceStandardReq.c **** 
 319:lib/lufa/LUFA/Drivers/USB/Core/DeviceStandardReq.c **** 			Endpoint_SelectEndpoint(ENDPOINT_CONTROLEP);
 320:lib/lufa/LUFA/Drivers/USB/Core/DeviceStandardReq.c **** 			#endif
 321:lib/lufa/LUFA/Drivers/USB/Core/DeviceStandardReq.c **** 
 322:lib/lufa/LUFA/Drivers/USB/Core/DeviceStandardReq.c **** 			break;
 323:lib/lufa/LUFA/Drivers/USB/Core/DeviceStandardReq.c **** 		}
 324:lib/lufa/LUFA/Drivers/USB/Core/DeviceStandardReq.c **** 		default:
 325:lib/lufa/LUFA/Drivers/USB/Core/DeviceStandardReq.c **** 			return;
 326:lib/lufa/LUFA/Drivers/USB/Core/DeviceStandardReq.c **** 	}
 327:lib/lufa/LUFA/Drivers/USB/Core/DeviceStandardReq.c **** 
 328:lib/lufa/LUFA/Drivers/USB/Core/DeviceStandardReq.c **** 	Endpoint_ClearSETUP();
 329:lib/lufa/LUFA/Drivers/USB/Core/DeviceStandardReq.c **** 
 330:lib/lufa/LUFA/Drivers/USB/Core/DeviceStandardReq.c **** 	Endpoint_Write_16_LE(CurrentStatus);
 331:lib/lufa/LUFA/Drivers/USB/Core/DeviceStandardReq.c **** 	Endpoint_ClearIN();
 332:lib/lufa/LUFA/Drivers/USB/Core/DeviceStandardReq.c **** 
 333:lib/lufa/LUFA/Drivers/USB/Core/DeviceStandardReq.c **** 	Endpoint_ClearStatusStage();
 334:lib/lufa/LUFA/Drivers/USB/Core/DeviceStandardReq.c **** }
 335:lib/lufa/LUFA/Drivers/USB/Core/DeviceStandardReq.c **** 
 336:lib/lufa/LUFA/Drivers/USB/Core/DeviceStandardReq.c **** static void USB_Device_ClearSetFeature(void)
 337:lib/lufa/LUFA/Drivers/USB/Core/DeviceStandardReq.c **** {
 338:lib/lufa/LUFA/Drivers/USB/Core/DeviceStandardReq.c **** 	switch (USB_ControlRequest.bmRequestType & CONTROL_REQTYPE_RECIPIENT)
 205               		.loc 1 338 0
 206 00a8 8823      		tst r24
 207 00aa 01F0      		breq .L14
 208 00ac 8230      		cpi r24,lo8(2)
 209 00ae 01F0      		breq .L15
 210 00b0 00C0      		rjmp .L3
 211               	.L14:
 339:lib/lufa/LUFA/Drivers/USB/Core/DeviceStandardReq.c **** 	{
 340:lib/lufa/LUFA/Drivers/USB/Core/DeviceStandardReq.c **** 		#if !defined(NO_DEVICE_REMOTE_WAKEUP)
 341:lib/lufa/LUFA/Drivers/USB/Core/DeviceStandardReq.c **** 		case REQREC_DEVICE:
 342:lib/lufa/LUFA/Drivers/USB/Core/DeviceStandardReq.c **** 		{
 343:lib/lufa/LUFA/Drivers/USB/Core/DeviceStandardReq.c **** 			if ((uint8_t)USB_ControlRequest.wValue == FEATURE_SEL_DeviceRemoteWakeup)
 212               		.loc 1 343 0
 213 00b2 8091 0000 		lds r24,USB_ControlRequest+2
 214               	.LVL19:
 215 00b6 8130      		cpi r24,lo8(1)
 216 00b8 01F0      		breq .+2
 217 00ba 00C0      		rjmp .L3
 344:lib/lufa/LUFA/Drivers/USB/Core/DeviceStandardReq.c **** 			  USB_Device_RemoteWakeupEnabled = (USB_ControlRequest.bRequest == REQ_SetFeature);
 218               		.loc 1 344 0
 219 00bc 9330      		cpi r25,lo8(3)
 220 00be 01F0      		breq .L16
 221 00c0 80E0      		ldi r24,0
 222               	.L16:
 223 00c2 8093 0000 		sts USB_Device_RemoteWakeupEnabled,r24
 224 00c6 00C0      		rjmp .L17
 225               	.LVL20:
 226               	.L15:
 345:lib/lufa/LUFA/Drivers/USB/Core/DeviceStandardReq.c **** 			else
 346:lib/lufa/LUFA/Drivers/USB/Core/DeviceStandardReq.c **** 			  return;
 347:lib/lufa/LUFA/Drivers/USB/Core/DeviceStandardReq.c **** 
 348:lib/lufa/LUFA/Drivers/USB/Core/DeviceStandardReq.c **** 			break;
 349:lib/lufa/LUFA/Drivers/USB/Core/DeviceStandardReq.c **** 		}
 350:lib/lufa/LUFA/Drivers/USB/Core/DeviceStandardReq.c **** 		#endif
 351:lib/lufa/LUFA/Drivers/USB/Core/DeviceStandardReq.c **** 		#if !defined(CONTROL_ONLY_DEVICE)
 352:lib/lufa/LUFA/Drivers/USB/Core/DeviceStandardReq.c **** 		case REQREC_ENDPOINT:
 353:lib/lufa/LUFA/Drivers/USB/Core/DeviceStandardReq.c **** 		{
 354:lib/lufa/LUFA/Drivers/USB/Core/DeviceStandardReq.c **** 			if ((uint8_t)USB_ControlRequest.wValue == FEATURE_SEL_EndpointHalt)
 227               		.loc 1 354 0
 228 00c8 8091 0000 		lds r24,USB_ControlRequest+2
 229               	.LVL21:
 230 00cc 8111      		cpse r24,__zero_reg__
 231 00ce 00C0      		rjmp .L17
 232               	.LBB193:
 355:lib/lufa/LUFA/Drivers/USB/Core/DeviceStandardReq.c **** 			{
 356:lib/lufa/LUFA/Drivers/USB/Core/DeviceStandardReq.c **** 				uint8_t EndpointIndex = ((uint8_t)USB_ControlRequest.wIndex & ENDPOINT_EPNUM_MASK);
 233               		.loc 1 356 0
 234 00d0 8091 0000 		lds r24,USB_ControlRequest+4
 235 00d4 8F70      		andi r24,lo8(15)
 236               	.LVL22:
 357:lib/lufa/LUFA/Drivers/USB/Core/DeviceStandardReq.c **** 
 358:lib/lufa/LUFA/Drivers/USB/Core/DeviceStandardReq.c **** 				if (EndpointIndex == ENDPOINT_CONTROLEP || EndpointIndex >= ENDPOINT_TOTAL_ENDPOINTS)
 237               		.loc 1 358 0
 238 00d6 2FEF      		ldi r18,lo8(-1)
 239 00d8 280F      		add r18,r24
 240 00da 2630      		cpi r18,lo8(6)
 241 00dc 00F0      		brlo .+2
 242 00de 00C0      		rjmp .L3
 243               	.LVL23:
 244               	.LBB194:
 245               	.LBB195:
 270:lib/lufa/LUFA/Drivers/USB/Core/AVR8/../AVR8/Endpoint_AVR8.h **** 				#endif
 246               		.loc 2 270 0
 247 00e0 8093 E900 		sts 233,r24
 248               	.LVL24:
 249               	.LBE195:
 250               	.LBE194:
 251               	.LBB196:
 252               	.LBB197:
 313:lib/lufa/LUFA/Drivers/USB/Core/AVR8/../AVR8/Endpoint_AVR8.h **** 			}
 253               		.loc 2 313 0
 254 00e4 2091 EB00 		lds r18,235
 255               	.LBE197:
 256               	.LBE196:
 359:lib/lufa/LUFA/Drivers/USB/Core/DeviceStandardReq.c **** 				  return;
 360:lib/lufa/LUFA/Drivers/USB/Core/DeviceStandardReq.c **** 
 361:lib/lufa/LUFA/Drivers/USB/Core/DeviceStandardReq.c **** 				Endpoint_SelectEndpoint(EndpointIndex);
 362:lib/lufa/LUFA/Drivers/USB/Core/DeviceStandardReq.c **** 
 363:lib/lufa/LUFA/Drivers/USB/Core/DeviceStandardReq.c **** 				if (Endpoint_IsEnabled())
 257               		.loc 1 363 0
 258 00e8 20FF      		sbrs r18,0
 259 00ea 00C0      		rjmp .L17
 364:lib/lufa/LUFA/Drivers/USB/Core/DeviceStandardReq.c **** 				{
 365:lib/lufa/LUFA/Drivers/USB/Core/DeviceStandardReq.c **** 					if (USB_ControlRequest.bRequest == REQ_SetFeature)
 260               		.loc 1 365 0
 261 00ec 9330      		cpi r25,lo8(3)
 262 00ee 01F4      		brne .L20
 263               	.LBB198:
 264               	.LBB199:
 491:lib/lufa/LUFA/Drivers/USB/Core/AVR8/../AVR8/Endpoint_AVR8.h **** 			}
 265               		.loc 2 491 0
 266 00f0 8091 EB00 		lds r24,235
 267               	.LVL25:
 268 00f4 8062      		ori r24,lo8(32)
 269 00f6 00C0      		rjmp .L60
 270               	.LVL26:
 271               	.L20:
 272               	.LBE199:
 273               	.LBE198:
 274               	.LBB200:
 275               	.LBB201:
 501:lib/lufa/LUFA/Drivers/USB/Core/AVR8/../AVR8/Endpoint_AVR8.h **** 			}
 276               		.loc 2 501 0
 277 00f8 9091 EB00 		lds r25,235
 278 00fc 9061      		ori r25,lo8(16)
 279 00fe 9093 EB00 		sts 235,r25
 280               	.LVL27:
 281               	.LBE201:
 282               	.LBE200:
 283               	.LBB202:
 284               	.LBB203:
 282:lib/lufa/LUFA/Drivers/USB/Core/AVR8/../AVR8/Endpoint_AVR8.h **** 				UERST = 0;
 285               		.loc 2 282 0
 286 0102 21E0      		ldi r18,lo8(1)
 287 0104 30E0      		ldi r19,0
 288 0106 A901      		movw r20,r18
 289 0108 00C0      		rjmp 2f
 290               		1:
 291 010a 440F      		lsl r20
 292 010c 551F      		rol r21
 293               		2:
 294 010e 8A95      		dec r24
 295 0110 02F4      		brpl 1b
 296 0112 4093 EA00 		sts 234,r20
 283:lib/lufa/LUFA/Drivers/USB/Core/AVR8/../AVR8/Endpoint_AVR8.h **** 			}
 297               		.loc 2 283 0
 298 0116 1092 EA00 		sts 234,__zero_reg__
 299               	.LVL28:
 300               	.LBE203:
 301               	.LBE202:
 302               	.LBB204:
 303               	.LBB205:
 520:lib/lufa/LUFA/Drivers/USB/Core/AVR8/../AVR8/Endpoint_AVR8.h **** 			}
 304               		.loc 2 520 0
 305 011a 8091 EB00 		lds r24,235
 306               	.LVL29:
 307 011e 8860      		ori r24,lo8(8)
 308               	.L60:
 309 0120 8093 EB00 		sts 235,r24
 310               	.LVL30:
 311               	.L17:
 312               	.LBE205:
 313               	.LBE204:
 314               	.LBE193:
 315               	.LBB206:
 316               	.LBB207:
 270:lib/lufa/LUFA/Drivers/USB/Core/AVR8/../AVR8/Endpoint_AVR8.h **** 				#endif
 317               		.loc 2 270 0
 318 0124 1092 E900 		sts 233,__zero_reg__
 319               	.LVL31:
 320               	.LBE207:
 321               	.LBE206:
 322               	.LBB208:
 323               	.LBB209:
 444:lib/lufa/LUFA/Drivers/USB/Core/AVR8/../AVR8/Endpoint_AVR8.h **** 			}
 324               		.loc 2 444 0
 325 0128 8091 E800 		lds r24,232
 326 012c 877F      		andi r24,lo8(-9)
 327               	.L61:
 328 012e 8093 E800 		sts 232,r24
 329               	.LBE209:
 330               	.LBE208:
 366:lib/lufa/LUFA/Drivers/USB/Core/DeviceStandardReq.c **** 					{
 367:lib/lufa/LUFA/Drivers/USB/Core/DeviceStandardReq.c **** 						Endpoint_StallTransaction();
 368:lib/lufa/LUFA/Drivers/USB/Core/DeviceStandardReq.c **** 					}
 369:lib/lufa/LUFA/Drivers/USB/Core/DeviceStandardReq.c **** 					else
 370:lib/lufa/LUFA/Drivers/USB/Core/DeviceStandardReq.c **** 					{
 371:lib/lufa/LUFA/Drivers/USB/Core/DeviceStandardReq.c **** 						Endpoint_ClearStall();
 372:lib/lufa/LUFA/Drivers/USB/Core/DeviceStandardReq.c **** 						Endpoint_ResetEndpoint(EndpointIndex);
 373:lib/lufa/LUFA/Drivers/USB/Core/DeviceStandardReq.c **** 						Endpoint_ResetDataToggle();
 374:lib/lufa/LUFA/Drivers/USB/Core/DeviceStandardReq.c **** 					}
 375:lib/lufa/LUFA/Drivers/USB/Core/DeviceStandardReq.c **** 				}
 376:lib/lufa/LUFA/Drivers/USB/Core/DeviceStandardReq.c **** 			}
 377:lib/lufa/LUFA/Drivers/USB/Core/DeviceStandardReq.c **** 
 378:lib/lufa/LUFA/Drivers/USB/Core/DeviceStandardReq.c **** 			break;
 379:lib/lufa/LUFA/Drivers/USB/Core/DeviceStandardReq.c **** 		}
 380:lib/lufa/LUFA/Drivers/USB/Core/DeviceStandardReq.c **** 		#endif
 381:lib/lufa/LUFA/Drivers/USB/Core/DeviceStandardReq.c **** 		default:
 382:lib/lufa/LUFA/Drivers/USB/Core/DeviceStandardReq.c **** 			return;
 383:lib/lufa/LUFA/Drivers/USB/Core/DeviceStandardReq.c **** 	}
 384:lib/lufa/LUFA/Drivers/USB/Core/DeviceStandardReq.c **** 
 385:lib/lufa/LUFA/Drivers/USB/Core/DeviceStandardReq.c **** 	Endpoint_SelectEndpoint(ENDPOINT_CONTROLEP);
 386:lib/lufa/LUFA/Drivers/USB/Core/DeviceStandardReq.c **** 
 387:lib/lufa/LUFA/Drivers/USB/Core/DeviceStandardReq.c **** 	Endpoint_ClearSETUP();
 388:lib/lufa/LUFA/Drivers/USB/Core/DeviceStandardReq.c **** 
 389:lib/lufa/LUFA/Drivers/USB/Core/DeviceStandardReq.c **** 	Endpoint_ClearStatusStage();
 331               		.loc 1 389 0
 332 0132 0E94 0000 		call Endpoint_ClearStatusStage
 333               	.LVL32:
 334 0136 00C0      		rjmp .L3
 335               	.LVL33:
 336               	.L7:
 337               	.LBE192:
 338               	.LBE191:
  90:lib/lufa/LUFA/Drivers/USB/Core/DeviceStandardReq.c **** 				  USB_Device_SetAddress();
 339               		.loc 1 90 0
 340 0138 8111      		cpse r24,__zero_reg__
 341 013a 00C0      		rjmp .L3
 342               	.LBB210:
 343               	.LBB211:
 127:lib/lufa/LUFA/Drivers/USB/Core/DeviceStandardReq.c **** 
 344               		.loc 1 127 0
 345 013c 1091 0000 		lds r17,USB_ControlRequest+2
 346 0140 1F77      		andi r17,lo8(127)
 347               	.LVL34:
 348               	.LBB212:
 349               	.LBB213:
 350               		.file 3 "lib/lufa/LUFA/Drivers/USB/Core/AVR8/../AVR8/Device_AVR8.h"
   1:lib/lufa/LUFA/Drivers/USB/Core/AVR8/../AVR8/Device_AVR8.h **** /*
   2:lib/lufa/LUFA/Drivers/USB/Core/AVR8/../AVR8/Device_AVR8.h ****              LUFA Library
   3:lib/lufa/LUFA/Drivers/USB/Core/AVR8/../AVR8/Device_AVR8.h ****      Copyright (C) Dean Camera, 2017.
   4:lib/lufa/LUFA/Drivers/USB/Core/AVR8/../AVR8/Device_AVR8.h **** 
   5:lib/lufa/LUFA/Drivers/USB/Core/AVR8/../AVR8/Device_AVR8.h ****   dean [at] fourwalledcubicle [dot] com
   6:lib/lufa/LUFA/Drivers/USB/Core/AVR8/../AVR8/Device_AVR8.h ****            www.lufa-lib.org
   7:lib/lufa/LUFA/Drivers/USB/Core/AVR8/../AVR8/Device_AVR8.h **** */
   8:lib/lufa/LUFA/Drivers/USB/Core/AVR8/../AVR8/Device_AVR8.h **** 
   9:lib/lufa/LUFA/Drivers/USB/Core/AVR8/../AVR8/Device_AVR8.h **** /*
  10:lib/lufa/LUFA/Drivers/USB/Core/AVR8/../AVR8/Device_AVR8.h ****   Copyright 2017  Dean Camera (dean [at] fourwalledcubicle [dot] com)
  11:lib/lufa/LUFA/Drivers/USB/Core/AVR8/../AVR8/Device_AVR8.h **** 
  12:lib/lufa/LUFA/Drivers/USB/Core/AVR8/../AVR8/Device_AVR8.h ****   Permission to use, copy, modify, distribute, and sell this
  13:lib/lufa/LUFA/Drivers/USB/Core/AVR8/../AVR8/Device_AVR8.h ****   software and its documentation for any purpose is hereby granted
  14:lib/lufa/LUFA/Drivers/USB/Core/AVR8/../AVR8/Device_AVR8.h ****   without fee, provided that the above copyright notice appear in
  15:lib/lufa/LUFA/Drivers/USB/Core/AVR8/../AVR8/Device_AVR8.h ****   all copies and that both that the copyright notice and this
  16:lib/lufa/LUFA/Drivers/USB/Core/AVR8/../AVR8/Device_AVR8.h ****   permission notice and warranty disclaimer appear in supporting
  17:lib/lufa/LUFA/Drivers/USB/Core/AVR8/../AVR8/Device_AVR8.h ****   documentation, and that the name of the author not be used in
  18:lib/lufa/LUFA/Drivers/USB/Core/AVR8/../AVR8/Device_AVR8.h ****   advertising or publicity pertaining to distribution of the
  19:lib/lufa/LUFA/Drivers/USB/Core/AVR8/../AVR8/Device_AVR8.h ****   software without specific, written prior permission.
  20:lib/lufa/LUFA/Drivers/USB/Core/AVR8/../AVR8/Device_AVR8.h **** 
  21:lib/lufa/LUFA/Drivers/USB/Core/AVR8/../AVR8/Device_AVR8.h ****   The author disclaims all warranties with regard to this
  22:lib/lufa/LUFA/Drivers/USB/Core/AVR8/../AVR8/Device_AVR8.h ****   software, including all implied warranties of merchantability
  23:lib/lufa/LUFA/Drivers/USB/Core/AVR8/../AVR8/Device_AVR8.h ****   and fitness.  In no event shall the author be liable for any
  24:lib/lufa/LUFA/Drivers/USB/Core/AVR8/../AVR8/Device_AVR8.h ****   special, indirect or consequential damages or any damages
  25:lib/lufa/LUFA/Drivers/USB/Core/AVR8/../AVR8/Device_AVR8.h ****   whatsoever resulting from loss of use, data or profits, whether
  26:lib/lufa/LUFA/Drivers/USB/Core/AVR8/../AVR8/Device_AVR8.h ****   in an action of contract, negligence or other tortious action,
  27:lib/lufa/LUFA/Drivers/USB/Core/AVR8/../AVR8/Device_AVR8.h ****   arising out of or in connection with the use or performance of
  28:lib/lufa/LUFA/Drivers/USB/Core/AVR8/../AVR8/Device_AVR8.h ****   this software.
  29:lib/lufa/LUFA/Drivers/USB/Core/AVR8/../AVR8/Device_AVR8.h **** */
  30:lib/lufa/LUFA/Drivers/USB/Core/AVR8/../AVR8/Device_AVR8.h **** 
  31:lib/lufa/LUFA/Drivers/USB/Core/AVR8/../AVR8/Device_AVR8.h **** /** \file
  32:lib/lufa/LUFA/Drivers/USB/Core/AVR8/../AVR8/Device_AVR8.h ****  *  \brief USB Device definitions for the AVR8 microcontrollers.
  33:lib/lufa/LUFA/Drivers/USB/Core/AVR8/../AVR8/Device_AVR8.h ****  *  \copydetails Group_Device_AVR8
  34:lib/lufa/LUFA/Drivers/USB/Core/AVR8/../AVR8/Device_AVR8.h ****  *
  35:lib/lufa/LUFA/Drivers/USB/Core/AVR8/../AVR8/Device_AVR8.h ****  *  \note This file should not be included directly. It is automatically included as needed by the 
  36:lib/lufa/LUFA/Drivers/USB/Core/AVR8/../AVR8/Device_AVR8.h ****  *        dispatch header located in LUFA/Drivers/USB/USB.h.
  37:lib/lufa/LUFA/Drivers/USB/Core/AVR8/../AVR8/Device_AVR8.h ****  */
  38:lib/lufa/LUFA/Drivers/USB/Core/AVR8/../AVR8/Device_AVR8.h **** 
  39:lib/lufa/LUFA/Drivers/USB/Core/AVR8/../AVR8/Device_AVR8.h **** /** \ingroup Group_Device
  40:lib/lufa/LUFA/Drivers/USB/Core/AVR8/../AVR8/Device_AVR8.h ****  *  \defgroup Group_Device_AVR8 Device Management (AVR8)
  41:lib/lufa/LUFA/Drivers/USB/Core/AVR8/../AVR8/Device_AVR8.h ****  *  \brief USB Device definitions for the AVR8 microcontrollers.
  42:lib/lufa/LUFA/Drivers/USB/Core/AVR8/../AVR8/Device_AVR8.h ****  *
  43:lib/lufa/LUFA/Drivers/USB/Core/AVR8/../AVR8/Device_AVR8.h ****  *  Architecture specific USB Device definitions for the Atmel 8-bit AVR microcontrollers.
  44:lib/lufa/LUFA/Drivers/USB/Core/AVR8/../AVR8/Device_AVR8.h ****  *
  45:lib/lufa/LUFA/Drivers/USB/Core/AVR8/../AVR8/Device_AVR8.h ****  *  @{
  46:lib/lufa/LUFA/Drivers/USB/Core/AVR8/../AVR8/Device_AVR8.h ****  */
  47:lib/lufa/LUFA/Drivers/USB/Core/AVR8/../AVR8/Device_AVR8.h **** 
  48:lib/lufa/LUFA/Drivers/USB/Core/AVR8/../AVR8/Device_AVR8.h **** #ifndef __USBDEVICE_AVR8_H__
  49:lib/lufa/LUFA/Drivers/USB/Core/AVR8/../AVR8/Device_AVR8.h **** #define __USBDEVICE_AVR8_H__
  50:lib/lufa/LUFA/Drivers/USB/Core/AVR8/../AVR8/Device_AVR8.h **** 
  51:lib/lufa/LUFA/Drivers/USB/Core/AVR8/../AVR8/Device_AVR8.h **** 	/* Includes: */
  52:lib/lufa/LUFA/Drivers/USB/Core/AVR8/../AVR8/Device_AVR8.h **** 		#include "../../../../Common/Common.h"
  53:lib/lufa/LUFA/Drivers/USB/Core/AVR8/../AVR8/Device_AVR8.h **** 		#include "../USBController.h"
  54:lib/lufa/LUFA/Drivers/USB/Core/AVR8/../AVR8/Device_AVR8.h **** 		#include "../StdDescriptors.h"
  55:lib/lufa/LUFA/Drivers/USB/Core/AVR8/../AVR8/Device_AVR8.h **** 		#include "../USBInterrupt.h"
  56:lib/lufa/LUFA/Drivers/USB/Core/AVR8/../AVR8/Device_AVR8.h **** 		#include "../Endpoint.h"
  57:lib/lufa/LUFA/Drivers/USB/Core/AVR8/../AVR8/Device_AVR8.h **** 
  58:lib/lufa/LUFA/Drivers/USB/Core/AVR8/../AVR8/Device_AVR8.h **** 	/* Enable C linkage for C++ Compilers: */
  59:lib/lufa/LUFA/Drivers/USB/Core/AVR8/../AVR8/Device_AVR8.h **** 		#if defined(__cplusplus)
  60:lib/lufa/LUFA/Drivers/USB/Core/AVR8/../AVR8/Device_AVR8.h **** 			extern "C" {
  61:lib/lufa/LUFA/Drivers/USB/Core/AVR8/../AVR8/Device_AVR8.h **** 		#endif
  62:lib/lufa/LUFA/Drivers/USB/Core/AVR8/../AVR8/Device_AVR8.h **** 
  63:lib/lufa/LUFA/Drivers/USB/Core/AVR8/../AVR8/Device_AVR8.h **** 	/* Preprocessor Checks: */
  64:lib/lufa/LUFA/Drivers/USB/Core/AVR8/../AVR8/Device_AVR8.h **** 		#if !defined(__INCLUDE_FROM_USB_DRIVER)
  65:lib/lufa/LUFA/Drivers/USB/Core/AVR8/../AVR8/Device_AVR8.h **** 			#error Do not include this file directly. Include LUFA/Drivers/USB/USB.h instead.
  66:lib/lufa/LUFA/Drivers/USB/Core/AVR8/../AVR8/Device_AVR8.h **** 		#endif
  67:lib/lufa/LUFA/Drivers/USB/Core/AVR8/../AVR8/Device_AVR8.h **** 
  68:lib/lufa/LUFA/Drivers/USB/Core/AVR8/../AVR8/Device_AVR8.h **** 		#if (defined(USE_RAM_DESCRIPTORS) && defined(USE_EEPROM_DESCRIPTORS))
  69:lib/lufa/LUFA/Drivers/USB/Core/AVR8/../AVR8/Device_AVR8.h **** 			#error USE_RAM_DESCRIPTORS and USE_EEPROM_DESCRIPTORS are mutually exclusive.
  70:lib/lufa/LUFA/Drivers/USB/Core/AVR8/../AVR8/Device_AVR8.h **** 		#endif
  71:lib/lufa/LUFA/Drivers/USB/Core/AVR8/../AVR8/Device_AVR8.h **** 
  72:lib/lufa/LUFA/Drivers/USB/Core/AVR8/../AVR8/Device_AVR8.h **** 		#if (defined(USE_FLASH_DESCRIPTORS) && defined(USE_EEPROM_DESCRIPTORS))
  73:lib/lufa/LUFA/Drivers/USB/Core/AVR8/../AVR8/Device_AVR8.h **** 			#error USE_FLASH_DESCRIPTORS and USE_EEPROM_DESCRIPTORS are mutually exclusive.
  74:lib/lufa/LUFA/Drivers/USB/Core/AVR8/../AVR8/Device_AVR8.h **** 		#endif
  75:lib/lufa/LUFA/Drivers/USB/Core/AVR8/../AVR8/Device_AVR8.h **** 
  76:lib/lufa/LUFA/Drivers/USB/Core/AVR8/../AVR8/Device_AVR8.h **** 		#if (defined(USE_FLASH_DESCRIPTORS) && defined(USE_RAM_DESCRIPTORS))
  77:lib/lufa/LUFA/Drivers/USB/Core/AVR8/../AVR8/Device_AVR8.h **** 			#error USE_FLASH_DESCRIPTORS and USE_RAM_DESCRIPTORS are mutually exclusive.
  78:lib/lufa/LUFA/Drivers/USB/Core/AVR8/../AVR8/Device_AVR8.h **** 		#endif
  79:lib/lufa/LUFA/Drivers/USB/Core/AVR8/../AVR8/Device_AVR8.h **** 
  80:lib/lufa/LUFA/Drivers/USB/Core/AVR8/../AVR8/Device_AVR8.h **** 	/* Public Interface - May be used in end-application: */
  81:lib/lufa/LUFA/Drivers/USB/Core/AVR8/../AVR8/Device_AVR8.h **** 		/* Macros: */
  82:lib/lufa/LUFA/Drivers/USB/Core/AVR8/../AVR8/Device_AVR8.h **** 			/** \name USB Device Mode Option Masks */
  83:lib/lufa/LUFA/Drivers/USB/Core/AVR8/../AVR8/Device_AVR8.h **** 			//@{
  84:lib/lufa/LUFA/Drivers/USB/Core/AVR8/../AVR8/Device_AVR8.h **** 			#if defined(USB_SERIES_4_AVR) || defined(USB_SERIES_6_AVR) || defined(USB_SERIES_7_AVR) || defin
  85:lib/lufa/LUFA/Drivers/USB/Core/AVR8/../AVR8/Device_AVR8.h **** 				/** Mask for the Options parameter of the \ref USB_Init() function. This indicates that the
  86:lib/lufa/LUFA/Drivers/USB/Core/AVR8/../AVR8/Device_AVR8.h **** 				 *  USB interface should be initialized in low speed (1.5Mb/s) mode.
  87:lib/lufa/LUFA/Drivers/USB/Core/AVR8/../AVR8/Device_AVR8.h **** 				 *
  88:lib/lufa/LUFA/Drivers/USB/Core/AVR8/../AVR8/Device_AVR8.h **** 				 *  \note Low Speed mode is not available on all USB AVR models.
  89:lib/lufa/LUFA/Drivers/USB/Core/AVR8/../AVR8/Device_AVR8.h **** 				 *        \n
  90:lib/lufa/LUFA/Drivers/USB/Core/AVR8/../AVR8/Device_AVR8.h **** 				 *
  91:lib/lufa/LUFA/Drivers/USB/Core/AVR8/../AVR8/Device_AVR8.h **** 				 *  \note Restrictions apply on the number, size and type of endpoints which can be used
  92:lib/lufa/LUFA/Drivers/USB/Core/AVR8/../AVR8/Device_AVR8.h **** 				 *        when running in low speed mode - please refer to the USB 2.0 specification.
  93:lib/lufa/LUFA/Drivers/USB/Core/AVR8/../AVR8/Device_AVR8.h **** 				 */
  94:lib/lufa/LUFA/Drivers/USB/Core/AVR8/../AVR8/Device_AVR8.h **** 				#define USB_DEVICE_OPT_LOWSPEED            (1 << 0)
  95:lib/lufa/LUFA/Drivers/USB/Core/AVR8/../AVR8/Device_AVR8.h **** 			#endif
  96:lib/lufa/LUFA/Drivers/USB/Core/AVR8/../AVR8/Device_AVR8.h **** 
  97:lib/lufa/LUFA/Drivers/USB/Core/AVR8/../AVR8/Device_AVR8.h **** 			/** Mask for the Options parameter of the \ref USB_Init() function. This indicates that the
  98:lib/lufa/LUFA/Drivers/USB/Core/AVR8/../AVR8/Device_AVR8.h **** 			 *  USB interface should be initialized in full speed (12Mb/s) mode.
  99:lib/lufa/LUFA/Drivers/USB/Core/AVR8/../AVR8/Device_AVR8.h **** 			 */
 100:lib/lufa/LUFA/Drivers/USB/Core/AVR8/../AVR8/Device_AVR8.h **** 			#define USB_DEVICE_OPT_FULLSPEED               (0 << 0)
 101:lib/lufa/LUFA/Drivers/USB/Core/AVR8/../AVR8/Device_AVR8.h **** 			//@}
 102:lib/lufa/LUFA/Drivers/USB/Core/AVR8/../AVR8/Device_AVR8.h **** 
 103:lib/lufa/LUFA/Drivers/USB/Core/AVR8/../AVR8/Device_AVR8.h **** 			#if (!defined(NO_INTERNAL_SERIAL) && \
 104:lib/lufa/LUFA/Drivers/USB/Core/AVR8/../AVR8/Device_AVR8.h **** 			     (defined(USB_SERIES_7_AVR) || defined(USB_SERIES_6_AVR) || \
 105:lib/lufa/LUFA/Drivers/USB/Core/AVR8/../AVR8/Device_AVR8.h **** 			      defined(USB_SERIES_4_AVR) || defined(USB_SERIES_2_AVR) || \
 106:lib/lufa/LUFA/Drivers/USB/Core/AVR8/../AVR8/Device_AVR8.h **** 				  defined(__DOXYGEN__)))
 107:lib/lufa/LUFA/Drivers/USB/Core/AVR8/../AVR8/Device_AVR8.h **** 				/** String descriptor index for the device's unique serial number string descriptor within the 
 108:lib/lufa/LUFA/Drivers/USB/Core/AVR8/../AVR8/Device_AVR8.h **** 				 *  This unique serial number is used by the host to associate resources to the device (such as
 109:lib/lufa/LUFA/Drivers/USB/Core/AVR8/../AVR8/Device_AVR8.h **** 				 *  number allocations) to a device regardless of the port it is plugged in to on the host. Som
 110:lib/lufa/LUFA/Drivers/USB/Core/AVR8/../AVR8/Device_AVR8.h **** 				 *  a unique serial number internally, and setting the device descriptors serial number string 
 111:lib/lufa/LUFA/Drivers/USB/Core/AVR8/../AVR8/Device_AVR8.h **** 				 *  will cause it to use the internal serial number.
 112:lib/lufa/LUFA/Drivers/USB/Core/AVR8/../AVR8/Device_AVR8.h **** 				 *
 113:lib/lufa/LUFA/Drivers/USB/Core/AVR8/../AVR8/Device_AVR8.h **** 				 *  On unsupported devices, this will evaluate to \ref NO_DESCRIPTOR and so will force the host
 114:lib/lufa/LUFA/Drivers/USB/Core/AVR8/../AVR8/Device_AVR8.h **** 				 *  number for the device.
 115:lib/lufa/LUFA/Drivers/USB/Core/AVR8/../AVR8/Device_AVR8.h **** 				 */
 116:lib/lufa/LUFA/Drivers/USB/Core/AVR8/../AVR8/Device_AVR8.h **** 				#define USE_INTERNAL_SERIAL            0xDC
 117:lib/lufa/LUFA/Drivers/USB/Core/AVR8/../AVR8/Device_AVR8.h **** 
 118:lib/lufa/LUFA/Drivers/USB/Core/AVR8/../AVR8/Device_AVR8.h **** 				/** Length of the device's unique internal serial number, in bits, if present on the selected m
 119:lib/lufa/LUFA/Drivers/USB/Core/AVR8/../AVR8/Device_AVR8.h **** 				 *  model.
 120:lib/lufa/LUFA/Drivers/USB/Core/AVR8/../AVR8/Device_AVR8.h **** 				 */
 121:lib/lufa/LUFA/Drivers/USB/Core/AVR8/../AVR8/Device_AVR8.h **** 				#define INTERNAL_SERIAL_LENGTH_BITS    80
 122:lib/lufa/LUFA/Drivers/USB/Core/AVR8/../AVR8/Device_AVR8.h **** 
 123:lib/lufa/LUFA/Drivers/USB/Core/AVR8/../AVR8/Device_AVR8.h **** 				/** Start address of the internal serial number, in the appropriate address space, if present o
 124:lib/lufa/LUFA/Drivers/USB/Core/AVR8/../AVR8/Device_AVR8.h **** 				 *  model.
 125:lib/lufa/LUFA/Drivers/USB/Core/AVR8/../AVR8/Device_AVR8.h **** 				 */
 126:lib/lufa/LUFA/Drivers/USB/Core/AVR8/../AVR8/Device_AVR8.h **** 				#define INTERNAL_SERIAL_START_ADDRESS  0x0E
 127:lib/lufa/LUFA/Drivers/USB/Core/AVR8/../AVR8/Device_AVR8.h **** 			#else
 128:lib/lufa/LUFA/Drivers/USB/Core/AVR8/../AVR8/Device_AVR8.h **** 				#define USE_INTERNAL_SERIAL            NO_DESCRIPTOR
 129:lib/lufa/LUFA/Drivers/USB/Core/AVR8/../AVR8/Device_AVR8.h **** 
 130:lib/lufa/LUFA/Drivers/USB/Core/AVR8/../AVR8/Device_AVR8.h **** 				#define INTERNAL_SERIAL_LENGTH_BITS    0
 131:lib/lufa/LUFA/Drivers/USB/Core/AVR8/../AVR8/Device_AVR8.h **** 				#define INTERNAL_SERIAL_START_ADDRESS  0
 132:lib/lufa/LUFA/Drivers/USB/Core/AVR8/../AVR8/Device_AVR8.h **** 			#endif
 133:lib/lufa/LUFA/Drivers/USB/Core/AVR8/../AVR8/Device_AVR8.h **** 
 134:lib/lufa/LUFA/Drivers/USB/Core/AVR8/../AVR8/Device_AVR8.h **** 		/* Function Prototypes: */
 135:lib/lufa/LUFA/Drivers/USB/Core/AVR8/../AVR8/Device_AVR8.h **** 			/** Sends a Remote Wakeup request to the host. This signals to the host that the device should
 136:lib/lufa/LUFA/Drivers/USB/Core/AVR8/../AVR8/Device_AVR8.h **** 			 *  be taken out of suspended mode, and communications should resume.
 137:lib/lufa/LUFA/Drivers/USB/Core/AVR8/../AVR8/Device_AVR8.h **** 			 *
 138:lib/lufa/LUFA/Drivers/USB/Core/AVR8/../AVR8/Device_AVR8.h **** 			 *  Typically, this is implemented so that HID devices (mice, keyboards, etc.) can wake up the
 139:lib/lufa/LUFA/Drivers/USB/Core/AVR8/../AVR8/Device_AVR8.h **** 			 *  host computer when the host has suspended all USB devices to enter a low power state.
 140:lib/lufa/LUFA/Drivers/USB/Core/AVR8/../AVR8/Device_AVR8.h **** 			 *
 141:lib/lufa/LUFA/Drivers/USB/Core/AVR8/../AVR8/Device_AVR8.h **** 			 *  \attention This function should only be used if the device has indicated to the host that it
 142:lib/lufa/LUFA/Drivers/USB/Core/AVR8/../AVR8/Device_AVR8.h **** 			 *             supports the Remote Wakeup feature in the device descriptors, and should only be
 143:lib/lufa/LUFA/Drivers/USB/Core/AVR8/../AVR8/Device_AVR8.h **** 			 *             issued if the host is currently allowing remote wakeup events from the device (i.
 144:lib/lufa/LUFA/Drivers/USB/Core/AVR8/../AVR8/Device_AVR8.h **** 			 *             the \ref USB_Device_RemoteWakeupEnabled flag is set). When the \c NO_DEVICE_REMOT
 145:lib/lufa/LUFA/Drivers/USB/Core/AVR8/../AVR8/Device_AVR8.h **** 			 *             compile time option is used, this function is unavailable.
 146:lib/lufa/LUFA/Drivers/USB/Core/AVR8/../AVR8/Device_AVR8.h **** 			 *             \n\n
 147:lib/lufa/LUFA/Drivers/USB/Core/AVR8/../AVR8/Device_AVR8.h **** 			 *
 148:lib/lufa/LUFA/Drivers/USB/Core/AVR8/../AVR8/Device_AVR8.h **** 			 *  \attention The USB clock must be running for this function to operate. If the stack is initi
 149:lib/lufa/LUFA/Drivers/USB/Core/AVR8/../AVR8/Device_AVR8.h **** 			 *             the \ref USB_OPT_MANUAL_PLL option enabled, the user must ensure that the PLL is 
 150:lib/lufa/LUFA/Drivers/USB/Core/AVR8/../AVR8/Device_AVR8.h **** 			 *             before attempting to call this function.
 151:lib/lufa/LUFA/Drivers/USB/Core/AVR8/../AVR8/Device_AVR8.h **** 			 *
 152:lib/lufa/LUFA/Drivers/USB/Core/AVR8/../AVR8/Device_AVR8.h **** 			 *  \see \ref Group_StdDescriptors for more information on the RMWAKEUP feature and device descr
 153:lib/lufa/LUFA/Drivers/USB/Core/AVR8/../AVR8/Device_AVR8.h **** 			 */
 154:lib/lufa/LUFA/Drivers/USB/Core/AVR8/../AVR8/Device_AVR8.h **** 			void USB_Device_SendRemoteWakeup(void);
 155:lib/lufa/LUFA/Drivers/USB/Core/AVR8/../AVR8/Device_AVR8.h **** 
 156:lib/lufa/LUFA/Drivers/USB/Core/AVR8/../AVR8/Device_AVR8.h **** 		/* Inline Functions: */
 157:lib/lufa/LUFA/Drivers/USB/Core/AVR8/../AVR8/Device_AVR8.h **** 			/** Returns the current USB frame number, when in device mode. Every millisecond the USB bus is 
 158:lib/lufa/LUFA/Drivers/USB/Core/AVR8/../AVR8/Device_AVR8.h **** 			 *  the frame number is incremented by one.
 159:lib/lufa/LUFA/Drivers/USB/Core/AVR8/../AVR8/Device_AVR8.h **** 			 *
 160:lib/lufa/LUFA/Drivers/USB/Core/AVR8/../AVR8/Device_AVR8.h **** 			 *  \return Current USB frame number from the USB controller.
 161:lib/lufa/LUFA/Drivers/USB/Core/AVR8/../AVR8/Device_AVR8.h **** 			 */
 162:lib/lufa/LUFA/Drivers/USB/Core/AVR8/../AVR8/Device_AVR8.h **** 			static inline uint16_t USB_Device_GetFrameNumber(void) ATTR_ALWAYS_INLINE ATTR_WARN_UNUSED_RESUL
 163:lib/lufa/LUFA/Drivers/USB/Core/AVR8/../AVR8/Device_AVR8.h **** 			static inline uint16_t USB_Device_GetFrameNumber(void)
 164:lib/lufa/LUFA/Drivers/USB/Core/AVR8/../AVR8/Device_AVR8.h **** 			{
 165:lib/lufa/LUFA/Drivers/USB/Core/AVR8/../AVR8/Device_AVR8.h **** 				return UDFNUM;
 166:lib/lufa/LUFA/Drivers/USB/Core/AVR8/../AVR8/Device_AVR8.h **** 			}
 167:lib/lufa/LUFA/Drivers/USB/Core/AVR8/../AVR8/Device_AVR8.h **** 
 168:lib/lufa/LUFA/Drivers/USB/Core/AVR8/../AVR8/Device_AVR8.h **** 			#if !defined(NO_SOF_EVENTS)
 169:lib/lufa/LUFA/Drivers/USB/Core/AVR8/../AVR8/Device_AVR8.h **** 				/** Enables the device mode Start Of Frame events. When enabled, this causes the
 170:lib/lufa/LUFA/Drivers/USB/Core/AVR8/../AVR8/Device_AVR8.h **** 				 *  \ref EVENT_USB_Device_StartOfFrame() event to fire once per millisecond, synchronized to th
 171:lib/lufa/LUFA/Drivers/USB/Core/AVR8/../AVR8/Device_AVR8.h **** 				 *  at the start of each USB frame when enumerated in device mode.
 172:lib/lufa/LUFA/Drivers/USB/Core/AVR8/../AVR8/Device_AVR8.h **** 				 *
 173:lib/lufa/LUFA/Drivers/USB/Core/AVR8/../AVR8/Device_AVR8.h **** 				 *  \note This function is not available when the \c NO_SOF_EVENTS compile time token is define
 174:lib/lufa/LUFA/Drivers/USB/Core/AVR8/../AVR8/Device_AVR8.h **** 				 */
 175:lib/lufa/LUFA/Drivers/USB/Core/AVR8/../AVR8/Device_AVR8.h **** 				static inline void USB_Device_EnableSOFEvents(void) ATTR_ALWAYS_INLINE;
 176:lib/lufa/LUFA/Drivers/USB/Core/AVR8/../AVR8/Device_AVR8.h **** 				static inline void USB_Device_EnableSOFEvents(void)
 177:lib/lufa/LUFA/Drivers/USB/Core/AVR8/../AVR8/Device_AVR8.h **** 				{
 178:lib/lufa/LUFA/Drivers/USB/Core/AVR8/../AVR8/Device_AVR8.h **** 					USB_INT_Enable(USB_INT_SOFI);
 179:lib/lufa/LUFA/Drivers/USB/Core/AVR8/../AVR8/Device_AVR8.h **** 				}
 180:lib/lufa/LUFA/Drivers/USB/Core/AVR8/../AVR8/Device_AVR8.h **** 
 181:lib/lufa/LUFA/Drivers/USB/Core/AVR8/../AVR8/Device_AVR8.h **** 				/** Disables the device mode Start Of Frame events. When disabled, this stops the firing of the
 182:lib/lufa/LUFA/Drivers/USB/Core/AVR8/../AVR8/Device_AVR8.h **** 				 *  \ref EVENT_USB_Device_StartOfFrame() event when enumerated in device mode.
 183:lib/lufa/LUFA/Drivers/USB/Core/AVR8/../AVR8/Device_AVR8.h **** 				 *
 184:lib/lufa/LUFA/Drivers/USB/Core/AVR8/../AVR8/Device_AVR8.h **** 				 *  \note This function is not available when the \c NO_SOF_EVENTS compile time token is define
 185:lib/lufa/LUFA/Drivers/USB/Core/AVR8/../AVR8/Device_AVR8.h **** 				 */
 186:lib/lufa/LUFA/Drivers/USB/Core/AVR8/../AVR8/Device_AVR8.h **** 				static inline void USB_Device_DisableSOFEvents(void) ATTR_ALWAYS_INLINE;
 187:lib/lufa/LUFA/Drivers/USB/Core/AVR8/../AVR8/Device_AVR8.h **** 				static inline void USB_Device_DisableSOFEvents(void)
 188:lib/lufa/LUFA/Drivers/USB/Core/AVR8/../AVR8/Device_AVR8.h **** 				{
 189:lib/lufa/LUFA/Drivers/USB/Core/AVR8/../AVR8/Device_AVR8.h **** 					USB_INT_Disable(USB_INT_SOFI);
 190:lib/lufa/LUFA/Drivers/USB/Core/AVR8/../AVR8/Device_AVR8.h **** 				}
 191:lib/lufa/LUFA/Drivers/USB/Core/AVR8/../AVR8/Device_AVR8.h **** 			#endif
 192:lib/lufa/LUFA/Drivers/USB/Core/AVR8/../AVR8/Device_AVR8.h **** 
 193:lib/lufa/LUFA/Drivers/USB/Core/AVR8/../AVR8/Device_AVR8.h **** 	/* Private Interface - For use in library only: */
 194:lib/lufa/LUFA/Drivers/USB/Core/AVR8/../AVR8/Device_AVR8.h **** 	#if !defined(__DOXYGEN__)
 195:lib/lufa/LUFA/Drivers/USB/Core/AVR8/../AVR8/Device_AVR8.h **** 		/* Inline Functions: */
 196:lib/lufa/LUFA/Drivers/USB/Core/AVR8/../AVR8/Device_AVR8.h **** 			#if defined(USB_DEVICE_OPT_LOWSPEED)
 197:lib/lufa/LUFA/Drivers/USB/Core/AVR8/../AVR8/Device_AVR8.h **** 			static inline void USB_Device_SetLowSpeed(void) ATTR_ALWAYS_INLINE;
 198:lib/lufa/LUFA/Drivers/USB/Core/AVR8/../AVR8/Device_AVR8.h **** 			static inline void USB_Device_SetLowSpeed(void)
 199:lib/lufa/LUFA/Drivers/USB/Core/AVR8/../AVR8/Device_AVR8.h **** 			{
 200:lib/lufa/LUFA/Drivers/USB/Core/AVR8/../AVR8/Device_AVR8.h **** 				UDCON |=  (1 << LSM);
 201:lib/lufa/LUFA/Drivers/USB/Core/AVR8/../AVR8/Device_AVR8.h **** 			}
 202:lib/lufa/LUFA/Drivers/USB/Core/AVR8/../AVR8/Device_AVR8.h **** 
 203:lib/lufa/LUFA/Drivers/USB/Core/AVR8/../AVR8/Device_AVR8.h **** 			static inline void USB_Device_SetFullSpeed(void) ATTR_ALWAYS_INLINE;
 204:lib/lufa/LUFA/Drivers/USB/Core/AVR8/../AVR8/Device_AVR8.h **** 			static inline void USB_Device_SetFullSpeed(void)
 205:lib/lufa/LUFA/Drivers/USB/Core/AVR8/../AVR8/Device_AVR8.h **** 			{
 206:lib/lufa/LUFA/Drivers/USB/Core/AVR8/../AVR8/Device_AVR8.h **** 				UDCON &= ~(1 << LSM);
 207:lib/lufa/LUFA/Drivers/USB/Core/AVR8/../AVR8/Device_AVR8.h **** 			}
 208:lib/lufa/LUFA/Drivers/USB/Core/AVR8/../AVR8/Device_AVR8.h **** 			#endif
 209:lib/lufa/LUFA/Drivers/USB/Core/AVR8/../AVR8/Device_AVR8.h **** 
 210:lib/lufa/LUFA/Drivers/USB/Core/AVR8/../AVR8/Device_AVR8.h **** 			static inline void USB_Device_SetDeviceAddress(const uint8_t Address) ATTR_ALWAYS_INLINE;
 211:lib/lufa/LUFA/Drivers/USB/Core/AVR8/../AVR8/Device_AVR8.h **** 			static inline void USB_Device_SetDeviceAddress(const uint8_t Address)
 212:lib/lufa/LUFA/Drivers/USB/Core/AVR8/../AVR8/Device_AVR8.h **** 			{
 213:lib/lufa/LUFA/Drivers/USB/Core/AVR8/../AVR8/Device_AVR8.h **** 				UDADDR = (UDADDR & (1 << ADDEN)) | (Address & 0x7F);
 351               		.loc 3 213 0
 352 0142 8091 E300 		lds r24,227
 353               	.LVL35:
 354 0146 8078      		andi r24,lo8(-128)
 355 0148 812B      		or r24,r17
 356 014a 8093 E300 		sts 227,r24
 357               	.LVL36:
 358               	.LBE213:
 359               	.LBE212:
 360               	.LBB214:
 361               	.LBB215:
 444:lib/lufa/LUFA/Drivers/USB/Core/AVR8/../AVR8/Endpoint_AVR8.h **** 			}
 362               		.loc 2 444 0
 363 014e 8091 E800 		lds r24,232
 364 0152 877F      		andi r24,lo8(-9)
 365 0154 8093 E800 		sts 232,r24
 366               	.LBE215:
 367               	.LBE214:
 133:lib/lufa/LUFA/Drivers/USB/Core/DeviceStandardReq.c **** 
 368               		.loc 1 133 0
 369 0158 0E94 0000 		call Endpoint_ClearStatusStage
 370               	.LVL37:
 371               	.L21:
 372               	.LBB216:
 373               	.LBB217:
 407:lib/lufa/LUFA/Drivers/USB/Core/AVR8/../AVR8/Endpoint_AVR8.h **** 			}
 374               		.loc 2 407 0
 375 015c 8091 E800 		lds r24,232
 376               	.LBE217:
 377               	.LBE216:
 135:lib/lufa/LUFA/Drivers/USB/Core/DeviceStandardReq.c **** 
 378               		.loc 1 135 0
 379 0160 80FF      		sbrs r24,0
 380 0162 00C0      		rjmp .L21
 381               	.LVL38:
 382               	.LBB218:
 383               	.LBB219:
 214:lib/lufa/LUFA/Drivers/USB/Core/AVR8/../AVR8/Device_AVR8.h **** 			}
 215:lib/lufa/LUFA/Drivers/USB/Core/AVR8/../AVR8/Device_AVR8.h **** 
 216:lib/lufa/LUFA/Drivers/USB/Core/AVR8/../AVR8/Device_AVR8.h **** 			static inline void USB_Device_EnableDeviceAddress(const uint8_t Address) ATTR_ALWAYS_INLINE;
 217:lib/lufa/LUFA/Drivers/USB/Core/AVR8/../AVR8/Device_AVR8.h **** 			static inline void USB_Device_EnableDeviceAddress(const uint8_t Address)
 218:lib/lufa/LUFA/Drivers/USB/Core/AVR8/../AVR8/Device_AVR8.h **** 			{
 219:lib/lufa/LUFA/Drivers/USB/Core/AVR8/../AVR8/Device_AVR8.h **** 				(void)Address;
 220:lib/lufa/LUFA/Drivers/USB/Core/AVR8/../AVR8/Device_AVR8.h **** 
 221:lib/lufa/LUFA/Drivers/USB/Core/AVR8/../AVR8/Device_AVR8.h **** 				UDADDR |= (1 << ADDEN);
 384               		.loc 3 221 0
 385 0164 8091 E300 		lds r24,227
 386 0168 8068      		ori r24,lo8(-128)
 387 016a 8093 E300 		sts 227,r24
 388               	.LVL39:
 389               	.LBE219:
 390               	.LBE218:
 139:lib/lufa/LUFA/Drivers/USB/Core/DeviceStandardReq.c **** }
 391               		.loc 1 139 0
 392 016e 1111      		cpse r17,__zero_reg__
 393 0170 00C0      		rjmp .L33
 394 0172 82E0      		ldi r24,lo8(2)
 395 0174 00C0      		rjmp .L22
 396               	.L33:
 397 0176 83E0      		ldi r24,lo8(3)
 398               	.L22:
 399 0178 8093 0000 		sts USB_DeviceState,r24
 400 017c 00C0      		rjmp .L3
 401               	.LVL40:
 402               	.L8:
 403               	.LBE211:
 404               	.LBE210:
  95:lib/lufa/LUFA/Drivers/USB/Core/DeviceStandardReq.c **** 					(bmRequestType == (REQDIR_DEVICETOHOST | REQTYPE_STANDARD | REQREC_INTERFACE)))
 405               		.loc 1 95 0
 406 017e 8058      		subi r24,lo8(-(-128))
 407               	.LVL41:
 408 0180 8230      		cpi r24,lo8(2)
 409 0182 00F0      		brlo .+2
 410 0184 00C0      		rjmp .L3
 411               	.LBB220:
 412               	.LBB221:
 250:lib/lufa/LUFA/Drivers/USB/Core/DeviceStandardReq.c **** 	{
 413               		.loc 1 250 0
 414 0186 8091 0000 		lds r24,USB_ControlRequest+2
 415 018a 9091 0000 		lds r25,USB_ControlRequest+2+1
 416 018e 8C3D      		cpi r24,-36
 417 0190 53E0      		ldi r21,3
 418 0192 9507      		cpc r25,r21
 419 0194 01F4      		brne .L23
 420               	.LBB222:
 421               	.LBB223:
 227:lib/lufa/LUFA/Drivers/USB/Core/DeviceStandardReq.c **** 	SignatureDescriptor.Header.Size = USB_STRING_LEN(INTERNAL_SERIAL_LENGTH_BITS / 4);
 422               		.loc 1 227 0
 423 0196 83E0      		ldi r24,lo8(3)
 424 0198 8A83      		std Y+2,r24
 228:lib/lufa/LUFA/Drivers/USB/Core/DeviceStandardReq.c **** 
 425               		.loc 1 228 0
 426 019a 8AE2      		ldi r24,lo8(42)
 427 019c 8983      		std Y+1,r24
 428               	.LVL42:
 429               	.LBB224:
 430               	.LBB225:
 431               	.LBB226:
 432               	.LBB227:
 433               		.file 4 "lib/lufa/LUFA/Drivers/USB/Core/../../../Common/Common.h"
   1:lib/lufa/LUFA/Drivers/USB/Core/../../../Common/Common.h **** /*
   2:lib/lufa/LUFA/Drivers/USB/Core/../../../Common/Common.h ****              LUFA Library
   3:lib/lufa/LUFA/Drivers/USB/Core/../../../Common/Common.h ****      Copyright (C) Dean Camera, 2017.
   4:lib/lufa/LUFA/Drivers/USB/Core/../../../Common/Common.h **** 
   5:lib/lufa/LUFA/Drivers/USB/Core/../../../Common/Common.h ****   dean [at] fourwalledcubicle [dot] com
   6:lib/lufa/LUFA/Drivers/USB/Core/../../../Common/Common.h ****            www.lufa-lib.org
   7:lib/lufa/LUFA/Drivers/USB/Core/../../../Common/Common.h **** */
   8:lib/lufa/LUFA/Drivers/USB/Core/../../../Common/Common.h **** 
   9:lib/lufa/LUFA/Drivers/USB/Core/../../../Common/Common.h **** /*
  10:lib/lufa/LUFA/Drivers/USB/Core/../../../Common/Common.h ****   Copyright 2017  Dean Camera (dean [at] fourwalledcubicle [dot] com)
  11:lib/lufa/LUFA/Drivers/USB/Core/../../../Common/Common.h **** 
  12:lib/lufa/LUFA/Drivers/USB/Core/../../../Common/Common.h ****   Permission to use, copy, modify, distribute, and sell this
  13:lib/lufa/LUFA/Drivers/USB/Core/../../../Common/Common.h ****   software and its documentation for any purpose is hereby granted
  14:lib/lufa/LUFA/Drivers/USB/Core/../../../Common/Common.h ****   without fee, provided that the above copyright notice appear in
  15:lib/lufa/LUFA/Drivers/USB/Core/../../../Common/Common.h ****   all copies and that both that the copyright notice and this
  16:lib/lufa/LUFA/Drivers/USB/Core/../../../Common/Common.h ****   permission notice and warranty disclaimer appear in supporting
  17:lib/lufa/LUFA/Drivers/USB/Core/../../../Common/Common.h ****   documentation, and that the name of the author not be used in
  18:lib/lufa/LUFA/Drivers/USB/Core/../../../Common/Common.h ****   advertising or publicity pertaining to distribution of the
  19:lib/lufa/LUFA/Drivers/USB/Core/../../../Common/Common.h ****   software without specific, written prior permission.
  20:lib/lufa/LUFA/Drivers/USB/Core/../../../Common/Common.h **** 
  21:lib/lufa/LUFA/Drivers/USB/Core/../../../Common/Common.h ****   The author disclaims all warranties with regard to this
  22:lib/lufa/LUFA/Drivers/USB/Core/../../../Common/Common.h ****   software, including all implied warranties of merchantability
  23:lib/lufa/LUFA/Drivers/USB/Core/../../../Common/Common.h ****   and fitness.  In no event shall the author be liable for any
  24:lib/lufa/LUFA/Drivers/USB/Core/../../../Common/Common.h ****   special, indirect or consequential damages or any damages
  25:lib/lufa/LUFA/Drivers/USB/Core/../../../Common/Common.h ****   whatsoever resulting from loss of use, data or profits, whether
  26:lib/lufa/LUFA/Drivers/USB/Core/../../../Common/Common.h ****   in an action of contract, negligence or other tortious action,
  27:lib/lufa/LUFA/Drivers/USB/Core/../../../Common/Common.h ****   arising out of or in connection with the use or performance of
  28:lib/lufa/LUFA/Drivers/USB/Core/../../../Common/Common.h ****   this software.
  29:lib/lufa/LUFA/Drivers/USB/Core/../../../Common/Common.h **** */
  30:lib/lufa/LUFA/Drivers/USB/Core/../../../Common/Common.h **** 
  31:lib/lufa/LUFA/Drivers/USB/Core/../../../Common/Common.h **** /** \dir
  32:lib/lufa/LUFA/Drivers/USB/Core/../../../Common/Common.h ****  *  \brief Common library header files.
  33:lib/lufa/LUFA/Drivers/USB/Core/../../../Common/Common.h ****  *
  34:lib/lufa/LUFA/Drivers/USB/Core/../../../Common/Common.h ****  *  This folder contains header files which are common to all parts of the LUFA library. They may b
  35:lib/lufa/LUFA/Drivers/USB/Core/../../../Common/Common.h ****  *  user applications.
  36:lib/lufa/LUFA/Drivers/USB/Core/../../../Common/Common.h ****  */
  37:lib/lufa/LUFA/Drivers/USB/Core/../../../Common/Common.h **** 
  38:lib/lufa/LUFA/Drivers/USB/Core/../../../Common/Common.h **** /** \file
  39:lib/lufa/LUFA/Drivers/USB/Core/../../../Common/Common.h ****  *  \brief Common library convenience headers, macros and functions.
  40:lib/lufa/LUFA/Drivers/USB/Core/../../../Common/Common.h ****  *
  41:lib/lufa/LUFA/Drivers/USB/Core/../../../Common/Common.h ****  *  \copydetails Group_Common
  42:lib/lufa/LUFA/Drivers/USB/Core/../../../Common/Common.h ****  */
  43:lib/lufa/LUFA/Drivers/USB/Core/../../../Common/Common.h **** 
  44:lib/lufa/LUFA/Drivers/USB/Core/../../../Common/Common.h **** /** \defgroup Group_Common Common Utility Headers - LUFA/Drivers/Common/Common.h
  45:lib/lufa/LUFA/Drivers/USB/Core/../../../Common/Common.h ****  *  \brief Common library convenience headers, macros and functions.
  46:lib/lufa/LUFA/Drivers/USB/Core/../../../Common/Common.h ****  *
  47:lib/lufa/LUFA/Drivers/USB/Core/../../../Common/Common.h ****  *  Common utility headers containing macros, functions, enums and types which are common to all
  48:lib/lufa/LUFA/Drivers/USB/Core/../../../Common/Common.h ****  *  aspects of the library.
  49:lib/lufa/LUFA/Drivers/USB/Core/../../../Common/Common.h ****  *
  50:lib/lufa/LUFA/Drivers/USB/Core/../../../Common/Common.h ****  *  @{
  51:lib/lufa/LUFA/Drivers/USB/Core/../../../Common/Common.h ****  */
  52:lib/lufa/LUFA/Drivers/USB/Core/../../../Common/Common.h **** 
  53:lib/lufa/LUFA/Drivers/USB/Core/../../../Common/Common.h **** /** \defgroup Group_GlobalInt Global Interrupt Macros
  54:lib/lufa/LUFA/Drivers/USB/Core/../../../Common/Common.h ****  *  \brief Convenience macros for the management of interrupts globally within the device.
  55:lib/lufa/LUFA/Drivers/USB/Core/../../../Common/Common.h ****  *
  56:lib/lufa/LUFA/Drivers/USB/Core/../../../Common/Common.h ****  *  Macros and functions to create and control global interrupts within the device.
  57:lib/lufa/LUFA/Drivers/USB/Core/../../../Common/Common.h ****  */
  58:lib/lufa/LUFA/Drivers/USB/Core/../../../Common/Common.h **** 
  59:lib/lufa/LUFA/Drivers/USB/Core/../../../Common/Common.h **** #ifndef __LUFA_COMMON_H__
  60:lib/lufa/LUFA/Drivers/USB/Core/../../../Common/Common.h **** #define __LUFA_COMMON_H__
  61:lib/lufa/LUFA/Drivers/USB/Core/../../../Common/Common.h **** 
  62:lib/lufa/LUFA/Drivers/USB/Core/../../../Common/Common.h **** 	/* Macros: */
  63:lib/lufa/LUFA/Drivers/USB/Core/../../../Common/Common.h **** 		#define __INCLUDE_FROM_COMMON_H
  64:lib/lufa/LUFA/Drivers/USB/Core/../../../Common/Common.h **** 
  65:lib/lufa/LUFA/Drivers/USB/Core/../../../Common/Common.h **** 	/* Includes: */
  66:lib/lufa/LUFA/Drivers/USB/Core/../../../Common/Common.h **** 		#include <stdint.h>
  67:lib/lufa/LUFA/Drivers/USB/Core/../../../Common/Common.h **** 		#include <stdbool.h>
  68:lib/lufa/LUFA/Drivers/USB/Core/../../../Common/Common.h **** 		#include <string.h>
  69:lib/lufa/LUFA/Drivers/USB/Core/../../../Common/Common.h **** 		#include <stddef.h>
  70:lib/lufa/LUFA/Drivers/USB/Core/../../../Common/Common.h **** 
  71:lib/lufa/LUFA/Drivers/USB/Core/../../../Common/Common.h **** 		#include "Architectures.h"
  72:lib/lufa/LUFA/Drivers/USB/Core/../../../Common/Common.h **** 		#include "BoardTypes.h"
  73:lib/lufa/LUFA/Drivers/USB/Core/../../../Common/Common.h **** 		#include "ArchitectureSpecific.h"
  74:lib/lufa/LUFA/Drivers/USB/Core/../../../Common/Common.h **** 		#include "CompilerSpecific.h"
  75:lib/lufa/LUFA/Drivers/USB/Core/../../../Common/Common.h **** 		#include "Attributes.h"
  76:lib/lufa/LUFA/Drivers/USB/Core/../../../Common/Common.h **** 
  77:lib/lufa/LUFA/Drivers/USB/Core/../../../Common/Common.h **** 		#if defined(USE_LUFA_CONFIG_HEADER)
  78:lib/lufa/LUFA/Drivers/USB/Core/../../../Common/Common.h **** 			#include "LUFAConfig.h"
  79:lib/lufa/LUFA/Drivers/USB/Core/../../../Common/Common.h **** 		#endif
  80:lib/lufa/LUFA/Drivers/USB/Core/../../../Common/Common.h **** 
  81:lib/lufa/LUFA/Drivers/USB/Core/../../../Common/Common.h **** 	/* Enable C linkage for C++ Compilers: */
  82:lib/lufa/LUFA/Drivers/USB/Core/../../../Common/Common.h **** 		#if defined(__cplusplus)
  83:lib/lufa/LUFA/Drivers/USB/Core/../../../Common/Common.h **** 			extern "C" {
  84:lib/lufa/LUFA/Drivers/USB/Core/../../../Common/Common.h **** 		#endif
  85:lib/lufa/LUFA/Drivers/USB/Core/../../../Common/Common.h **** 
  86:lib/lufa/LUFA/Drivers/USB/Core/../../../Common/Common.h **** 	/* Architecture specific utility includes: */
  87:lib/lufa/LUFA/Drivers/USB/Core/../../../Common/Common.h **** 		#if defined(__DOXYGEN__)
  88:lib/lufa/LUFA/Drivers/USB/Core/../../../Common/Common.h **** 			/** Type define for an unsigned integer the same width as the selected architecture's machine re
  89:lib/lufa/LUFA/Drivers/USB/Core/../../../Common/Common.h **** 			 *  This is distinct from the non-specific standard int data type, whose width is machine depend
  90:lib/lufa/LUFA/Drivers/USB/Core/../../../Common/Common.h **** 			 *  which may not reflect the actual machine register width on some targets (e.g. AVR8).
  91:lib/lufa/LUFA/Drivers/USB/Core/../../../Common/Common.h **** 			 */
  92:lib/lufa/LUFA/Drivers/USB/Core/../../../Common/Common.h **** 			typedef MACHINE_REG_t uint_reg_t;
  93:lib/lufa/LUFA/Drivers/USB/Core/../../../Common/Common.h **** 		#elif (ARCH == ARCH_AVR8)
  94:lib/lufa/LUFA/Drivers/USB/Core/../../../Common/Common.h **** 			#include <avr/io.h>
  95:lib/lufa/LUFA/Drivers/USB/Core/../../../Common/Common.h **** 			#include <avr/interrupt.h>
  96:lib/lufa/LUFA/Drivers/USB/Core/../../../Common/Common.h **** 			#include <avr/pgmspace.h>
  97:lib/lufa/LUFA/Drivers/USB/Core/../../../Common/Common.h **** 			#include <avr/eeprom.h>
  98:lib/lufa/LUFA/Drivers/USB/Core/../../../Common/Common.h **** 			#include <avr/boot.h>
  99:lib/lufa/LUFA/Drivers/USB/Core/../../../Common/Common.h **** 			#include <math.h>
 100:lib/lufa/LUFA/Drivers/USB/Core/../../../Common/Common.h **** 			#include <util/delay.h>
 101:lib/lufa/LUFA/Drivers/USB/Core/../../../Common/Common.h **** 
 102:lib/lufa/LUFA/Drivers/USB/Core/../../../Common/Common.h **** 			typedef uint8_t uint_reg_t;
 103:lib/lufa/LUFA/Drivers/USB/Core/../../../Common/Common.h **** 
 104:lib/lufa/LUFA/Drivers/USB/Core/../../../Common/Common.h **** 			#define ARCH_HAS_EEPROM_ADDRESS_SPACE
 105:lib/lufa/LUFA/Drivers/USB/Core/../../../Common/Common.h **** 			#define ARCH_HAS_FLASH_ADDRESS_SPACE
 106:lib/lufa/LUFA/Drivers/USB/Core/../../../Common/Common.h **** 			#define ARCH_HAS_MULTI_ADDRESS_SPACE
 107:lib/lufa/LUFA/Drivers/USB/Core/../../../Common/Common.h **** 			#define ARCH_LITTLE_ENDIAN
 108:lib/lufa/LUFA/Drivers/USB/Core/../../../Common/Common.h **** 
 109:lib/lufa/LUFA/Drivers/USB/Core/../../../Common/Common.h **** 			#include "Endianness.h"
 110:lib/lufa/LUFA/Drivers/USB/Core/../../../Common/Common.h **** 		#elif (ARCH == ARCH_UC3)
 111:lib/lufa/LUFA/Drivers/USB/Core/../../../Common/Common.h **** 			#include <avr32/io.h>
 112:lib/lufa/LUFA/Drivers/USB/Core/../../../Common/Common.h **** 			#include <math.h>
 113:lib/lufa/LUFA/Drivers/USB/Core/../../../Common/Common.h **** 
 114:lib/lufa/LUFA/Drivers/USB/Core/../../../Common/Common.h **** 			// === TODO: Find abstracted way to handle these ===
 115:lib/lufa/LUFA/Drivers/USB/Core/../../../Common/Common.h **** 			#define PROGMEM
 116:lib/lufa/LUFA/Drivers/USB/Core/../../../Common/Common.h **** 			#define pgm_read_byte(x)         *x
 117:lib/lufa/LUFA/Drivers/USB/Core/../../../Common/Common.h **** 			#define memcmp_P(...)            memcmp(__VA_ARGS__)
 118:lib/lufa/LUFA/Drivers/USB/Core/../../../Common/Common.h **** 			#define memcpy_P(...)            memcpy(__VA_ARGS__)
 119:lib/lufa/LUFA/Drivers/USB/Core/../../../Common/Common.h **** 			// =================================================
 120:lib/lufa/LUFA/Drivers/USB/Core/../../../Common/Common.h **** 
 121:lib/lufa/LUFA/Drivers/USB/Core/../../../Common/Common.h **** 			typedef uint32_t uint_reg_t;
 122:lib/lufa/LUFA/Drivers/USB/Core/../../../Common/Common.h **** 
 123:lib/lufa/LUFA/Drivers/USB/Core/../../../Common/Common.h **** 			#define ARCH_BIG_ENDIAN
 124:lib/lufa/LUFA/Drivers/USB/Core/../../../Common/Common.h **** 
 125:lib/lufa/LUFA/Drivers/USB/Core/../../../Common/Common.h **** 			#include "Endianness.h"
 126:lib/lufa/LUFA/Drivers/USB/Core/../../../Common/Common.h **** 		#elif (ARCH == ARCH_XMEGA)
 127:lib/lufa/LUFA/Drivers/USB/Core/../../../Common/Common.h **** 			#include <avr/io.h>
 128:lib/lufa/LUFA/Drivers/USB/Core/../../../Common/Common.h **** 			#include <avr/interrupt.h>
 129:lib/lufa/LUFA/Drivers/USB/Core/../../../Common/Common.h **** 			#include <avr/pgmspace.h>
 130:lib/lufa/LUFA/Drivers/USB/Core/../../../Common/Common.h **** 			#include <avr/eeprom.h>
 131:lib/lufa/LUFA/Drivers/USB/Core/../../../Common/Common.h **** 			#include <math.h>
 132:lib/lufa/LUFA/Drivers/USB/Core/../../../Common/Common.h **** 			#include <util/delay.h>
 133:lib/lufa/LUFA/Drivers/USB/Core/../../../Common/Common.h **** 
 134:lib/lufa/LUFA/Drivers/USB/Core/../../../Common/Common.h **** 			typedef uint8_t uint_reg_t;
 135:lib/lufa/LUFA/Drivers/USB/Core/../../../Common/Common.h **** 
 136:lib/lufa/LUFA/Drivers/USB/Core/../../../Common/Common.h **** 			#define ARCH_HAS_EEPROM_ADDRESS_SPACE
 137:lib/lufa/LUFA/Drivers/USB/Core/../../../Common/Common.h **** 			#define ARCH_HAS_FLASH_ADDRESS_SPACE
 138:lib/lufa/LUFA/Drivers/USB/Core/../../../Common/Common.h **** 			#define ARCH_HAS_MULTI_ADDRESS_SPACE
 139:lib/lufa/LUFA/Drivers/USB/Core/../../../Common/Common.h **** 			#define ARCH_LITTLE_ENDIAN
 140:lib/lufa/LUFA/Drivers/USB/Core/../../../Common/Common.h **** 
 141:lib/lufa/LUFA/Drivers/USB/Core/../../../Common/Common.h **** 			#include "Endianness.h"
 142:lib/lufa/LUFA/Drivers/USB/Core/../../../Common/Common.h **** 		#else
 143:lib/lufa/LUFA/Drivers/USB/Core/../../../Common/Common.h **** 			#error Unknown device architecture specified.
 144:lib/lufa/LUFA/Drivers/USB/Core/../../../Common/Common.h **** 		#endif
 145:lib/lufa/LUFA/Drivers/USB/Core/../../../Common/Common.h **** 
 146:lib/lufa/LUFA/Drivers/USB/Core/../../../Common/Common.h **** 	/* Public Interface - May be used in end-application: */
 147:lib/lufa/LUFA/Drivers/USB/Core/../../../Common/Common.h **** 		/* Macros: */
 148:lib/lufa/LUFA/Drivers/USB/Core/../../../Common/Common.h **** 			#if !defined(__DOXYGEN__)
 149:lib/lufa/LUFA/Drivers/USB/Core/../../../Common/Common.h **** 				// Obsolete, retained for compatibility with user code
 150:lib/lufa/LUFA/Drivers/USB/Core/../../../Common/Common.h **** 				#define MACROS                  do
 151:lib/lufa/LUFA/Drivers/USB/Core/../../../Common/Common.h **** 				#define MACROE                  while (0)
 152:lib/lufa/LUFA/Drivers/USB/Core/../../../Common/Common.h **** 			#endif
 153:lib/lufa/LUFA/Drivers/USB/Core/../../../Common/Common.h **** 
 154:lib/lufa/LUFA/Drivers/USB/Core/../../../Common/Common.h **** 			/** Convenience macro to determine the larger of two values.
 155:lib/lufa/LUFA/Drivers/USB/Core/../../../Common/Common.h **** 			 *
 156:lib/lufa/LUFA/Drivers/USB/Core/../../../Common/Common.h **** 			 *  \attention This macro should only be used with operands that do not have side effects from b
 157:lib/lufa/LUFA/Drivers/USB/Core/../../../Common/Common.h **** 			 *             multiple times.
 158:lib/lufa/LUFA/Drivers/USB/Core/../../../Common/Common.h **** 			 *
 159:lib/lufa/LUFA/Drivers/USB/Core/../../../Common/Common.h **** 			 *  \param[in] x  First value to compare
 160:lib/lufa/LUFA/Drivers/USB/Core/../../../Common/Common.h **** 			 *  \param[in] y  First value to compare
 161:lib/lufa/LUFA/Drivers/USB/Core/../../../Common/Common.h **** 			 *
 162:lib/lufa/LUFA/Drivers/USB/Core/../../../Common/Common.h **** 			 *  \return The larger of the two input parameters
 163:lib/lufa/LUFA/Drivers/USB/Core/../../../Common/Common.h **** 			 */
 164:lib/lufa/LUFA/Drivers/USB/Core/../../../Common/Common.h **** 			#if !defined(MAX) || defined(__DOXYGEN__)
 165:lib/lufa/LUFA/Drivers/USB/Core/../../../Common/Common.h **** 				#define MAX(x, y)               (((x) > (y)) ? (x) : (y))
 166:lib/lufa/LUFA/Drivers/USB/Core/../../../Common/Common.h **** 			#endif
 167:lib/lufa/LUFA/Drivers/USB/Core/../../../Common/Common.h **** 
 168:lib/lufa/LUFA/Drivers/USB/Core/../../../Common/Common.h **** 			/** Convenience macro to determine the smaller of two values.
 169:lib/lufa/LUFA/Drivers/USB/Core/../../../Common/Common.h **** 			 *
 170:lib/lufa/LUFA/Drivers/USB/Core/../../../Common/Common.h **** 			 *  \attention This macro should only be used with operands that do not have side effects from b
 171:lib/lufa/LUFA/Drivers/USB/Core/../../../Common/Common.h **** 			 *             multiple times.
 172:lib/lufa/LUFA/Drivers/USB/Core/../../../Common/Common.h **** 			 *
 173:lib/lufa/LUFA/Drivers/USB/Core/../../../Common/Common.h **** 			 *  \param[in] x  First value to compare.
 174:lib/lufa/LUFA/Drivers/USB/Core/../../../Common/Common.h **** 			 *  \param[in] y  First value to compare.
 175:lib/lufa/LUFA/Drivers/USB/Core/../../../Common/Common.h **** 			 *
 176:lib/lufa/LUFA/Drivers/USB/Core/../../../Common/Common.h **** 			 *  \return The smaller of the two input parameters
 177:lib/lufa/LUFA/Drivers/USB/Core/../../../Common/Common.h **** 			 */
 178:lib/lufa/LUFA/Drivers/USB/Core/../../../Common/Common.h **** 			#if !defined(MIN) || defined(__DOXYGEN__)
 179:lib/lufa/LUFA/Drivers/USB/Core/../../../Common/Common.h **** 				#define MIN(x, y)               (((x) < (y)) ? (x) : (y))
 180:lib/lufa/LUFA/Drivers/USB/Core/../../../Common/Common.h **** 			#endif
 181:lib/lufa/LUFA/Drivers/USB/Core/../../../Common/Common.h **** 
 182:lib/lufa/LUFA/Drivers/USB/Core/../../../Common/Common.h **** 			#if !defined(STRINGIFY) || defined(__DOXYGEN__)
 183:lib/lufa/LUFA/Drivers/USB/Core/../../../Common/Common.h **** 				/** Converts the given input into a string, via the C Preprocessor. This macro puts literal quo
 184:lib/lufa/LUFA/Drivers/USB/Core/../../../Common/Common.h **** 				 *  marks around the input, converting the source into a string literal.
 185:lib/lufa/LUFA/Drivers/USB/Core/../../../Common/Common.h **** 				 *
 186:lib/lufa/LUFA/Drivers/USB/Core/../../../Common/Common.h **** 				 *  \param[in] x  Input to convert into a string literal.
 187:lib/lufa/LUFA/Drivers/USB/Core/../../../Common/Common.h **** 				 *
 188:lib/lufa/LUFA/Drivers/USB/Core/../../../Common/Common.h **** 				 *  \return String version of the input.
 189:lib/lufa/LUFA/Drivers/USB/Core/../../../Common/Common.h **** 				 */
 190:lib/lufa/LUFA/Drivers/USB/Core/../../../Common/Common.h **** 				#define STRINGIFY(x)            #x
 191:lib/lufa/LUFA/Drivers/USB/Core/../../../Common/Common.h **** 
 192:lib/lufa/LUFA/Drivers/USB/Core/../../../Common/Common.h **** 				/** Converts the given input into a string after macro expansion, via the C Preprocessor. This 
 193:lib/lufa/LUFA/Drivers/USB/Core/../../../Common/Common.h **** 				 *  literal quotation marks around the expanded input, converting the source into a string lite
 194:lib/lufa/LUFA/Drivers/USB/Core/../../../Common/Common.h **** 				 *
 195:lib/lufa/LUFA/Drivers/USB/Core/../../../Common/Common.h **** 				 *  \param[in] x  Input to expand and convert into a string literal.
 196:lib/lufa/LUFA/Drivers/USB/Core/../../../Common/Common.h **** 				 *
 197:lib/lufa/LUFA/Drivers/USB/Core/../../../Common/Common.h **** 				 *  \return String version of the expanded input.
 198:lib/lufa/LUFA/Drivers/USB/Core/../../../Common/Common.h **** 				 */
 199:lib/lufa/LUFA/Drivers/USB/Core/../../../Common/Common.h **** 				#define STRINGIFY_EXPANDED(x)   STRINGIFY(x)
 200:lib/lufa/LUFA/Drivers/USB/Core/../../../Common/Common.h **** 			#endif
 201:lib/lufa/LUFA/Drivers/USB/Core/../../../Common/Common.h **** 
 202:lib/lufa/LUFA/Drivers/USB/Core/../../../Common/Common.h **** 			#if !defined(CONCAT) || defined(__DOXYGEN__)
 203:lib/lufa/LUFA/Drivers/USB/Core/../../../Common/Common.h **** 				/** Concatenates the given input into a single token, via the C Preprocessor.
 204:lib/lufa/LUFA/Drivers/USB/Core/../../../Common/Common.h **** 				 *
 205:lib/lufa/LUFA/Drivers/USB/Core/../../../Common/Common.h **** 				 *  \param[in] x  First item to concatenate.
 206:lib/lufa/LUFA/Drivers/USB/Core/../../../Common/Common.h **** 				 *  \param[in] y  Second item to concatenate.
 207:lib/lufa/LUFA/Drivers/USB/Core/../../../Common/Common.h **** 				 *
 208:lib/lufa/LUFA/Drivers/USB/Core/../../../Common/Common.h **** 				 *  \return Concatenated version of the input.
 209:lib/lufa/LUFA/Drivers/USB/Core/../../../Common/Common.h **** 				 */
 210:lib/lufa/LUFA/Drivers/USB/Core/../../../Common/Common.h **** 				#define CONCAT(x, y)            x ## y
 211:lib/lufa/LUFA/Drivers/USB/Core/../../../Common/Common.h **** 
 212:lib/lufa/LUFA/Drivers/USB/Core/../../../Common/Common.h **** 				/** CConcatenates the given input into a single token after macro expansion, via the C Preproce
 213:lib/lufa/LUFA/Drivers/USB/Core/../../../Common/Common.h **** 				 *
 214:lib/lufa/LUFA/Drivers/USB/Core/../../../Common/Common.h **** 				 *  \param[in] x  First item to concatenate.
 215:lib/lufa/LUFA/Drivers/USB/Core/../../../Common/Common.h **** 				 *  \param[in] y  Second item to concatenate.
 216:lib/lufa/LUFA/Drivers/USB/Core/../../../Common/Common.h **** 				 *
 217:lib/lufa/LUFA/Drivers/USB/Core/../../../Common/Common.h **** 				 *  \return Concatenated version of the expanded input.
 218:lib/lufa/LUFA/Drivers/USB/Core/../../../Common/Common.h **** 				 */
 219:lib/lufa/LUFA/Drivers/USB/Core/../../../Common/Common.h **** 				#define CONCAT_EXPANDED(x, y)   CONCAT(x, y)
 220:lib/lufa/LUFA/Drivers/USB/Core/../../../Common/Common.h **** 			#endif
 221:lib/lufa/LUFA/Drivers/USB/Core/../../../Common/Common.h **** 
 222:lib/lufa/LUFA/Drivers/USB/Core/../../../Common/Common.h **** 			#if !defined(ISR) || defined(__DOXYGEN__)
 223:lib/lufa/LUFA/Drivers/USB/Core/../../../Common/Common.h **** 				/** Macro for the definition of interrupt service routines, so that the compiler can insert the
 224:lib/lufa/LUFA/Drivers/USB/Core/../../../Common/Common.h **** 				 *  prologue and epilogue code to properly manage the interrupt routine without affecting the m
 225:lib/lufa/LUFA/Drivers/USB/Core/../../../Common/Common.h **** 				 *  state with unintentional side-effects.
 226:lib/lufa/LUFA/Drivers/USB/Core/../../../Common/Common.h **** 				 *
 227:lib/lufa/LUFA/Drivers/USB/Core/../../../Common/Common.h **** 				 *  Interrupt handlers written using this macro may still need to be registered with the microc
 228:lib/lufa/LUFA/Drivers/USB/Core/../../../Common/Common.h **** 				 *  Interrupt Controller (if present) before they will properly handle incoming interrupt event
 229:lib/lufa/LUFA/Drivers/USB/Core/../../../Common/Common.h **** 				 *
 230:lib/lufa/LUFA/Drivers/USB/Core/../../../Common/Common.h **** 				 *  \note This macro is only supplied on some architectures, where the standard library does no
 231:lib/lufa/LUFA/Drivers/USB/Core/../../../Common/Common.h **** 				 *        definition. If an existing definition exists, the alternative definition here will be
 232:lib/lufa/LUFA/Drivers/USB/Core/../../../Common/Common.h **** 				 *
 233:lib/lufa/LUFA/Drivers/USB/Core/../../../Common/Common.h **** 				 *  \ingroup Group_GlobalInt
 234:lib/lufa/LUFA/Drivers/USB/Core/../../../Common/Common.h **** 				 *
 235:lib/lufa/LUFA/Drivers/USB/Core/../../../Common/Common.h **** 				 *  \param[in] Name  Unique name of the interrupt service routine.
 236:lib/lufa/LUFA/Drivers/USB/Core/../../../Common/Common.h **** 				 */
 237:lib/lufa/LUFA/Drivers/USB/Core/../../../Common/Common.h **** 				#define ISR(Name, ...)          void Name (void) __attribute__((__interrupt__)) __VA_ARGS__; vo
 238:lib/lufa/LUFA/Drivers/USB/Core/../../../Common/Common.h **** 			#endif
 239:lib/lufa/LUFA/Drivers/USB/Core/../../../Common/Common.h **** 
 240:lib/lufa/LUFA/Drivers/USB/Core/../../../Common/Common.h **** 		/* Inline Functions: */
 241:lib/lufa/LUFA/Drivers/USB/Core/../../../Common/Common.h **** 			/** Function to reverse the individual bits in a byte - i.e. bit 7 is moved to bit 0, bit 6 to b
 242:lib/lufa/LUFA/Drivers/USB/Core/../../../Common/Common.h **** 			 *  etc.
 243:lib/lufa/LUFA/Drivers/USB/Core/../../../Common/Common.h **** 			 *
 244:lib/lufa/LUFA/Drivers/USB/Core/../../../Common/Common.h **** 			 *  \param[in] Byte  Byte of data whose bits are to be reversed.
 245:lib/lufa/LUFA/Drivers/USB/Core/../../../Common/Common.h **** 			 *
 246:lib/lufa/LUFA/Drivers/USB/Core/../../../Common/Common.h **** 			 *  \return Input data with the individual bits reversed (mirrored).
 247:lib/lufa/LUFA/Drivers/USB/Core/../../../Common/Common.h **** 			 */
 248:lib/lufa/LUFA/Drivers/USB/Core/../../../Common/Common.h **** 			static inline uint8_t BitReverse(uint8_t Byte) ATTR_WARN_UNUSED_RESULT ATTR_CONST;
 249:lib/lufa/LUFA/Drivers/USB/Core/../../../Common/Common.h **** 			static inline uint8_t BitReverse(uint8_t Byte)
 250:lib/lufa/LUFA/Drivers/USB/Core/../../../Common/Common.h **** 			{
 251:lib/lufa/LUFA/Drivers/USB/Core/../../../Common/Common.h **** 				Byte = (((Byte & 0xF0) >> 4) | ((Byte & 0x0F) << 4));
 252:lib/lufa/LUFA/Drivers/USB/Core/../../../Common/Common.h **** 				Byte = (((Byte & 0xCC) >> 2) | ((Byte & 0x33) << 2));
 253:lib/lufa/LUFA/Drivers/USB/Core/../../../Common/Common.h **** 				Byte = (((Byte & 0xAA) >> 1) | ((Byte & 0x55) << 1));
 254:lib/lufa/LUFA/Drivers/USB/Core/../../../Common/Common.h **** 
 255:lib/lufa/LUFA/Drivers/USB/Core/../../../Common/Common.h **** 				return Byte;
 256:lib/lufa/LUFA/Drivers/USB/Core/../../../Common/Common.h **** 			}
 257:lib/lufa/LUFA/Drivers/USB/Core/../../../Common/Common.h **** 
 258:lib/lufa/LUFA/Drivers/USB/Core/../../../Common/Common.h **** 			/** Function to perform a blocking delay for a specified number of milliseconds. The actual dela
 259:lib/lufa/LUFA/Drivers/USB/Core/../../../Common/Common.h **** 			 *  at a minimum the specified number of milliseconds, however due to loop overhead and internal
 260:lib/lufa/LUFA/Drivers/USB/Core/../../../Common/Common.h **** 			 *  may be slightly higher.
 261:lib/lufa/LUFA/Drivers/USB/Core/../../../Common/Common.h **** 			 *
 262:lib/lufa/LUFA/Drivers/USB/Core/../../../Common/Common.h **** 			 *  \param[in] Milliseconds  Number of milliseconds to delay
 263:lib/lufa/LUFA/Drivers/USB/Core/../../../Common/Common.h **** 			 */
 264:lib/lufa/LUFA/Drivers/USB/Core/../../../Common/Common.h **** 			static inline void Delay_MS(uint16_t Milliseconds) ATTR_ALWAYS_INLINE;
 265:lib/lufa/LUFA/Drivers/USB/Core/../../../Common/Common.h **** 			static inline void Delay_MS(uint16_t Milliseconds)
 266:lib/lufa/LUFA/Drivers/USB/Core/../../../Common/Common.h **** 			{
 267:lib/lufa/LUFA/Drivers/USB/Core/../../../Common/Common.h **** 				#if (ARCH == ARCH_AVR8)
 268:lib/lufa/LUFA/Drivers/USB/Core/../../../Common/Common.h **** 				if (GCC_IS_COMPILE_CONST(Milliseconds))
 269:lib/lufa/LUFA/Drivers/USB/Core/../../../Common/Common.h **** 				{
 270:lib/lufa/LUFA/Drivers/USB/Core/../../../Common/Common.h **** 					_delay_ms(Milliseconds);
 271:lib/lufa/LUFA/Drivers/USB/Core/../../../Common/Common.h **** 				}
 272:lib/lufa/LUFA/Drivers/USB/Core/../../../Common/Common.h **** 				else
 273:lib/lufa/LUFA/Drivers/USB/Core/../../../Common/Common.h **** 				{
 274:lib/lufa/LUFA/Drivers/USB/Core/../../../Common/Common.h **** 					while (Milliseconds--)
 275:lib/lufa/LUFA/Drivers/USB/Core/../../../Common/Common.h **** 					  _delay_ms(1);
 276:lib/lufa/LUFA/Drivers/USB/Core/../../../Common/Common.h **** 				}
 277:lib/lufa/LUFA/Drivers/USB/Core/../../../Common/Common.h **** 				#elif (ARCH == ARCH_UC3)
 278:lib/lufa/LUFA/Drivers/USB/Core/../../../Common/Common.h **** 				while (Milliseconds--)
 279:lib/lufa/LUFA/Drivers/USB/Core/../../../Common/Common.h **** 				{
 280:lib/lufa/LUFA/Drivers/USB/Core/../../../Common/Common.h **** 					__builtin_mtsr(AVR32_COUNT, 0);
 281:lib/lufa/LUFA/Drivers/USB/Core/../../../Common/Common.h **** 					while ((uint32_t)__builtin_mfsr(AVR32_COUNT) < (F_CPU / 1000));
 282:lib/lufa/LUFA/Drivers/USB/Core/../../../Common/Common.h **** 				}
 283:lib/lufa/LUFA/Drivers/USB/Core/../../../Common/Common.h **** 				#elif (ARCH == ARCH_XMEGA)
 284:lib/lufa/LUFA/Drivers/USB/Core/../../../Common/Common.h **** 				if (GCC_IS_COMPILE_CONST(Milliseconds))
 285:lib/lufa/LUFA/Drivers/USB/Core/../../../Common/Common.h **** 				{
 286:lib/lufa/LUFA/Drivers/USB/Core/../../../Common/Common.h **** 					_delay_ms(Milliseconds);
 287:lib/lufa/LUFA/Drivers/USB/Core/../../../Common/Common.h **** 				}
 288:lib/lufa/LUFA/Drivers/USB/Core/../../../Common/Common.h **** 				else
 289:lib/lufa/LUFA/Drivers/USB/Core/../../../Common/Common.h **** 				{
 290:lib/lufa/LUFA/Drivers/USB/Core/../../../Common/Common.h **** 					while (Milliseconds--)
 291:lib/lufa/LUFA/Drivers/USB/Core/../../../Common/Common.h **** 					  _delay_ms(1);
 292:lib/lufa/LUFA/Drivers/USB/Core/../../../Common/Common.h **** 				}
 293:lib/lufa/LUFA/Drivers/USB/Core/../../../Common/Common.h **** 				#endif
 294:lib/lufa/LUFA/Drivers/USB/Core/../../../Common/Common.h **** 			}
 295:lib/lufa/LUFA/Drivers/USB/Core/../../../Common/Common.h **** 
 296:lib/lufa/LUFA/Drivers/USB/Core/../../../Common/Common.h **** 			/** Retrieves a mask which contains the current state of the global interrupts for the device. T
 297:lib/lufa/LUFA/Drivers/USB/Core/../../../Common/Common.h **** 			 *  value can be stored before altering the global interrupt enable state, before restoring the
 298:lib/lufa/LUFA/Drivers/USB/Core/../../../Common/Common.h **** 			 *  flag(s) back to their previous values after a critical section using \ref SetGlobalInterrupt
 299:lib/lufa/LUFA/Drivers/USB/Core/../../../Common/Common.h **** 			 *
 300:lib/lufa/LUFA/Drivers/USB/Core/../../../Common/Common.h **** 			 *  \ingroup Group_GlobalInt
 301:lib/lufa/LUFA/Drivers/USB/Core/../../../Common/Common.h **** 			 *
 302:lib/lufa/LUFA/Drivers/USB/Core/../../../Common/Common.h **** 			 *  \return  Mask containing the current Global Interrupt Enable Mask bit(s).
 303:lib/lufa/LUFA/Drivers/USB/Core/../../../Common/Common.h **** 			 */
 304:lib/lufa/LUFA/Drivers/USB/Core/../../../Common/Common.h **** 			static inline uint_reg_t GetGlobalInterruptMask(void) ATTR_ALWAYS_INLINE ATTR_WARN_UNUSED_RESULT
 305:lib/lufa/LUFA/Drivers/USB/Core/../../../Common/Common.h **** 			static inline uint_reg_t GetGlobalInterruptMask(void)
 306:lib/lufa/LUFA/Drivers/USB/Core/../../../Common/Common.h **** 			{
 307:lib/lufa/LUFA/Drivers/USB/Core/../../../Common/Common.h **** 				GCC_MEMORY_BARRIER();
 434               		.loc 4 307 0
 308:lib/lufa/LUFA/Drivers/USB/Core/../../../Common/Common.h **** 
 309:lib/lufa/LUFA/Drivers/USB/Core/../../../Common/Common.h **** 				#if (ARCH == ARCH_AVR8)
 310:lib/lufa/LUFA/Drivers/USB/Core/../../../Common/Common.h **** 				return SREG;
 435               		.loc 4 310 0
 436 019e 4FB7      		in r20,__SREG__
 437               	.LBE227:
 438               	.LBE226:
 439               	.LBB228:
 440               	.LBB229:
 311:lib/lufa/LUFA/Drivers/USB/Core/../../../Common/Common.h **** 				#elif (ARCH == ARCH_UC3)
 312:lib/lufa/LUFA/Drivers/USB/Core/../../../Common/Common.h **** 				return __builtin_mfsr(AVR32_SR);
 313:lib/lufa/LUFA/Drivers/USB/Core/../../../Common/Common.h **** 				#elif (ARCH == ARCH_XMEGA)
 314:lib/lufa/LUFA/Drivers/USB/Core/../../../Common/Common.h **** 				return SREG;
 315:lib/lufa/LUFA/Drivers/USB/Core/../../../Common/Common.h **** 				#endif
 316:lib/lufa/LUFA/Drivers/USB/Core/../../../Common/Common.h **** 			}
 317:lib/lufa/LUFA/Drivers/USB/Core/../../../Common/Common.h **** 
 318:lib/lufa/LUFA/Drivers/USB/Core/../../../Common/Common.h **** 			/** Sets the global interrupt enable state of the microcontroller to the mask passed into the fu
 319:lib/lufa/LUFA/Drivers/USB/Core/../../../Common/Common.h **** 			 *  This can be combined with \ref GetGlobalInterruptMask() to save and restore the Global Inter
 320:lib/lufa/LUFA/Drivers/USB/Core/../../../Common/Common.h **** 			 *  Mask bit(s) of the device after a critical section has completed.
 321:lib/lufa/LUFA/Drivers/USB/Core/../../../Common/Common.h **** 			 *
 322:lib/lufa/LUFA/Drivers/USB/Core/../../../Common/Common.h **** 			 *  \ingroup Group_GlobalInt
 323:lib/lufa/LUFA/Drivers/USB/Core/../../../Common/Common.h **** 			 *
 324:lib/lufa/LUFA/Drivers/USB/Core/../../../Common/Common.h **** 			 *  \param[in] GlobalIntState  Global Interrupt Enable Mask value to use
 325:lib/lufa/LUFA/Drivers/USB/Core/../../../Common/Common.h **** 			 */
 326:lib/lufa/LUFA/Drivers/USB/Core/../../../Common/Common.h **** 			static inline void SetGlobalInterruptMask(const uint_reg_t GlobalIntState) ATTR_ALWAYS_INLINE;
 327:lib/lufa/LUFA/Drivers/USB/Core/../../../Common/Common.h **** 			static inline void SetGlobalInterruptMask(const uint_reg_t GlobalIntState)
 328:lib/lufa/LUFA/Drivers/USB/Core/../../../Common/Common.h **** 			{
 329:lib/lufa/LUFA/Drivers/USB/Core/../../../Common/Common.h **** 				GCC_MEMORY_BARRIER();
 330:lib/lufa/LUFA/Drivers/USB/Core/../../../Common/Common.h **** 
 331:lib/lufa/LUFA/Drivers/USB/Core/../../../Common/Common.h **** 				#if (ARCH == ARCH_AVR8)
 332:lib/lufa/LUFA/Drivers/USB/Core/../../../Common/Common.h **** 				SREG = GlobalIntState;
 333:lib/lufa/LUFA/Drivers/USB/Core/../../../Common/Common.h **** 				#elif (ARCH == ARCH_UC3)
 334:lib/lufa/LUFA/Drivers/USB/Core/../../../Common/Common.h **** 				if (GlobalIntState & AVR32_SR_GM)
 335:lib/lufa/LUFA/Drivers/USB/Core/../../../Common/Common.h **** 				  __builtin_ssrf(AVR32_SR_GM_OFFSET);
 336:lib/lufa/LUFA/Drivers/USB/Core/../../../Common/Common.h **** 				else
 337:lib/lufa/LUFA/Drivers/USB/Core/../../../Common/Common.h **** 				  __builtin_csrf(AVR32_SR_GM_OFFSET);
 338:lib/lufa/LUFA/Drivers/USB/Core/../../../Common/Common.h **** 				#elif (ARCH == ARCH_XMEGA)
 339:lib/lufa/LUFA/Drivers/USB/Core/../../../Common/Common.h **** 				SREG = GlobalIntState;
 340:lib/lufa/LUFA/Drivers/USB/Core/../../../Common/Common.h **** 				#endif
 341:lib/lufa/LUFA/Drivers/USB/Core/../../../Common/Common.h **** 
 342:lib/lufa/LUFA/Drivers/USB/Core/../../../Common/Common.h **** 				GCC_MEMORY_BARRIER();
 343:lib/lufa/LUFA/Drivers/USB/Core/../../../Common/Common.h **** 			}
 344:lib/lufa/LUFA/Drivers/USB/Core/../../../Common/Common.h **** 
 345:lib/lufa/LUFA/Drivers/USB/Core/../../../Common/Common.h **** 			/** Enables global interrupt handling for the device, allowing interrupts to be handled.
 346:lib/lufa/LUFA/Drivers/USB/Core/../../../Common/Common.h **** 			 *
 347:lib/lufa/LUFA/Drivers/USB/Core/../../../Common/Common.h **** 			 *  \ingroup Group_GlobalInt
 348:lib/lufa/LUFA/Drivers/USB/Core/../../../Common/Common.h **** 			 */
 349:lib/lufa/LUFA/Drivers/USB/Core/../../../Common/Common.h **** 			static inline void GlobalInterruptEnable(void) ATTR_ALWAYS_INLINE;
 350:lib/lufa/LUFA/Drivers/USB/Core/../../../Common/Common.h **** 			static inline void GlobalInterruptEnable(void)
 351:lib/lufa/LUFA/Drivers/USB/Core/../../../Common/Common.h **** 			{
 352:lib/lufa/LUFA/Drivers/USB/Core/../../../Common/Common.h **** 				GCC_MEMORY_BARRIER();
 353:lib/lufa/LUFA/Drivers/USB/Core/../../../Common/Common.h **** 
 354:lib/lufa/LUFA/Drivers/USB/Core/../../../Common/Common.h **** 				#if (ARCH == ARCH_AVR8)
 355:lib/lufa/LUFA/Drivers/USB/Core/../../../Common/Common.h **** 				sei();
 356:lib/lufa/LUFA/Drivers/USB/Core/../../../Common/Common.h **** 				#elif (ARCH == ARCH_UC3)
 357:lib/lufa/LUFA/Drivers/USB/Core/../../../Common/Common.h **** 				__builtin_csrf(AVR32_SR_GM_OFFSET);
 358:lib/lufa/LUFA/Drivers/USB/Core/../../../Common/Common.h **** 				#elif (ARCH == ARCH_XMEGA)
 359:lib/lufa/LUFA/Drivers/USB/Core/../../../Common/Common.h **** 				sei();
 360:lib/lufa/LUFA/Drivers/USB/Core/../../../Common/Common.h **** 				#endif
 361:lib/lufa/LUFA/Drivers/USB/Core/../../../Common/Common.h **** 
 362:lib/lufa/LUFA/Drivers/USB/Core/../../../Common/Common.h **** 				GCC_MEMORY_BARRIER();
 363:lib/lufa/LUFA/Drivers/USB/Core/../../../Common/Common.h **** 			}
 364:lib/lufa/LUFA/Drivers/USB/Core/../../../Common/Common.h **** 
 365:lib/lufa/LUFA/Drivers/USB/Core/../../../Common/Common.h **** 			/** Disabled global interrupt handling for the device, preventing interrupts from being handled.
 366:lib/lufa/LUFA/Drivers/USB/Core/../../../Common/Common.h **** 			 *
 367:lib/lufa/LUFA/Drivers/USB/Core/../../../Common/Common.h **** 			 *  \ingroup Group_GlobalInt
 368:lib/lufa/LUFA/Drivers/USB/Core/../../../Common/Common.h **** 			 */
 369:lib/lufa/LUFA/Drivers/USB/Core/../../../Common/Common.h **** 			static inline void GlobalInterruptDisable(void) ATTR_ALWAYS_INLINE;
 370:lib/lufa/LUFA/Drivers/USB/Core/../../../Common/Common.h **** 			static inline void GlobalInterruptDisable(void)
 371:lib/lufa/LUFA/Drivers/USB/Core/../../../Common/Common.h **** 			{
 372:lib/lufa/LUFA/Drivers/USB/Core/../../../Common/Common.h **** 				GCC_MEMORY_BARRIER();
 441               		.loc 4 372 0
 373:lib/lufa/LUFA/Drivers/USB/Core/../../../Common/Common.h **** 
 374:lib/lufa/LUFA/Drivers/USB/Core/../../../Common/Common.h **** 				#if (ARCH == ARCH_AVR8)
 375:lib/lufa/LUFA/Drivers/USB/Core/../../../Common/Common.h **** 				cli();
 442               		.loc 4 375 0
 443               	/* #APP */
 444               	 ;  375 "lib/lufa/LUFA/Drivers/USB/Core/../../../Common/Common.h" 1
 445 01a0 F894      		cli
 446               	 ;  0 "" 2
 376:lib/lufa/LUFA/Drivers/USB/Core/../../../Common/Common.h **** 				#elif (ARCH == ARCH_UC3)
 377:lib/lufa/LUFA/Drivers/USB/Core/../../../Common/Common.h **** 				__builtin_ssrf(AVR32_SR_GM_OFFSET);
 378:lib/lufa/LUFA/Drivers/USB/Core/../../../Common/Common.h **** 				#elif (ARCH == ARCH_XMEGA)
 379:lib/lufa/LUFA/Drivers/USB/Core/../../../Common/Common.h **** 				cli();
 380:lib/lufa/LUFA/Drivers/USB/Core/../../../Common/Common.h **** 				#endif
 381:lib/lufa/LUFA/Drivers/USB/Core/../../../Common/Common.h **** 
 382:lib/lufa/LUFA/Drivers/USB/Core/../../../Common/Common.h **** 				GCC_MEMORY_BARRIER();
 447               		.loc 4 382 0
 448               	.LVL43:
 449               	/* #NOAPP */
 450 01a2 DE01      		movw r26,r28
 451 01a4 1396      		adiw r26,3
 452               	.LBE229:
 453               	.LBE228:
 454               	.LBB230:
 222:lib/lufa/LUFA/Drivers/USB/Core/AVR8/../AVR8/Device_AVR8.h **** 			}
 223:lib/lufa/LUFA/Drivers/USB/Core/AVR8/../AVR8/Device_AVR8.h **** 
 224:lib/lufa/LUFA/Drivers/USB/Core/AVR8/../AVR8/Device_AVR8.h **** 			static inline bool USB_Device_IsAddressSet(void) ATTR_ALWAYS_INLINE ATTR_WARN_UNUSED_RESULT;
 225:lib/lufa/LUFA/Drivers/USB/Core/AVR8/../AVR8/Device_AVR8.h **** 			static inline bool USB_Device_IsAddressSet(void)
 226:lib/lufa/LUFA/Drivers/USB/Core/AVR8/../AVR8/Device_AVR8.h **** 			{
 227:lib/lufa/LUFA/Drivers/USB/Core/AVR8/../AVR8/Device_AVR8.h **** 				return (UDADDR & (1 << ADDEN));
 228:lib/lufa/LUFA/Drivers/USB/Core/AVR8/../AVR8/Device_AVR8.h **** 			}
 229:lib/lufa/LUFA/Drivers/USB/Core/AVR8/../AVR8/Device_AVR8.h **** 
 230:lib/lufa/LUFA/Drivers/USB/Core/AVR8/../AVR8/Device_AVR8.h **** 			#if (USE_INTERNAL_SERIAL != NO_DESCRIPTOR)
 231:lib/lufa/LUFA/Drivers/USB/Core/AVR8/../AVR8/Device_AVR8.h **** 			static inline void USB_Device_GetSerialString(uint16_t* const UnicodeString) ATTR_NON_NULL_PTR_A
 232:lib/lufa/LUFA/Drivers/USB/Core/AVR8/../AVR8/Device_AVR8.h **** 			static inline void USB_Device_GetSerialString(uint16_t* const UnicodeString)
 233:lib/lufa/LUFA/Drivers/USB/Core/AVR8/../AVR8/Device_AVR8.h **** 			{
 234:lib/lufa/LUFA/Drivers/USB/Core/AVR8/../AVR8/Device_AVR8.h **** 				uint_reg_t CurrentGlobalInt = GetGlobalInterruptMask();
 235:lib/lufa/LUFA/Drivers/USB/Core/AVR8/../AVR8/Device_AVR8.h **** 				GlobalInterruptDisable();
 236:lib/lufa/LUFA/Drivers/USB/Core/AVR8/../AVR8/Device_AVR8.h **** 
 237:lib/lufa/LUFA/Drivers/USB/Core/AVR8/../AVR8/Device_AVR8.h **** 				uint8_t SigReadAddress = INTERNAL_SERIAL_START_ADDRESS;
 238:lib/lufa/LUFA/Drivers/USB/Core/AVR8/../AVR8/Device_AVR8.h **** 
 239:lib/lufa/LUFA/Drivers/USB/Core/AVR8/../AVR8/Device_AVR8.h **** 				for (uint8_t SerialCharNum = 0; SerialCharNum < (INTERNAL_SERIAL_LENGTH_BITS / 4); SerialCharNu
 455               		.loc 3 239 0
 456 01a6 20E0      		ldi r18,0
 457               	.LBE230:
 237:lib/lufa/LUFA/Drivers/USB/Core/AVR8/../AVR8/Device_AVR8.h **** 
 458               		.loc 3 237 0
 459 01a8 3EE0      		ldi r19,lo8(14)
 460               	.LBB233:
 461               	.LBB231:
 462               	.LBB232:
 240:lib/lufa/LUFA/Drivers/USB/Core/AVR8/../AVR8/Device_AVR8.h **** 				{
 241:lib/lufa/LUFA/Drivers/USB/Core/AVR8/../AVR8/Device_AVR8.h **** 					uint8_t SerialByte = boot_signature_byte_get(SigReadAddress);
 463               		.loc 3 241 0
 464 01aa 51E2      		ldi r21,lo8(33)
 465               	.LVL44:
 466               	.L27:
 467 01ac E32F      		mov r30,r19
 468 01ae F0E0      		ldi r31,0
 469               	/* #APP */
 470               	 ;  241 "lib/lufa/LUFA/Drivers/USB/Core/AVR8/../AVR8/Device_AVR8.h" 1
 471 01b0 5093 5700 		sts 87, r21
 472 01b4 E491      		lpm r30, Z
 473               		
 474               	 ;  0 "" 2
 475               	.LVL45:
 476               	/* #NOAPP */
 477               	.LBE232:
 242:lib/lufa/LUFA/Drivers/USB/Core/AVR8/../AVR8/Device_AVR8.h **** 
 243:lib/lufa/LUFA/Drivers/USB/Core/AVR8/../AVR8/Device_AVR8.h **** 					if (SerialCharNum & 0x01)
 478               		.loc 3 243 0
 479 01b6 20FF      		sbrs r18,0
 480 01b8 00C0      		rjmp .L24
 244:lib/lufa/LUFA/Drivers/USB/Core/AVR8/../AVR8/Device_AVR8.h **** 					{
 245:lib/lufa/LUFA/Drivers/USB/Core/AVR8/../AVR8/Device_AVR8.h **** 						SerialByte >>= 4;
 481               		.loc 3 245 0
 482 01ba E295      		swap r30
 483               	.LVL46:
 484 01bc EF70      		andi r30,lo8(15)
 485               	.LVL47:
 246:lib/lufa/LUFA/Drivers/USB/Core/AVR8/../AVR8/Device_AVR8.h **** 						SigReadAddress++;
 486               		.loc 3 246 0
 487 01be 3F5F      		subi r19,lo8(-(1))
 488               	.LVL48:
 489               	.L24:
 247:lib/lufa/LUFA/Drivers/USB/Core/AVR8/../AVR8/Device_AVR8.h **** 					}
 248:lib/lufa/LUFA/Drivers/USB/Core/AVR8/../AVR8/Device_AVR8.h **** 
 249:lib/lufa/LUFA/Drivers/USB/Core/AVR8/../AVR8/Device_AVR8.h **** 					SerialByte &= 0x0F;
 490               		.loc 3 249 0
 491 01c0 EF70      		andi r30,lo8(15)
 492               	.LVL49:
 493 01c2 8E2F      		mov r24,r30
 494 01c4 90E0      		ldi r25,0
 250:lib/lufa/LUFA/Drivers/USB/Core/AVR8/../AVR8/Device_AVR8.h **** 
 251:lib/lufa/LUFA/Drivers/USB/Core/AVR8/../AVR8/Device_AVR8.h **** 					UnicodeString[SerialCharNum] = cpu_to_le16((SerialByte >= 10) ?
 495               		.loc 3 251 0
 496 01c6 EA30      		cpi r30,lo8(10)
 497 01c8 00F0      		brlo .L25
 498 01ca C796      		adiw r24,55
 499 01cc 00C0      		rjmp .L26
 500               	.LVL50:
 501               	.L25:
 502 01ce C096      		adiw r24,48
 503               	.LVL51:
 504               	.L26:
 505 01d0 8D93      		st X+,r24
 506 01d2 9D93      		st X+,r25
 507               	.LBE231:
 239:lib/lufa/LUFA/Drivers/USB/Core/AVR8/../AVR8/Device_AVR8.h **** 				{
 508               		.loc 3 239 0
 509 01d4 2F5F      		subi r18,lo8(-(1))
 510               	.LVL52:
 511 01d6 2431      		cpi r18,lo8(20)
 512 01d8 01F4      		brne .L27
 513               	.LVL53:
 514               	.LBE233:
 515               	.LBB234:
 516               	.LBB235:
 329:lib/lufa/LUFA/Drivers/USB/Core/../../../Common/Common.h **** 
 517               		.loc 4 329 0
 332:lib/lufa/LUFA/Drivers/USB/Core/../../../Common/Common.h **** 				#elif (ARCH == ARCH_UC3)
 518               		.loc 4 332 0
 519 01da 4FBF      		out __SREG__,r20
 520               	.LVL54:
 342:lib/lufa/LUFA/Drivers/USB/Core/../../../Common/Common.h **** 			}
 521               		.loc 4 342 0
 522               	.LVL55:
 523               	.LBE235:
 524               	.LBE234:
 525               	.LBE225:
 526               	.LBE224:
 527               	.LBB236:
 528               	.LBB237:
 444:lib/lufa/LUFA/Drivers/USB/Core/AVR8/../AVR8/Endpoint_AVR8.h **** 			}
 529               		.loc 2 444 0
 530 01dc 8091 E800 		lds r24,232
 531 01e0 877F      		andi r24,lo8(-9)
 532 01e2 8093 E800 		sts 232,r24
 533               	.LBE237:
 534               	.LBE236:
 234:lib/lufa/LUFA/Drivers/USB/Core/DeviceStandardReq.c **** 	Endpoint_ClearOUT();
 535               		.loc 1 234 0
 536 01e6 6AE2      		ldi r22,lo8(42)
 537 01e8 70E0      		ldi r23,0
 538 01ea CE01      		movw r24,r28
 539 01ec 0196      		adiw r24,1
 540 01ee 0E94 0000 		call Endpoint_Write_Control_Stream_LE
 541               	.LVL56:
 542 01f2 00C0      		rjmp .L62
 543               	.LVL57:
 544               	.L23:
 545               	.LBE223:
 546               	.LBE222:
 257:lib/lufa/LUFA/Drivers/USB/Core/DeviceStandardReq.c **** 	                                                 &DescriptorPointer
 547               		.loc 1 257 0
 548 01f4 6091 0000 		lds r22,USB_ControlRequest+4
 549 01f8 7091 0000 		lds r23,USB_ControlRequest+4+1
 550 01fc AE01      		movw r20,r28
 551 01fe 4F5F      		subi r20,-1
 552 0200 5F4F      		sbci r21,-1
 553 0202 0E94 0000 		call CALLBACK_USB_GetDescriptor
 554               	.LVL58:
 555 0206 BC01      		movw r22,r24
 556               	.LVL59:
 557 0208 892B      		or r24,r25
 558 020a 01F4      		brne .+2
 559 020c 00C0      		rjmp .L3
 560               	.LBB238:
 561               	.LBB239:
 444:lib/lufa/LUFA/Drivers/USB/Core/AVR8/../AVR8/Endpoint_AVR8.h **** 			}
 562               		.loc 2 444 0
 563 020e 9091 E800 		lds r25,232
 564 0212 977F      		andi r25,lo8(-9)
 565 0214 9093 E800 		sts 232,r25
 566               	.LBE239:
 567               	.LBE238:
 275:lib/lufa/LUFA/Drivers/USB/Core/DeviceStandardReq.c **** 	#else
 568               		.loc 1 275 0
 569 0218 8981      		ldd r24,Y+1
 570 021a 9A81      		ldd r25,Y+2
 571 021c 0E94 0000 		call Endpoint_Write_Control_PStream_LE
 572               	.LVL60:
 573               	.L62:
 574               	.LBB240:
 575               	.LBB241:
 471:lib/lufa/LUFA/Drivers/USB/Core/AVR8/../AVR8/Endpoint_AVR8.h **** 				#else
 576               		.loc 2 471 0
 577 0220 8091 E800 		lds r24,232
 578 0224 8B77      		andi r24,lo8(123)
 579 0226 8093 E800 		sts 232,r24
 580 022a 00C0      		rjmp .L3
 581               	.LVL61:
 582               	.L9:
 583               	.LBE241:
 584               	.LBE240:
 585               	.LBE221:
 586               	.LBE220:
 103:lib/lufa/LUFA/Drivers/USB/Core/DeviceStandardReq.c **** 				  USB_Device_GetConfiguration();
 587               		.loc 1 103 0
 588 022c 8038      		cpi r24,lo8(-128)
 589 022e 01F4      		brne .L3
 590               	.LBB242:
 591               	.LBB243:
 592               	.LBB244:
 593               	.LBB245:
 444:lib/lufa/LUFA/Drivers/USB/Core/AVR8/../AVR8/Endpoint_AVR8.h **** 			}
 594               		.loc 2 444 0
 595 0230 8091 E800 		lds r24,232
 596               	.LVL62:
 597 0234 877F      		andi r24,lo8(-9)
 598 0236 8093 E800 		sts 232,r24
 599               	.LVL63:
 600               	.LBE245:
 601               	.LBE244:
 212:lib/lufa/LUFA/Drivers/USB/Core/DeviceStandardReq.c **** 	Endpoint_ClearIN();
 602               		.loc 1 212 0
 603 023a 8091 0000 		lds r24,USB_Device_ConfigurationNumber
 604               	.LVL64:
 605               	.LBB246:
 606               	.LBB247:
 554:lib/lufa/LUFA/Drivers/USB/Core/AVR8/../AVR8/Endpoint_AVR8.h **** 			}
 607               		.loc 2 554 0
 608 023e 8093 F100 		sts 241,r24
 609               	.LVL65:
 610               	.L63:
 611               	.LBE247:
 612               	.LBE246:
 613               	.LBB248:
 614               	.LBB249:
 456:lib/lufa/LUFA/Drivers/USB/Core/AVR8/../AVR8/Endpoint_AVR8.h **** 				#else
 615               		.loc 2 456 0
 616 0242 8091 E800 		lds r24,232
 617 0246 8E77      		andi r24,lo8(126)
 618 0248 00C0      		rjmp .L61
 619               	.LVL66:
 620               	.L10:
 621               	.LBE249:
 622               	.LBE248:
 623               	.LBE243:
 624               	.LBE242:
 108:lib/lufa/LUFA/Drivers/USB/Core/DeviceStandardReq.c **** 				  USB_Device_SetConfiguration();
 625               		.loc 1 108 0
 626 024a 8111      		cpse r24,__zero_reg__
 627 024c 00C0      		rjmp .L3
 628               	.LBB250:
 629               	.LBB251:
 145:lib/lufa/LUFA/Drivers/USB/Core/DeviceStandardReq.c **** 	  return;
 630               		.loc 1 145 0
 631 024e 8091 0000 		lds r24,USB_ControlRequest+2
 632 0252 9091 0000 		lds r25,USB_ControlRequest+2+1
 633               	.LVL67:
 634 0256 9927      		clr r25
 635 0258 0297      		sbiw r24,2
 636 025a 04F4      		brge .L3
 637               	.LBB252:
 638               	.LBB253:
 444:lib/lufa/LUFA/Drivers/USB/Core/AVR8/../AVR8/Endpoint_AVR8.h **** 			}
 639               		.loc 2 444 0
 640 025c 8091 E800 		lds r24,232
 641 0260 877F      		andi r24,lo8(-9)
 642 0262 8093 E800 		sts 232,r24
 643               	.LVL68:
 644               	.LBE253:
 645               	.LBE252:
 196:lib/lufa/LUFA/Drivers/USB/Core/DeviceStandardReq.c **** 
 646               		.loc 1 196 0
 647 0266 8091 0000 		lds r24,USB_ControlRequest+2
 648 026a 8093 0000 		sts USB_Device_ConfigurationNumber,r24
 198:lib/lufa/LUFA/Drivers/USB/Core/DeviceStandardReq.c **** 
 649               		.loc 1 198 0
 650 026e 0E94 0000 		call Endpoint_ClearStatusStage
 651               	.LVL69:
 200:lib/lufa/LUFA/Drivers/USB/Core/DeviceStandardReq.c **** 	  USB_DeviceState = DEVICE_STATE_Configured;
 652               		.loc 1 200 0
 653 0272 8091 0000 		lds r24,USB_Device_ConfigurationNumber
 654 0276 8111      		cpse r24,__zero_reg__
 655 0278 00C0      		rjmp .L34
 656               	.LBB254:
 657               	.LBB255:
 227:lib/lufa/LUFA/Drivers/USB/Core/AVR8/../AVR8/Device_AVR8.h **** 			}
 658               		.loc 3 227 0
 659 027a 8091 E300 		lds r24,227
 660               	.LBE255:
 661               	.LBE254:
 203:lib/lufa/LUFA/Drivers/USB/Core/DeviceStandardReq.c **** 
 662               		.loc 1 203 0
 663 027e 87FD      		sbrc r24,7
 664 0280 00C0      		rjmp .L34
 665 0282 81E0      		ldi r24,lo8(1)
 666 0284 00C0      		rjmp .L31
 667               	.L34:
 668 0286 84E0      		ldi r24,lo8(4)
 669               	.L31:
 670 0288 8093 0000 		sts USB_DeviceState,r24
 205:lib/lufa/LUFA/Drivers/USB/Core/DeviceStandardReq.c **** }
 671               		.loc 1 205 0
 672 028c 0E94 0000 		call EVENT_USB_Device_ConfigurationChanged
 673               	.LVL70:
 674               	.L3:
 675               	.LBE251:
 676               	.LBE250:
 677               	.LBE177:
 678               	.LBB256:
 679               	.LBB257:
 431:lib/lufa/LUFA/Drivers/USB/Core/AVR8/../AVR8/Endpoint_AVR8.h **** 			}
 680               		.loc 2 431 0
 681 0290 8091 E800 		lds r24,232
 682               	.LBE257:
 683               	.LBE256:
 118:lib/lufa/LUFA/Drivers/USB/Core/DeviceStandardReq.c **** 	{
 684               		.loc 1 118 0
 685 0294 83FF      		sbrs r24,3
 686 0296 00C0      		rjmp .L1
 687               	.LBB258:
 688               	.LBB259:
 444:lib/lufa/LUFA/Drivers/USB/Core/AVR8/../AVR8/Endpoint_AVR8.h **** 			}
 689               		.loc 2 444 0
 690 0298 8091 E800 		lds r24,232
 691 029c 877F      		andi r24,lo8(-9)
 692 029e 8093 E800 		sts 232,r24
 693               	.LBE259:
 694               	.LBE258:
 695               	.LBB260:
 696               	.LBB261:
 491:lib/lufa/LUFA/Drivers/USB/Core/AVR8/../AVR8/Endpoint_AVR8.h **** 			}
 697               		.loc 2 491 0
 698 02a2 8091 EB00 		lds r24,235
 699 02a6 8062      		ori r24,lo8(32)
 700 02a8 8093 EB00 		sts 235,r24
 701               	.L1:
 702               	/* epilogue start */
 703               	.LBE261:
 704               	.LBE260:
 123:lib/lufa/LUFA/Drivers/USB/Core/DeviceStandardReq.c **** 
 705               		.loc 1 123 0
 706 02ac AA96      		adiw r28,42
 707 02ae 0FB6      		in __tmp_reg__,__SREG__
 708 02b0 F894      		cli
 709 02b2 DEBF      		out __SP_H__,r29
 710 02b4 0FBE      		out __SREG__,__tmp_reg__
 711 02b6 CDBF      		out __SP_L__,r28
 712 02b8 DF91      		pop r29
 713 02ba CF91      		pop r28
 714 02bc 1F91      		pop r17
 715 02be 0895      		ret
 716               		.cfi_endproc
 717               	.LFE85:
 719               		.comm	USB_Device_RemoteWakeupEnabled,1,1
 720               		.comm	USB_Device_CurrentlySelfPowered,1,1
 721               		.comm	USB_Device_ConfigurationNumber,1,1
 722               		.text
 723               	.Letext0:
 724               		.file 5 "d:\\program files\\msys2\\home\\bnguy\\qmk_utils\\avr8-gnu-toolchain\\avr\\include\\stdin
 725               		.file 6 "lib/lufa/LUFA/Drivers/USB/Core/StdDescriptors.h"
 726               		.file 7 "lib/lufa/LUFA/Drivers/USB/Core/StdRequestType.h"
 727               		.file 8 "lib/lufa/LUFA/Drivers/USB/Core/AVR8/../Device.h"
 728               		.file 9 "lib/lufa/LUFA/Drivers/USB/Core/USBTask.h"
 729               		.file 10 "lib/lufa/LUFA/Drivers/USB/Core/AVR8/../AVR8/EndpointStream_AVR8.h"
 730               		.file 11 "lib/lufa/LUFA/Drivers/USB/Core/Events.h"