   1               		.file	"HIDParser.c"
   2               	__SP_H__ = 0x3e
   3               	__SP_L__ = 0x3d
   4               	__SREG__ = 0x3f
   5               	__tmp_reg__ = 0
   6               	__zero_reg__ = 1
   7               		.text
   8               	.Ltext0:
   9               		.cfi_sections	.debug_frame
  10               		.section	.text.USB_ProcessHIDReport,"ax",@progbits
  11               	.global	USB_ProcessHIDReport
  13               	USB_ProcessHIDReport:
  14               	.LFB16:
  15               		.file 1 "lib/lufa/LUFA/Drivers/USB/Class/Common/HIDParser.c"
   1:lib/lufa/LUFA/Drivers/USB/Class/Common/HIDParser.c **** /*
   2:lib/lufa/LUFA/Drivers/USB/Class/Common/HIDParser.c ****              LUFA Library
   3:lib/lufa/LUFA/Drivers/USB/Class/Common/HIDParser.c ****      Copyright (C) Dean Camera, 2017.
   4:lib/lufa/LUFA/Drivers/USB/Class/Common/HIDParser.c **** 
   5:lib/lufa/LUFA/Drivers/USB/Class/Common/HIDParser.c ****   dean [at] fourwalledcubicle [dot] com
   6:lib/lufa/LUFA/Drivers/USB/Class/Common/HIDParser.c ****            www.lufa-lib.org
   7:lib/lufa/LUFA/Drivers/USB/Class/Common/HIDParser.c **** */
   8:lib/lufa/LUFA/Drivers/USB/Class/Common/HIDParser.c **** 
   9:lib/lufa/LUFA/Drivers/USB/Class/Common/HIDParser.c **** /*
  10:lib/lufa/LUFA/Drivers/USB/Class/Common/HIDParser.c ****   Copyright 2017  Dean Camera (dean [at] fourwalledcubicle [dot] com)
  11:lib/lufa/LUFA/Drivers/USB/Class/Common/HIDParser.c **** 
  12:lib/lufa/LUFA/Drivers/USB/Class/Common/HIDParser.c ****   Permission to use, copy, modify, distribute, and sell this
  13:lib/lufa/LUFA/Drivers/USB/Class/Common/HIDParser.c ****   software and its documentation for any purpose is hereby granted
  14:lib/lufa/LUFA/Drivers/USB/Class/Common/HIDParser.c ****   without fee, provided that the above copyright notice appear in
  15:lib/lufa/LUFA/Drivers/USB/Class/Common/HIDParser.c ****   all copies and that both that the copyright notice and this
  16:lib/lufa/LUFA/Drivers/USB/Class/Common/HIDParser.c ****   permission notice and warranty disclaimer appear in supporting
  17:lib/lufa/LUFA/Drivers/USB/Class/Common/HIDParser.c ****   documentation, and that the name of the author not be used in
  18:lib/lufa/LUFA/Drivers/USB/Class/Common/HIDParser.c ****   advertising or publicity pertaining to distribution of the
  19:lib/lufa/LUFA/Drivers/USB/Class/Common/HIDParser.c ****   software without specific, written prior permission.
  20:lib/lufa/LUFA/Drivers/USB/Class/Common/HIDParser.c **** 
  21:lib/lufa/LUFA/Drivers/USB/Class/Common/HIDParser.c ****   The author disclaims all warranties with regard to this
  22:lib/lufa/LUFA/Drivers/USB/Class/Common/HIDParser.c ****   software, including all implied warranties of merchantability
  23:lib/lufa/LUFA/Drivers/USB/Class/Common/HIDParser.c ****   and fitness.  In no event shall the author be liable for any
  24:lib/lufa/LUFA/Drivers/USB/Class/Common/HIDParser.c ****   special, indirect or consequential damages or any damages
  25:lib/lufa/LUFA/Drivers/USB/Class/Common/HIDParser.c ****   whatsoever resulting from loss of use, data or profits, whether
  26:lib/lufa/LUFA/Drivers/USB/Class/Common/HIDParser.c ****   in an action of contract, negligence or other tortious action,
  27:lib/lufa/LUFA/Drivers/USB/Class/Common/HIDParser.c ****   arising out of or in connection with the use or performance of
  28:lib/lufa/LUFA/Drivers/USB/Class/Common/HIDParser.c ****   this software.
  29:lib/lufa/LUFA/Drivers/USB/Class/Common/HIDParser.c **** */
  30:lib/lufa/LUFA/Drivers/USB/Class/Common/HIDParser.c **** 
  31:lib/lufa/LUFA/Drivers/USB/Class/Common/HIDParser.c **** #define  __INCLUDE_FROM_USB_DRIVER
  32:lib/lufa/LUFA/Drivers/USB/Class/Common/HIDParser.c **** #define  __INCLUDE_FROM_HID_DRIVER
  33:lib/lufa/LUFA/Drivers/USB/Class/Common/HIDParser.c **** #include "HIDParser.h"
  34:lib/lufa/LUFA/Drivers/USB/Class/Common/HIDParser.c **** 
  35:lib/lufa/LUFA/Drivers/USB/Class/Common/HIDParser.c **** uint8_t USB_ProcessHIDReport(const uint8_t* ReportData,
  36:lib/lufa/LUFA/Drivers/USB/Class/Common/HIDParser.c ****                              uint16_t ReportSize,
  37:lib/lufa/LUFA/Drivers/USB/Class/Common/HIDParser.c ****                              HID_ReportInfo_t* const ParserData)
  38:lib/lufa/LUFA/Drivers/USB/Class/Common/HIDParser.c **** {
  16               		.loc 1 38 0
  17               		.cfi_startproc
  18               	.LVL0:
  19 0000 2F92      		push r2
  20               	.LCFI0:
  21               		.cfi_def_cfa_offset 3
  22               		.cfi_offset 2, -2
  23 0002 3F92      		push r3
  24               	.LCFI1:
  25               		.cfi_def_cfa_offset 4
  26               		.cfi_offset 3, -3
  27 0004 4F92      		push r4
  28               	.LCFI2:
  29               		.cfi_def_cfa_offset 5
  30               		.cfi_offset 4, -4
  31 0006 5F92      		push r5
  32               	.LCFI3:
  33               		.cfi_def_cfa_offset 6
  34               		.cfi_offset 5, -5
  35 0008 6F92      		push r6
  36               	.LCFI4:
  37               		.cfi_def_cfa_offset 7
  38               		.cfi_offset 6, -6
  39 000a 7F92      		push r7
  40               	.LCFI5:
  41               		.cfi_def_cfa_offset 8
  42               		.cfi_offset 7, -7
  43 000c 8F92      		push r8
  44               	.LCFI6:
  45               		.cfi_def_cfa_offset 9
  46               		.cfi_offset 8, -8
  47 000e 9F92      		push r9
  48               	.LCFI7:
  49               		.cfi_def_cfa_offset 10
  50               		.cfi_offset 9, -9
  51 0010 AF92      		push r10
  52               	.LCFI8:
  53               		.cfi_def_cfa_offset 11
  54               		.cfi_offset 10, -10
  55 0012 BF92      		push r11
  56               	.LCFI9:
  57               		.cfi_def_cfa_offset 12
  58               		.cfi_offset 11, -11
  59 0014 CF92      		push r12
  60               	.LCFI10:
  61               		.cfi_def_cfa_offset 13
  62               		.cfi_offset 12, -12
  63 0016 DF92      		push r13
  64               	.LCFI11:
  65               		.cfi_def_cfa_offset 14
  66               		.cfi_offset 13, -13
  67 0018 EF92      		push r14
  68               	.LCFI12:
  69               		.cfi_def_cfa_offset 15
  70               		.cfi_offset 14, -14
  71 001a FF92      		push r15
  72               	.LCFI13:
  73               		.cfi_def_cfa_offset 16
  74               		.cfi_offset 15, -15
  75 001c 0F93      		push r16
  76               	.LCFI14:
  77               		.cfi_def_cfa_offset 17
  78               		.cfi_offset 16, -16
  79 001e 1F93      		push r17
  80               	.LCFI15:
  81               		.cfi_def_cfa_offset 18
  82               		.cfi_offset 17, -17
  83 0020 CF93      		push r28
  84               	.LCFI16:
  85               		.cfi_def_cfa_offset 19
  86               		.cfi_offset 28, -18
  87 0022 DF93      		push r29
  88               	.LCFI17:
  89               		.cfi_def_cfa_offset 20
  90               		.cfi_offset 29, -19
  91 0024 CDB7      		in r28,__SP_L__
  92 0026 DEB7      		in r29,__SP_H__
  93               	.LCFI18:
  94               		.cfi_def_cfa_register 28
  95 0028 CC58      		subi r28,-116
  96 002a D109      		sbc r29,__zero_reg__
  97               	.LCFI19:
  98               		.cfi_def_cfa_offset 160
  99 002c 0FB6      		in __tmp_reg__,__SREG__
 100 002e F894      		cli
 101 0030 DEBF      		out __SP_H__,r29
 102 0032 0FBE      		out __SREG__,__tmp_reg__
 103 0034 CDBF      		out __SP_L__,r28
 104               	/* prologue: function */
 105               	/* frame size = 140 */
 106               	/* stack size = 158 */
 107               	.L__stack_usage = 158
 108 0036 6C01      		movw r12,r24
 109 0038 E796      		adiw r28,117-62
 110 003a 7FAF      		std Y+63,r23
 111 003c 6EAF      		std Y+62,r22
 112 003e E797      		sbiw r28,117-62
 113 0040 1A01      		movw r2,r20
 114               	.LVL1:
  39:lib/lufa/LUFA/Drivers/USB/Class/Common/HIDParser.c **** 	HID_StateTable_t      StateTable[HID_STATETABLE_STACK_DEPTH];
  40:lib/lufa/LUFA/Drivers/USB/Class/Common/HIDParser.c **** 	HID_StateTable_t*     CurrStateTable     = &StateTable[0];
  41:lib/lufa/LUFA/Drivers/USB/Class/Common/HIDParser.c **** 	HID_CollectionPath_t* CurrCollectionPath = NULL;
  42:lib/lufa/LUFA/Drivers/USB/Class/Common/HIDParser.c **** 	HID_ReportSizeInfo_t* CurrReportIDInfo   = &ParserData->ReportIDSizes[0];
 115               		.loc 1 42 0
 116 0042 9A01      		movw r18,r20
 117 0044 2057      		subi r18,112
 118 0046 3C4F      		sbci r19,-4
 119 0048 E996      		adiw r28,119-62
 120 004a 3FAF      		std Y+63,r19
 121 004c 2EAF      		std Y+62,r18
 122 004e E997      		sbiw r28,119-62
 123               	.LVL2:
  43:lib/lufa/LUFA/Drivers/USB/Class/Common/HIDParser.c **** 	uint16_t              UsageList[HID_USAGE_STACK_DEPTH];
  44:lib/lufa/LUFA/Drivers/USB/Class/Common/HIDParser.c **** 	uint8_t               UsageListSize      = 0;
  45:lib/lufa/LUFA/Drivers/USB/Class/Common/HIDParser.c **** 	HID_MinMax_t          UsageMinMax        = {0, 0};
  46:lib/lufa/LUFA/Drivers/USB/Class/Common/HIDParser.c **** 
  47:lib/lufa/LUFA/Drivers/USB/Class/Common/HIDParser.c **** 	memset(ParserData,       0x00, sizeof(HID_ReportInfo_t));
 124               		.loc 1 47 0
 125 0050 89ED      		ldi r24,lo8(-39)
 126 0052 93E0      		ldi r25,lo8(3)
 127               	.LVL3:
 128 0054 DA01      		movw r26,r20
 129 0056 FC01      		movw r30,r24
 130               		0:
 131 0058 1D92      		st X+,__zero_reg__
 132 005a 3197      		sbiw r30,1
 133 005c 01F4      		brne 0b
  48:lib/lufa/LUFA/Drivers/USB/Class/Common/HIDParser.c **** 	memset(CurrStateTable,   0x00, sizeof(HID_StateTable_t));
 134               		.loc 1 48 0
 135 005e FE01      		movw r30,r28
 136 0060 3196      		adiw r30,1
 137 0062 8CE1      		ldi r24,lo8(28)
 138 0064 DF01      		movw r26,r30
 139               		0:
 140 0066 1D92      		st X+,__zero_reg__
 141 0068 8A95      		dec r24
 142 006a 01F4      		brne 0b
  49:lib/lufa/LUFA/Drivers/USB/Class/Common/HIDParser.c **** 	memset(CurrReportIDInfo, 0x00, sizeof(HID_ReportSizeInfo_t));
 143               		.loc 1 49 0
 144 006c 87E0      		ldi r24,lo8(7)
 145 006e D901      		movw r26,r18
 146               		0:
 147 0070 1D92      		st X+,__zero_reg__
 148 0072 8A95      		dec r24
 149 0074 01F4      		brne 0b
  50:lib/lufa/LUFA/Drivers/USB/Class/Common/HIDParser.c **** 
  51:lib/lufa/LUFA/Drivers/USB/Class/Common/HIDParser.c **** 	ParserData->TotalDeviceReports = 1;
 150               		.loc 1 51 0
 151 0076 2150      		subi r18,1
 152 0078 3109      		sbc r19,__zero_reg__
 153               	.LVL4:
 154 007a C158      		subi r28,lo8(-127)
 155 007c DF4F      		sbci r29,hi8(-127)
 156 007e 3983      		std Y+1,r19
 157 0080 2883      		st Y,r18
 158 0082 CF57      		subi r28,lo8(127)
 159 0084 D040      		sbci r29,hi8(127)
 160 0086 81E0      		ldi r24,lo8(1)
 161 0088 D901      		movw r26,r18
 162 008a 8C93      		st X,r24
  45:lib/lufa/LUFA/Drivers/USB/Class/Common/HIDParser.c **** 
 163               		.loc 1 45 0
 164 008c ED96      		adiw r28,121-60
 165 008e 1CAE      		std Y+60,__zero_reg__
 166 0090 1DAE      		std Y+61,__zero_reg__
 167 0092 1EAE      		std Y+62,__zero_reg__
 168 0094 1FAE      		std Y+63,__zero_reg__
 169 0096 ED97      		sbiw r28,121-60
 170 0098 412C      		mov r4,__zero_reg__
 171 009a 512C      		mov r5,__zero_reg__
 172 009c 3201      		movw r6,r4
  44:lib/lufa/LUFA/Drivers/USB/Class/Common/HIDParser.c **** 	HID_MinMax_t          UsageMinMax        = {0, 0};
 173               		.loc 1 44 0
 174 009e 00E0      		ldi r16,0
  41:lib/lufa/LUFA/Drivers/USB/Class/Common/HIDParser.c **** 	HID_ReportSizeInfo_t* CurrReportIDInfo   = &ParserData->ReportIDSizes[0];
 175               		.loc 1 41 0
 176 00a0 E596      		adiw r28,115-62
 177 00a2 1FAE      		std Y+63,__zero_reg__
 178 00a4 1EAE      		std Y+62,__zero_reg__
 179 00a6 E597      		sbiw r28,115-62
  40:lib/lufa/LUFA/Drivers/USB/Class/Common/HIDParser.c **** 	HID_CollectionPath_t* CurrCollectionPath = NULL;
 180               		.loc 1 40 0
 181 00a8 7F01      		movw r14,r30
 182               	.LBB2:
 183               	.LBB3:
 184               	.LBB4:
  52:lib/lufa/LUFA/Drivers/USB/Class/Common/HIDParser.c **** 
  53:lib/lufa/LUFA/Drivers/USB/Class/Common/HIDParser.c **** 	while (ReportSize)
  54:lib/lufa/LUFA/Drivers/USB/Class/Common/HIDParser.c **** 	{
  55:lib/lufa/LUFA/Drivers/USB/Class/Common/HIDParser.c **** 		uint8_t  HIDReportItem  = *ReportData;
  56:lib/lufa/LUFA/Drivers/USB/Class/Common/HIDParser.c **** 		uint32_t ReportItemData;
  57:lib/lufa/LUFA/Drivers/USB/Class/Common/HIDParser.c **** 
  58:lib/lufa/LUFA/Drivers/USB/Class/Common/HIDParser.c **** 		ReportData++;
  59:lib/lufa/LUFA/Drivers/USB/Class/Common/HIDParser.c **** 		ReportSize--;
  60:lib/lufa/LUFA/Drivers/USB/Class/Common/HIDParser.c **** 
  61:lib/lufa/LUFA/Drivers/USB/Class/Common/HIDParser.c **** 		switch (HIDReportItem & HID_RI_DATA_SIZE_MASK)
  62:lib/lufa/LUFA/Drivers/USB/Class/Common/HIDParser.c **** 		{
  63:lib/lufa/LUFA/Drivers/USB/Class/Common/HIDParser.c **** 			case HID_RI_DATA_BITS_32:
  64:lib/lufa/LUFA/Drivers/USB/Class/Common/HIDParser.c **** 				ReportItemData  = (((uint32_t)ReportData[3] << 24) | ((uint32_t)ReportData[2] << 16) |
  65:lib/lufa/LUFA/Drivers/USB/Class/Common/HIDParser.c **** 			                       ((uint16_t)ReportData[1] << 8)  | ReportData[0]);
  66:lib/lufa/LUFA/Drivers/USB/Class/Common/HIDParser.c **** 				ReportSize     -= 4;
  67:lib/lufa/LUFA/Drivers/USB/Class/Common/HIDParser.c **** 				ReportData     += 4;
  68:lib/lufa/LUFA/Drivers/USB/Class/Common/HIDParser.c **** 				break;
  69:lib/lufa/LUFA/Drivers/USB/Class/Common/HIDParser.c **** 
  70:lib/lufa/LUFA/Drivers/USB/Class/Common/HIDParser.c **** 			case HID_RI_DATA_BITS_16:
  71:lib/lufa/LUFA/Drivers/USB/Class/Common/HIDParser.c **** 				ReportItemData  = (((uint16_t)ReportData[1] << 8) | (ReportData[0]));
  72:lib/lufa/LUFA/Drivers/USB/Class/Common/HIDParser.c **** 				ReportSize     -= 2;
  73:lib/lufa/LUFA/Drivers/USB/Class/Common/HIDParser.c **** 				ReportData     += 2;
  74:lib/lufa/LUFA/Drivers/USB/Class/Common/HIDParser.c **** 				break;
  75:lib/lufa/LUFA/Drivers/USB/Class/Common/HIDParser.c **** 
  76:lib/lufa/LUFA/Drivers/USB/Class/Common/HIDParser.c **** 			case HID_RI_DATA_BITS_8:
  77:lib/lufa/LUFA/Drivers/USB/Class/Common/HIDParser.c **** 				ReportItemData  = ReportData[0];
  78:lib/lufa/LUFA/Drivers/USB/Class/Common/HIDParser.c **** 				ReportSize     -= 1;
  79:lib/lufa/LUFA/Drivers/USB/Class/Common/HIDParser.c **** 				ReportData     += 1;
  80:lib/lufa/LUFA/Drivers/USB/Class/Common/HIDParser.c **** 				break;
  81:lib/lufa/LUFA/Drivers/USB/Class/Common/HIDParser.c **** 
  82:lib/lufa/LUFA/Drivers/USB/Class/Common/HIDParser.c **** 			default:
  83:lib/lufa/LUFA/Drivers/USB/Class/Common/HIDParser.c **** 				ReportItemData  = 0;
  84:lib/lufa/LUFA/Drivers/USB/Class/Common/HIDParser.c **** 				break;
  85:lib/lufa/LUFA/Drivers/USB/Class/Common/HIDParser.c **** 		}
  86:lib/lufa/LUFA/Drivers/USB/Class/Common/HIDParser.c **** 
  87:lib/lufa/LUFA/Drivers/USB/Class/Common/HIDParser.c **** 		switch (HIDReportItem & (HID_RI_TYPE_MASK | HID_RI_TAG_MASK))
  88:lib/lufa/LUFA/Drivers/USB/Class/Common/HIDParser.c **** 		{
  89:lib/lufa/LUFA/Drivers/USB/Class/Common/HIDParser.c **** 			case HID_RI_PUSH(0):
  90:lib/lufa/LUFA/Drivers/USB/Class/Common/HIDParser.c **** 				if (CurrStateTable == &StateTable[HID_STATETABLE_STACK_DEPTH - 1])
  91:lib/lufa/LUFA/Drivers/USB/Class/Common/HIDParser.c **** 				  return HID_PARSE_HIDStackOverflow;
  92:lib/lufa/LUFA/Drivers/USB/Class/Common/HIDParser.c **** 
  93:lib/lufa/LUFA/Drivers/USB/Class/Common/HIDParser.c **** 				memmove(CurrStateTable + 1,
  94:lib/lufa/LUFA/Drivers/USB/Class/Common/HIDParser.c **** 				       CurrStateTable,
  95:lib/lufa/LUFA/Drivers/USB/Class/Common/HIDParser.c **** 				       sizeof(HID_ReportItem_t));
  96:lib/lufa/LUFA/Drivers/USB/Class/Common/HIDParser.c **** 
  97:lib/lufa/LUFA/Drivers/USB/Class/Common/HIDParser.c **** 				CurrStateTable++;
  98:lib/lufa/LUFA/Drivers/USB/Class/Common/HIDParser.c **** 				break;
  99:lib/lufa/LUFA/Drivers/USB/Class/Common/HIDParser.c **** 
 100:lib/lufa/LUFA/Drivers/USB/Class/Common/HIDParser.c **** 			case HID_RI_POP(0):
 101:lib/lufa/LUFA/Drivers/USB/Class/Common/HIDParser.c **** 				if (CurrStateTable == &StateTable[0])
 102:lib/lufa/LUFA/Drivers/USB/Class/Common/HIDParser.c **** 				  return HID_PARSE_HIDStackUnderflow;
 103:lib/lufa/LUFA/Drivers/USB/Class/Common/HIDParser.c **** 
 104:lib/lufa/LUFA/Drivers/USB/Class/Common/HIDParser.c **** 				CurrStateTable--;
 105:lib/lufa/LUFA/Drivers/USB/Class/Common/HIDParser.c **** 				break;
 106:lib/lufa/LUFA/Drivers/USB/Class/Common/HIDParser.c **** 
 107:lib/lufa/LUFA/Drivers/USB/Class/Common/HIDParser.c **** 			case HID_RI_USAGE_PAGE(0):
 108:lib/lufa/LUFA/Drivers/USB/Class/Common/HIDParser.c **** 				if ((HIDReportItem & HID_RI_DATA_SIZE_MASK) == HID_RI_DATA_BITS_32)
 109:lib/lufa/LUFA/Drivers/USB/Class/Common/HIDParser.c **** 				  CurrStateTable->Attributes.Usage.Page = (ReportItemData >> 16);
 110:lib/lufa/LUFA/Drivers/USB/Class/Common/HIDParser.c **** 
 111:lib/lufa/LUFA/Drivers/USB/Class/Common/HIDParser.c **** 				CurrStateTable->Attributes.Usage.Page       = ReportItemData;
 112:lib/lufa/LUFA/Drivers/USB/Class/Common/HIDParser.c **** 				break;
 113:lib/lufa/LUFA/Drivers/USB/Class/Common/HIDParser.c **** 
 114:lib/lufa/LUFA/Drivers/USB/Class/Common/HIDParser.c **** 			case HID_RI_LOGICAL_MINIMUM(0):
 115:lib/lufa/LUFA/Drivers/USB/Class/Common/HIDParser.c **** 				CurrStateTable->Attributes.Logical.Minimum  = ReportItemData;
 116:lib/lufa/LUFA/Drivers/USB/Class/Common/HIDParser.c **** 				break;
 117:lib/lufa/LUFA/Drivers/USB/Class/Common/HIDParser.c **** 
 118:lib/lufa/LUFA/Drivers/USB/Class/Common/HIDParser.c **** 			case HID_RI_LOGICAL_MAXIMUM(0):
 119:lib/lufa/LUFA/Drivers/USB/Class/Common/HIDParser.c **** 				CurrStateTable->Attributes.Logical.Maximum  = ReportItemData;
 120:lib/lufa/LUFA/Drivers/USB/Class/Common/HIDParser.c **** 				break;
 121:lib/lufa/LUFA/Drivers/USB/Class/Common/HIDParser.c **** 
 122:lib/lufa/LUFA/Drivers/USB/Class/Common/HIDParser.c **** 			case HID_RI_PHYSICAL_MINIMUM(0):
 123:lib/lufa/LUFA/Drivers/USB/Class/Common/HIDParser.c **** 				CurrStateTable->Attributes.Physical.Minimum = ReportItemData;
 124:lib/lufa/LUFA/Drivers/USB/Class/Common/HIDParser.c **** 				break;
 125:lib/lufa/LUFA/Drivers/USB/Class/Common/HIDParser.c **** 
 126:lib/lufa/LUFA/Drivers/USB/Class/Common/HIDParser.c **** 			case HID_RI_PHYSICAL_MAXIMUM(0):
 127:lib/lufa/LUFA/Drivers/USB/Class/Common/HIDParser.c **** 				CurrStateTable->Attributes.Physical.Maximum = ReportItemData;
 128:lib/lufa/LUFA/Drivers/USB/Class/Common/HIDParser.c **** 				break;
 129:lib/lufa/LUFA/Drivers/USB/Class/Common/HIDParser.c **** 
 130:lib/lufa/LUFA/Drivers/USB/Class/Common/HIDParser.c **** 			case HID_RI_UNIT_EXPONENT(0):
 131:lib/lufa/LUFA/Drivers/USB/Class/Common/HIDParser.c **** 				CurrStateTable->Attributes.Unit.Exponent    = ReportItemData;
 132:lib/lufa/LUFA/Drivers/USB/Class/Common/HIDParser.c **** 				break;
 133:lib/lufa/LUFA/Drivers/USB/Class/Common/HIDParser.c **** 
 134:lib/lufa/LUFA/Drivers/USB/Class/Common/HIDParser.c **** 			case HID_RI_UNIT(0):
 135:lib/lufa/LUFA/Drivers/USB/Class/Common/HIDParser.c **** 				CurrStateTable->Attributes.Unit.Type        = ReportItemData;
 136:lib/lufa/LUFA/Drivers/USB/Class/Common/HIDParser.c **** 				break;
 137:lib/lufa/LUFA/Drivers/USB/Class/Common/HIDParser.c **** 
 138:lib/lufa/LUFA/Drivers/USB/Class/Common/HIDParser.c **** 			case HID_RI_REPORT_SIZE(0):
 139:lib/lufa/LUFA/Drivers/USB/Class/Common/HIDParser.c **** 				CurrStateTable->Attributes.BitSize          = ReportItemData;
 140:lib/lufa/LUFA/Drivers/USB/Class/Common/HIDParser.c **** 				break;
 141:lib/lufa/LUFA/Drivers/USB/Class/Common/HIDParser.c **** 
 142:lib/lufa/LUFA/Drivers/USB/Class/Common/HIDParser.c **** 			case HID_RI_REPORT_COUNT(0):
 143:lib/lufa/LUFA/Drivers/USB/Class/Common/HIDParser.c **** 				CurrStateTable->ReportCount                 = ReportItemData;
 144:lib/lufa/LUFA/Drivers/USB/Class/Common/HIDParser.c **** 				break;
 145:lib/lufa/LUFA/Drivers/USB/Class/Common/HIDParser.c **** 
 146:lib/lufa/LUFA/Drivers/USB/Class/Common/HIDParser.c **** 			case HID_RI_REPORT_ID(0):
 147:lib/lufa/LUFA/Drivers/USB/Class/Common/HIDParser.c **** 				CurrStateTable->ReportID                    = ReportItemData;
 148:lib/lufa/LUFA/Drivers/USB/Class/Common/HIDParser.c **** 
 149:lib/lufa/LUFA/Drivers/USB/Class/Common/HIDParser.c **** 				if (ParserData->UsingReportIDs)
 150:lib/lufa/LUFA/Drivers/USB/Class/Common/HIDParser.c **** 				{
 151:lib/lufa/LUFA/Drivers/USB/Class/Common/HIDParser.c **** 					CurrReportIDInfo = NULL;
 152:lib/lufa/LUFA/Drivers/USB/Class/Common/HIDParser.c **** 
 153:lib/lufa/LUFA/Drivers/USB/Class/Common/HIDParser.c **** 					for (uint8_t i = 0; i < ParserData->TotalDeviceReports; i++)
 154:lib/lufa/LUFA/Drivers/USB/Class/Common/HIDParser.c **** 					{
 155:lib/lufa/LUFA/Drivers/USB/Class/Common/HIDParser.c **** 						if (ParserData->ReportIDSizes[i].ReportID == CurrStateTable->ReportID)
 156:lib/lufa/LUFA/Drivers/USB/Class/Common/HIDParser.c **** 						{
 157:lib/lufa/LUFA/Drivers/USB/Class/Common/HIDParser.c **** 							CurrReportIDInfo = &ParserData->ReportIDSizes[i];
 158:lib/lufa/LUFA/Drivers/USB/Class/Common/HIDParser.c **** 							break;
 159:lib/lufa/LUFA/Drivers/USB/Class/Common/HIDParser.c **** 						}
 160:lib/lufa/LUFA/Drivers/USB/Class/Common/HIDParser.c **** 					}
 161:lib/lufa/LUFA/Drivers/USB/Class/Common/HIDParser.c **** 
 162:lib/lufa/LUFA/Drivers/USB/Class/Common/HIDParser.c **** 					if (CurrReportIDInfo == NULL)
 163:lib/lufa/LUFA/Drivers/USB/Class/Common/HIDParser.c **** 					{
 164:lib/lufa/LUFA/Drivers/USB/Class/Common/HIDParser.c **** 						if (ParserData->TotalDeviceReports == HID_MAX_REPORT_IDS)
 165:lib/lufa/LUFA/Drivers/USB/Class/Common/HIDParser.c **** 						  return HID_PARSE_InsufficientReportIDItems;
 166:lib/lufa/LUFA/Drivers/USB/Class/Common/HIDParser.c **** 
 167:lib/lufa/LUFA/Drivers/USB/Class/Common/HIDParser.c **** 						CurrReportIDInfo = &ParserData->ReportIDSizes[ParserData->TotalDeviceReports++];
 168:lib/lufa/LUFA/Drivers/USB/Class/Common/HIDParser.c **** 						memset(CurrReportIDInfo, 0x00, sizeof(HID_ReportSizeInfo_t));
 169:lib/lufa/LUFA/Drivers/USB/Class/Common/HIDParser.c **** 					}
 170:lib/lufa/LUFA/Drivers/USB/Class/Common/HIDParser.c **** 				}
 171:lib/lufa/LUFA/Drivers/USB/Class/Common/HIDParser.c **** 
 172:lib/lufa/LUFA/Drivers/USB/Class/Common/HIDParser.c **** 				ParserData->UsingReportIDs = true;
 173:lib/lufa/LUFA/Drivers/USB/Class/Common/HIDParser.c **** 
 174:lib/lufa/LUFA/Drivers/USB/Class/Common/HIDParser.c **** 				CurrReportIDInfo->ReportID = CurrStateTable->ReportID;
 175:lib/lufa/LUFA/Drivers/USB/Class/Common/HIDParser.c **** 				break;
 176:lib/lufa/LUFA/Drivers/USB/Class/Common/HIDParser.c **** 
 177:lib/lufa/LUFA/Drivers/USB/Class/Common/HIDParser.c **** 			case HID_RI_USAGE(0):
 178:lib/lufa/LUFA/Drivers/USB/Class/Common/HIDParser.c **** 				if (UsageListSize == HID_USAGE_STACK_DEPTH)
 179:lib/lufa/LUFA/Drivers/USB/Class/Common/HIDParser.c **** 				  return HID_PARSE_UsageListOverflow;
 180:lib/lufa/LUFA/Drivers/USB/Class/Common/HIDParser.c **** 
 181:lib/lufa/LUFA/Drivers/USB/Class/Common/HIDParser.c **** 				UsageList[UsageListSize++] = ReportItemData;
 182:lib/lufa/LUFA/Drivers/USB/Class/Common/HIDParser.c **** 				break;
 183:lib/lufa/LUFA/Drivers/USB/Class/Common/HIDParser.c **** 
 184:lib/lufa/LUFA/Drivers/USB/Class/Common/HIDParser.c **** 			case HID_RI_USAGE_MINIMUM(0):
 185:lib/lufa/LUFA/Drivers/USB/Class/Common/HIDParser.c **** 				UsageMinMax.Minimum = ReportItemData;
 186:lib/lufa/LUFA/Drivers/USB/Class/Common/HIDParser.c **** 				break;
 187:lib/lufa/LUFA/Drivers/USB/Class/Common/HIDParser.c **** 
 188:lib/lufa/LUFA/Drivers/USB/Class/Common/HIDParser.c **** 			case HID_RI_USAGE_MAXIMUM(0):
 189:lib/lufa/LUFA/Drivers/USB/Class/Common/HIDParser.c **** 				UsageMinMax.Maximum = ReportItemData;
 190:lib/lufa/LUFA/Drivers/USB/Class/Common/HIDParser.c **** 				break;
 191:lib/lufa/LUFA/Drivers/USB/Class/Common/HIDParser.c **** 
 192:lib/lufa/LUFA/Drivers/USB/Class/Common/HIDParser.c **** 			case HID_RI_COLLECTION(0):
 193:lib/lufa/LUFA/Drivers/USB/Class/Common/HIDParser.c **** 				if (CurrCollectionPath == NULL)
 194:lib/lufa/LUFA/Drivers/USB/Class/Common/HIDParser.c **** 				{
 195:lib/lufa/LUFA/Drivers/USB/Class/Common/HIDParser.c **** 					CurrCollectionPath = &ParserData->CollectionPaths[0];
 196:lib/lufa/LUFA/Drivers/USB/Class/Common/HIDParser.c **** 				}
 197:lib/lufa/LUFA/Drivers/USB/Class/Common/HIDParser.c **** 				else
 198:lib/lufa/LUFA/Drivers/USB/Class/Common/HIDParser.c **** 				{
 199:lib/lufa/LUFA/Drivers/USB/Class/Common/HIDParser.c **** 					HID_CollectionPath_t* ParentCollectionPath = CurrCollectionPath;
 200:lib/lufa/LUFA/Drivers/USB/Class/Common/HIDParser.c **** 
 201:lib/lufa/LUFA/Drivers/USB/Class/Common/HIDParser.c **** 					CurrCollectionPath = &ParserData->CollectionPaths[1];
 202:lib/lufa/LUFA/Drivers/USB/Class/Common/HIDParser.c **** 
 203:lib/lufa/LUFA/Drivers/USB/Class/Common/HIDParser.c **** 					while (CurrCollectionPath->Parent != NULL)
 204:lib/lufa/LUFA/Drivers/USB/Class/Common/HIDParser.c **** 					{
 205:lib/lufa/LUFA/Drivers/USB/Class/Common/HIDParser.c **** 						if (CurrCollectionPath == &ParserData->CollectionPaths[HID_MAX_COLLECTIONS - 1])
 206:lib/lufa/LUFA/Drivers/USB/Class/Common/HIDParser.c **** 						  return HID_PARSE_InsufficientCollectionPaths;
 207:lib/lufa/LUFA/Drivers/USB/Class/Common/HIDParser.c **** 
 208:lib/lufa/LUFA/Drivers/USB/Class/Common/HIDParser.c **** 						CurrCollectionPath++;
 209:lib/lufa/LUFA/Drivers/USB/Class/Common/HIDParser.c **** 					}
 210:lib/lufa/LUFA/Drivers/USB/Class/Common/HIDParser.c **** 
 211:lib/lufa/LUFA/Drivers/USB/Class/Common/HIDParser.c **** 					CurrCollectionPath->Parent = ParentCollectionPath;
 212:lib/lufa/LUFA/Drivers/USB/Class/Common/HIDParser.c **** 				}
 213:lib/lufa/LUFA/Drivers/USB/Class/Common/HIDParser.c **** 
 214:lib/lufa/LUFA/Drivers/USB/Class/Common/HIDParser.c **** 				CurrCollectionPath->Type       = ReportItemData;
 215:lib/lufa/LUFA/Drivers/USB/Class/Common/HIDParser.c **** 				CurrCollectionPath->Usage.Page = CurrStateTable->Attributes.Usage.Page;
 216:lib/lufa/LUFA/Drivers/USB/Class/Common/HIDParser.c **** 
 217:lib/lufa/LUFA/Drivers/USB/Class/Common/HIDParser.c **** 				if (UsageListSize)
 218:lib/lufa/LUFA/Drivers/USB/Class/Common/HIDParser.c **** 				{
 219:lib/lufa/LUFA/Drivers/USB/Class/Common/HIDParser.c **** 					CurrCollectionPath->Usage.Usage = UsageList[0];
 220:lib/lufa/LUFA/Drivers/USB/Class/Common/HIDParser.c **** 
 221:lib/lufa/LUFA/Drivers/USB/Class/Common/HIDParser.c **** 					for (uint8_t i = 1; i < UsageListSize; i++)
 222:lib/lufa/LUFA/Drivers/USB/Class/Common/HIDParser.c **** 					  UsageList[i - 1] = UsageList[i];
 223:lib/lufa/LUFA/Drivers/USB/Class/Common/HIDParser.c **** 
 224:lib/lufa/LUFA/Drivers/USB/Class/Common/HIDParser.c **** 					UsageListSize--;
 225:lib/lufa/LUFA/Drivers/USB/Class/Common/HIDParser.c **** 				}
 226:lib/lufa/LUFA/Drivers/USB/Class/Common/HIDParser.c **** 				else if (UsageMinMax.Minimum <= UsageMinMax.Maximum)
 227:lib/lufa/LUFA/Drivers/USB/Class/Common/HIDParser.c **** 				{
 228:lib/lufa/LUFA/Drivers/USB/Class/Common/HIDParser.c **** 					CurrCollectionPath->Usage.Usage = UsageMinMax.Minimum++;
 229:lib/lufa/LUFA/Drivers/USB/Class/Common/HIDParser.c **** 				}
 230:lib/lufa/LUFA/Drivers/USB/Class/Common/HIDParser.c **** 
 231:lib/lufa/LUFA/Drivers/USB/Class/Common/HIDParser.c **** 				break;
 232:lib/lufa/LUFA/Drivers/USB/Class/Common/HIDParser.c **** 
 233:lib/lufa/LUFA/Drivers/USB/Class/Common/HIDParser.c **** 			case HID_RI_END_COLLECTION(0):
 234:lib/lufa/LUFA/Drivers/USB/Class/Common/HIDParser.c **** 				if (CurrCollectionPath == NULL)
 235:lib/lufa/LUFA/Drivers/USB/Class/Common/HIDParser.c **** 				  return HID_PARSE_UnexpectedEndCollection;
 236:lib/lufa/LUFA/Drivers/USB/Class/Common/HIDParser.c **** 
 237:lib/lufa/LUFA/Drivers/USB/Class/Common/HIDParser.c **** 				CurrCollectionPath = CurrCollectionPath->Parent;
 238:lib/lufa/LUFA/Drivers/USB/Class/Common/HIDParser.c **** 				break;
 239:lib/lufa/LUFA/Drivers/USB/Class/Common/HIDParser.c **** 
 240:lib/lufa/LUFA/Drivers/USB/Class/Common/HIDParser.c **** 			case HID_RI_INPUT(0):
 241:lib/lufa/LUFA/Drivers/USB/Class/Common/HIDParser.c **** 			case HID_RI_OUTPUT(0):
 242:lib/lufa/LUFA/Drivers/USB/Class/Common/HIDParser.c **** 			case HID_RI_FEATURE(0):
 243:lib/lufa/LUFA/Drivers/USB/Class/Common/HIDParser.c **** 				for (uint8_t ReportItemNum = 0; ReportItemNum < CurrStateTable->ReportCount; ReportItemNum++)
 244:lib/lufa/LUFA/Drivers/USB/Class/Common/HIDParser.c **** 				{
 245:lib/lufa/LUFA/Drivers/USB/Class/Common/HIDParser.c **** 					HID_ReportItem_t NewReportItem;
 246:lib/lufa/LUFA/Drivers/USB/Class/Common/HIDParser.c **** 
 247:lib/lufa/LUFA/Drivers/USB/Class/Common/HIDParser.c **** 					memcpy(&NewReportItem.Attributes,
 248:lib/lufa/LUFA/Drivers/USB/Class/Common/HIDParser.c **** 					       &CurrStateTable->Attributes,
 249:lib/lufa/LUFA/Drivers/USB/Class/Common/HIDParser.c **** 					       sizeof(HID_ReportItem_Attributes_t));
 250:lib/lufa/LUFA/Drivers/USB/Class/Common/HIDParser.c **** 
 251:lib/lufa/LUFA/Drivers/USB/Class/Common/HIDParser.c **** 					NewReportItem.ItemFlags      = ReportItemData;
 252:lib/lufa/LUFA/Drivers/USB/Class/Common/HIDParser.c **** 					NewReportItem.CollectionPath = CurrCollectionPath;
 253:lib/lufa/LUFA/Drivers/USB/Class/Common/HIDParser.c **** 					NewReportItem.ReportID       = CurrStateTable->ReportID;
 254:lib/lufa/LUFA/Drivers/USB/Class/Common/HIDParser.c **** 
 255:lib/lufa/LUFA/Drivers/USB/Class/Common/HIDParser.c **** 					if (UsageListSize)
 256:lib/lufa/LUFA/Drivers/USB/Class/Common/HIDParser.c **** 					{
 257:lib/lufa/LUFA/Drivers/USB/Class/Common/HIDParser.c **** 						NewReportItem.Attributes.Usage.Usage = UsageList[0];
 258:lib/lufa/LUFA/Drivers/USB/Class/Common/HIDParser.c **** 
 259:lib/lufa/LUFA/Drivers/USB/Class/Common/HIDParser.c **** 						for (uint8_t i = 1; i < UsageListSize; i++)
 260:lib/lufa/LUFA/Drivers/USB/Class/Common/HIDParser.c **** 						  UsageList[i - 1] = UsageList[i];
 261:lib/lufa/LUFA/Drivers/USB/Class/Common/HIDParser.c **** 
 262:lib/lufa/LUFA/Drivers/USB/Class/Common/HIDParser.c **** 						UsageListSize--;
 263:lib/lufa/LUFA/Drivers/USB/Class/Common/HIDParser.c **** 					}
 264:lib/lufa/LUFA/Drivers/USB/Class/Common/HIDParser.c **** 					else if (UsageMinMax.Minimum <= UsageMinMax.Maximum)
 265:lib/lufa/LUFA/Drivers/USB/Class/Common/HIDParser.c **** 					{
 266:lib/lufa/LUFA/Drivers/USB/Class/Common/HIDParser.c **** 						NewReportItem.Attributes.Usage.Usage = UsageMinMax.Minimum++;
 267:lib/lufa/LUFA/Drivers/USB/Class/Common/HIDParser.c **** 					}
 268:lib/lufa/LUFA/Drivers/USB/Class/Common/HIDParser.c **** 
 269:lib/lufa/LUFA/Drivers/USB/Class/Common/HIDParser.c **** 					uint8_t ItemTypeTag = (HIDReportItem & (HID_RI_TYPE_MASK | HID_RI_TAG_MASK));
 270:lib/lufa/LUFA/Drivers/USB/Class/Common/HIDParser.c **** 
 271:lib/lufa/LUFA/Drivers/USB/Class/Common/HIDParser.c **** 					if (ItemTypeTag == HID_RI_INPUT(0))
 272:lib/lufa/LUFA/Drivers/USB/Class/Common/HIDParser.c **** 					  NewReportItem.ItemType = HID_REPORT_ITEM_In;
 273:lib/lufa/LUFA/Drivers/USB/Class/Common/HIDParser.c **** 					else if (ItemTypeTag == HID_RI_OUTPUT(0))
 274:lib/lufa/LUFA/Drivers/USB/Class/Common/HIDParser.c **** 					  NewReportItem.ItemType = HID_REPORT_ITEM_Out;
 275:lib/lufa/LUFA/Drivers/USB/Class/Common/HIDParser.c **** 					else
 276:lib/lufa/LUFA/Drivers/USB/Class/Common/HIDParser.c **** 					  NewReportItem.ItemType = HID_REPORT_ITEM_Feature;
 277:lib/lufa/LUFA/Drivers/USB/Class/Common/HIDParser.c **** 
 278:lib/lufa/LUFA/Drivers/USB/Class/Common/HIDParser.c **** 					NewReportItem.BitOffset = CurrReportIDInfo->ReportSizeBits[NewReportItem.ItemType];
 279:lib/lufa/LUFA/Drivers/USB/Class/Common/HIDParser.c **** 
 280:lib/lufa/LUFA/Drivers/USB/Class/Common/HIDParser.c **** 					CurrReportIDInfo->ReportSizeBits[NewReportItem.ItemType] += CurrStateTable->Attributes.BitSize
 281:lib/lufa/LUFA/Drivers/USB/Class/Common/HIDParser.c **** 
 282:lib/lufa/LUFA/Drivers/USB/Class/Common/HIDParser.c **** 					ParserData->LargestReportSizeBits = MAX(ParserData->LargestReportSizeBits, CurrReportIDInfo->R
 185               		.loc 1 282 0
 186 00aa FA01      		movw r30,r20
 187 00ac EA52      		subi r30,42
 188 00ae FC4F      		sbci r31,-4
 189 00b0 CF57      		subi r28,lo8(-129)
 190 00b2 DF4F      		sbci r29,hi8(-129)
 191 00b4 F983      		std Y+1,r31
 192 00b6 E883      		st Y,r30
 193 00b8 C158      		subi r28,lo8(129)
 194 00ba D040      		sbci r29,hi8(129)
 195               	.LBE4:
 196               	.LBE3:
 197               	.LBB9:
 205:lib/lufa/LUFA/Drivers/USB/Class/Common/HIDParser.c **** 						  return HID_PARSE_InsufficientCollectionPaths;
 198               		.loc 1 205 0
 199 00bc 2750      		subi r18,7
 200 00be 3109      		sbc r19,__zero_reg__
 201 00c0 C757      		subi r28,lo8(-137)
 202 00c2 DF4F      		sbci r29,hi8(-137)
 203 00c4 3983      		std Y+1,r19
 204 00c6 2883      		st Y,r18
 205 00c8 C958      		subi r28,lo8(137)
 206 00ca D040      		sbci r29,hi8(137)
 207               	.LBE9:
 149:lib/lufa/LUFA/Drivers/USB/Class/Common/HIDParser.c **** 				{
 208               		.loc 1 149 0
 209 00cc 4852      		subi r20,40
 210 00ce 5C4F      		sbci r21,-4
 211               	.LVL5:
 212 00d0 CD57      		subi r28,lo8(-131)
 213 00d2 DF4F      		sbci r29,hi8(-131)
 214 00d4 5983      		std Y+1,r21
 215 00d6 4883      		st Y,r20
 216 00d8 C358      		subi r28,lo8(131)
 217 00da D040      		sbci r29,hi8(131)
 218               	.LBB10:
 153:lib/lufa/LUFA/Drivers/USB/Class/Common/HIDParser.c **** 					{
 219               		.loc 1 153 0
 220 00dc C557      		subi r28,lo8(-139)
 221 00de DF4F      		sbci r29,hi8(-139)
 222 00e0 B983      		std Y+1,r27
 223 00e2 A883      		st Y,r26
 224 00e4 CB58      		subi r28,lo8(139)
 225 00e6 D040      		sbci r29,hi8(139)
 226               	.LVL6:
 227               	.L2:
 228               	.LBE10:
 229               	.LBE2:
  53:lib/lufa/LUFA/Drivers/USB/Class/Common/HIDParser.c **** 	{
 230               		.loc 1 53 0
 231 00e8 E796      		adiw r28,117-62
 232 00ea 2EAD      		ldd r18,Y+62
 233 00ec 3FAD      		ldd r19,Y+63
 234 00ee E797      		sbiw r28,117-62
 235 00f0 232B      		or r18,r19
 236 00f2 01F4      		brne .+2
 237 00f4 00C0      		rjmp .L91
 238               	.LBB17:
  55:lib/lufa/LUFA/Drivers/USB/Class/Common/HIDParser.c **** 		uint32_t ReportItemData;
 239               		.loc 1 55 0
 240 00f6 D601      		movw r26,r12
 241 00f8 BC91      		ld r27,X
 242 00fa EF96      		adiw r28,126-63
 243 00fc BFAF      		std Y+63,r27
 244 00fe EF97      		sbiw r28,126-63
 245               	.LVL7:
  61:lib/lufa/LUFA/Drivers/USB/Class/Common/HIDParser.c **** 		{
 246               		.loc 1 61 0
 247 0100 8B2F      		mov r24,r27
 248 0102 8370      		andi r24,lo8(3)
 249 0104 8230      		cpi r24,lo8(2)
 250 0106 01F0      		breq .L4
 251 0108 8330      		cpi r24,lo8(3)
 252 010a 01F0      		breq .L5
 253 010c 8130      		cpi r24,lo8(1)
 254 010e 01F0      		breq .L6
  58:lib/lufa/LUFA/Drivers/USB/Class/Common/HIDParser.c **** 		ReportSize--;
 255               		.loc 1 58 0
 256 0110 EFEF      		ldi r30,-1
 257 0112 CE1A      		sub r12,r30
 258 0114 DE0A      		sbc r13,r30
 259               	.LVL8:
  59:lib/lufa/LUFA/Drivers/USB/Class/Common/HIDParser.c **** 
 260               		.loc 1 59 0
 261 0116 E796      		adiw r28,117-62
 262 0118 2EAD      		ldd r18,Y+62
 263 011a 3FAD      		ldd r19,Y+63
 264 011c E797      		sbiw r28,117-62
 265 011e 2150      		subi r18,1
 266 0120 3109      		sbc r19,__zero_reg__
 267               	.LVL9:
 268 0122 E796      		adiw r28,117-62
 269 0124 3FAF      		std Y+63,r19
 270 0126 2EAF      		std Y+62,r18
 271 0128 E797      		sbiw r28,117-62
  83:lib/lufa/LUFA/Drivers/USB/Class/Common/HIDParser.c **** 				break;
 272               		.loc 1 83 0
 273 012a 812C      		mov r8,__zero_reg__
 274 012c 912C      		mov r9,__zero_reg__
 275 012e 5401      		movw r10,r8
 276 0130 00C0      		rjmp .L7
 277               	.LVL10:
 278               	.L5:
  64:lib/lufa/LUFA/Drivers/USB/Class/Common/HIDParser.c **** 			                       ((uint16_t)ReportData[1] << 8)  | ReportData[0]);
 279               		.loc 1 64 0
 280 0132 D601      		movw r26,r12
 281 0134 1196      		adiw r26,1
 282 0136 8D90      		ld r8,X+
 283 0138 9D90      		ld r9,X+
 284 013a AD90      		ld r10,X+
 285 013c BC90      		ld r11,X
 286 013e 1497      		sbiw r26,1+3
 287               	.LVL11:
  66:lib/lufa/LUFA/Drivers/USB/Class/Common/HIDParser.c **** 				ReportData     += 4;
 288               		.loc 1 66 0
 289 0140 E796      		adiw r28,117-62
 290 0142 EEAD      		ldd r30,Y+62
 291 0144 FFAD      		ldd r31,Y+63
 292 0146 E797      		sbiw r28,117-62
 293 0148 3597      		sbiw r30,5
 294 014a E796      		adiw r28,117-62
 295 014c FFAF      		std Y+63,r31
 296 014e EEAF      		std Y+62,r30
 297 0150 E797      		sbiw r28,117-62
 298               	.LVL12:
  67:lib/lufa/LUFA/Drivers/USB/Class/Common/HIDParser.c **** 				break;
 299               		.loc 1 67 0
 300 0152 F5E0      		ldi r31,5
 301 0154 CF0E      		add r12,r31
 302 0156 D11C      		adc r13,__zero_reg__
 303               	.LVL13:
  68:lib/lufa/LUFA/Drivers/USB/Class/Common/HIDParser.c **** 
 304               		.loc 1 68 0
 305 0158 00C0      		rjmp .L7
 306               	.LVL14:
 307               	.L4:
  71:lib/lufa/LUFA/Drivers/USB/Class/Common/HIDParser.c **** 				ReportSize     -= 2;
 308               		.loc 1 71 0
 309 015a D601      		movw r26,r12
 310 015c 1196      		adiw r26,1
 311 015e 8D90      		ld r8,X+
 312 0160 9C90      		ld r9,X
 313 0162 1297      		sbiw r26,1+1
 314 0164 A12C      		mov r10,__zero_reg__
 315 0166 B12C      		mov r11,__zero_reg__
 316               	.LVL15:
  72:lib/lufa/LUFA/Drivers/USB/Class/Common/HIDParser.c **** 				ReportData     += 2;
 317               		.loc 1 72 0
 318 0168 E796      		adiw r28,117-62
 319 016a EEAD      		ldd r30,Y+62
 320 016c FFAD      		ldd r31,Y+63
 321 016e E797      		sbiw r28,117-62
 322 0170 3397      		sbiw r30,3
 323 0172 E796      		adiw r28,117-62
 324 0174 FFAF      		std Y+63,r31
 325 0176 EEAF      		std Y+62,r30
 326 0178 E797      		sbiw r28,117-62
 327               	.LVL16:
  73:lib/lufa/LUFA/Drivers/USB/Class/Common/HIDParser.c **** 				break;
 328               		.loc 1 73 0
 329 017a F3E0      		ldi r31,3
 330 017c CF0E      		add r12,r31
 331 017e D11C      		adc r13,__zero_reg__
 332               	.LVL17:
  74:lib/lufa/LUFA/Drivers/USB/Class/Common/HIDParser.c **** 
 333               		.loc 1 74 0
 334 0180 00C0      		rjmp .L7
 335               	.LVL18:
 336               	.L6:
  77:lib/lufa/LUFA/Drivers/USB/Class/Common/HIDParser.c **** 				ReportSize     -= 1;
 337               		.loc 1 77 0
 338 0182 D601      		movw r26,r12
 339 0184 1196      		adiw r26,1
 340 0186 8C90      		ld r8,X
 341 0188 912C      		mov r9,__zero_reg__
 342 018a A12C      		mov r10,__zero_reg__
 343 018c B12C      		mov r11,__zero_reg__
 344               	.LVL19:
  78:lib/lufa/LUFA/Drivers/USB/Class/Common/HIDParser.c **** 				ReportData     += 1;
 345               		.loc 1 78 0
 346 018e E796      		adiw r28,117-62
 347 0190 EEAD      		ldd r30,Y+62
 348 0192 FFAD      		ldd r31,Y+63
 349 0194 E797      		sbiw r28,117-62
 350 0196 3297      		sbiw r30,2
 351 0198 E796      		adiw r28,117-62
 352 019a FFAF      		std Y+63,r31
 353 019c EEAF      		std Y+62,r30
 354 019e E797      		sbiw r28,117-62
 355               	.LVL20:
  79:lib/lufa/LUFA/Drivers/USB/Class/Common/HIDParser.c **** 				break;
 356               		.loc 1 79 0
 357 01a0 F2E0      		ldi r31,2
 358 01a2 CF0E      		add r12,r31
 359 01a4 D11C      		adc r13,__zero_reg__
 360               	.LVL21:
 361               	.L7:
 362 01a6 EF96      		adiw r28,126-63
 363 01a8 1FAD      		ldd r17,Y+63
 364 01aa EF97      		sbiw r28,126-63
 365 01ac 1C7F      		andi r17,lo8(-4)
  87:lib/lufa/LUFA/Drivers/USB/Class/Common/HIDParser.c **** 		{
 366               		.loc 1 87 0
 367 01ae 1436      		cpi r17,lo8(100)
 368 01b0 01F4      		brne .+2
 369 01b2 00C0      		rjmp .L9
 370 01b4 00F4      		brsh .L10
 371 01b6 1432      		cpi r17,lo8(36)
 372 01b8 01F4      		brne .+2
 373 01ba 00C0      		rjmp .L11
 374 01bc 00F4      		brsh .L12
 375 01be 1830      		cpi r17,lo8(8)
 376 01c0 01F4      		brne .+2
 377 01c2 00C0      		rjmp .L13
 378 01c4 00F4      		brsh .L14
 379 01c6 1430      		cpi r17,lo8(4)
 380 01c8 01F0      		breq .+2
 381 01ca 00C0      		rjmp .L17
 111:lib/lufa/LUFA/Drivers/USB/Class/Common/HIDParser.c **** 				break;
 382               		.loc 1 111 0
 383 01cc D701      		movw r26,r14
 384 01ce 1296      		adiw r26,1+1
 385 01d0 9C92      		st X,r9
 386 01d2 8E92      		st -X,r8
 387 01d4 1197      		sbiw r26,1
 112:lib/lufa/LUFA/Drivers/USB/Class/Common/HIDParser.c **** 
 388               		.loc 1 112 0
 389 01d6 00C0      		rjmp .L17
 390               	.L14:
  87:lib/lufa/LUFA/Drivers/USB/Class/Common/HIDParser.c **** 		{
 391               		.loc 1 87 0
 392 01d8 1431      		cpi r17,lo8(20)
 393 01da 01F4      		brne .+2
 394 01dc 00C0      		rjmp .L16
 395 01de 1831      		cpi r17,lo8(24)
 396 01e0 01F0      		breq .+2
 397 01e2 00C0      		rjmp .L17
 185:lib/lufa/LUFA/Drivers/USB/Class/Common/HIDParser.c **** 				break;
 398               		.loc 1 185 0
 399 01e4 2401      		movw r4,r8
 400 01e6 3501      		movw r6,r10
 401               	.LVL22:
 402 01e8 00C0      		rjmp .L17
 403               	.LVL23:
 404               	.L12:
  87:lib/lufa/LUFA/Drivers/USB/Class/Common/HIDParser.c **** 		{
 405               		.loc 1 87 0
 406 01ea 1433      		cpi r17,lo8(52)
 407 01ec 01F4      		brne .+2
 408 01ee 00C0      		rjmp .L18
 409 01f0 00F4      		brsh .L19
 410 01f2 1832      		cpi r17,lo8(40)
 411 01f4 01F0      		breq .+2
 412 01f6 00C0      		rjmp .L17
 413               	.LVL24:
 189:lib/lufa/LUFA/Drivers/USB/Class/Common/HIDParser.c **** 				break;
 414               		.loc 1 189 0
 415 01f8 ED96      		adiw r28,121-60
 416 01fa 8CAE      		std Y+60,r8
 417 01fc 9DAE      		std Y+61,r9
 418 01fe AEAE      		std Y+62,r10
 419 0200 BFAE      		std Y+63,r11
 420 0202 ED97      		sbiw r28,121-60
 190:lib/lufa/LUFA/Drivers/USB/Class/Common/HIDParser.c **** 
 421               		.loc 1 190 0
 422 0204 00C0      		rjmp .L17
 423               	.LVL25:
 424               	.L19:
  87:lib/lufa/LUFA/Drivers/USB/Class/Common/HIDParser.c **** 		{
 425               		.loc 1 87 0
 426 0206 1434      		cpi r17,lo8(68)
 427 0208 01F4      		brne .+2
 428 020a 00C0      		rjmp .L21
 429 020c 1435      		cpi r17,lo8(84)
 430 020e 01F0      		breq .+2
 431 0210 00C0      		rjmp .L17
 131:lib/lufa/LUFA/Drivers/USB/Class/Common/HIDParser.c **** 				break;
 432               		.loc 1 131 0
 433 0212 F701      		movw r30,r14
 434 0214 8186      		std Z+9,r8
 132:lib/lufa/LUFA/Drivers/USB/Class/Common/HIDParser.c **** 
 435               		.loc 1 132 0
 436 0216 00C0      		rjmp .L17
 437               	.L10:
  87:lib/lufa/LUFA/Drivers/USB/Class/Common/HIDParser.c **** 		{
 438               		.loc 1 87 0
 439 0218 1439      		cpi r17,lo8(-108)
 440 021a 01F4      		brne .+2
 441 021c 00C0      		rjmp .L23
 442 021e 00F4      		brsh .L24
 443 0220 1038      		cpi r17,lo8(-128)
 444 0222 01F0      		breq .L25
 445 0224 00F4      		brsh .L26
 446 0226 1437      		cpi r17,lo8(116)
 447 0228 01F0      		breq .+2
 448 022a 00C0      		rjmp .L17
 139:lib/lufa/LUFA/Drivers/USB/Class/Common/HIDParser.c **** 				break;
 449               		.loc 1 139 0
 450 022c F701      		movw r30,r14
 451 022e 8082      		st Z,r8
 140:lib/lufa/LUFA/Drivers/USB/Class/Common/HIDParser.c **** 
 452               		.loc 1 140 0
 453 0230 00C0      		rjmp .L17
 454               	.L26:
  87:lib/lufa/LUFA/Drivers/USB/Class/Common/HIDParser.c **** 		{
 455               		.loc 1 87 0
 456 0232 1438      		cpi r17,lo8(-124)
 457 0234 01F4      		brne .+2
 458 0236 00C0      		rjmp .L28
 459 0238 1039      		cpi r17,lo8(-112)
 460 023a 01F0      		breq .L25
 461 023c 00C0      		rjmp .L17
 462               	.L24:
 463 023e 103B      		cpi r17,lo8(-80)
 464 0240 01F0      		breq .L25
 465 0242 00F4      		brsh .L29
 466 0244 103A      		cpi r17,lo8(-96)
 467 0246 01F4      		brne .+2
 468 0248 00C0      		rjmp .L30
 469 024a 143A      		cpi r17,lo8(-92)
 470 024c 01F0      		breq .L31
 471 024e 00C0      		rjmp .L17
 472               	.L29:
 473 0250 143B      		cpi r17,lo8(-76)
 474 0252 01F0      		breq .L32
 475 0254 103C      		cpi r17,lo8(-64)
 476 0256 01F4      		brne .+2
 477 0258 00C0      		rjmp .L33
 478 025a 00C0      		rjmp .L17
 479               	.L25:
  87:lib/lufa/LUFA/Drivers/USB/Class/Common/HIDParser.c **** 		{
 480               		.loc 1 87 0 is_stmt 0 discriminator 1
 481 025c EE96      		adiw r28,125-63
 482 025e 1FAE      		std Y+63,__zero_reg__
 483 0260 EE97      		sbiw r28,125-63
 484               	.LBB11:
 485               	.LBB6:
 283:lib/lufa/LUFA/Drivers/USB/Class/Common/HIDParser.c **** 
 284:lib/lufa/LUFA/Drivers/USB/Class/Common/HIDParser.c **** 					if (ParserData->TotalReportItems == HID_MAX_REPORTITEMS)
 285:lib/lufa/LUFA/Drivers/USB/Class/Common/HIDParser.c **** 					  return HID_PARSE_InsufficientReportItems;
 286:lib/lufa/LUFA/Drivers/USB/Class/Common/HIDParser.c **** 
 287:lib/lufa/LUFA/Drivers/USB/Class/Common/HIDParser.c **** 					memcpy(&ParserData->ReportItems[ParserData->TotalReportItems],
 288:lib/lufa/LUFA/Drivers/USB/Class/Common/HIDParser.c **** 					       &NewReportItem, sizeof(HID_ReportItem_t));
 289:lib/lufa/LUFA/Drivers/USB/Class/Common/HIDParser.c **** 
 290:lib/lufa/LUFA/Drivers/USB/Class/Common/HIDParser.c **** 					if (!(ReportItemData & HID_IOF_CONSTANT) && CALLBACK_HIDParser_FilterHIDReportItem(&NewReportI
 486               		.loc 1 290 0 is_stmt 1 discriminator 1
 487 0262 A501      		movw r20,r10
 488 0264 9401      		movw r18,r8
 489 0266 2170      		andi r18,1
 490 0268 3327      		clr r19
 491 026a 4427      		clr r20
 492 026c 5527      		clr r21
 493 026e CB57      		subi r28,lo8(-133)
 494 0270 DF4F      		sbci r29,hi8(-133)
 495 0272 2883      		st Y,r18
 496 0274 3983      		std Y+1,r19
 497 0276 4A83      		std Y+2,r20
 498 0278 5B83      		std Y+3,r21
 499 027a C558      		subi r28,lo8(133)
 500 027c D040      		sbci r29,hi8(133)
 501 027e 00C0      		rjmp .L34
 502               	.L31:
 503               	.LBE6:
 504               	.LBE11:
  90:lib/lufa/LUFA/Drivers/USB/Class/Common/HIDParser.c **** 				  return HID_PARSE_HIDStackOverflow;
 505               		.loc 1 90 0
 506 0280 CE01      		movw r24,r28
 507 0282 4D96      		adiw r24,29
 508 0284 E816      		cp r14,r24
 509 0286 F906      		cpc r15,r25
 510 0288 01F4      		brne .+2
 511 028a 00C0      		rjmp .L64
  93:lib/lufa/LUFA/Drivers/USB/Class/Common/HIDParser.c **** 				       CurrStateTable,
 512               		.loc 1 93 0
 513 028c 5701      		movw r10,r14
 514 028e 3CE1      		ldi r19,28
 515 0290 A30E      		add r10,r19
 516 0292 B11C      		adc r11,__zero_reg__
 517 0294 4AE2      		ldi r20,lo8(42)
 518 0296 50E0      		ldi r21,0
 519 0298 B701      		movw r22,r14
 520 029a C501      		movw r24,r10
 521 029c 0E94 0000 		call memmove
 522               	.LVL26:
  97:lib/lufa/LUFA/Drivers/USB/Class/Common/HIDParser.c **** 				break;
 523               		.loc 1 97 0
 524 02a0 7501      		movw r14,r10
  98:lib/lufa/LUFA/Drivers/USB/Class/Common/HIDParser.c **** 
 525               		.loc 1 98 0
 526 02a2 00C0      		rjmp .L17
 527               	.LVL27:
 528               	.L32:
 101:lib/lufa/LUFA/Drivers/USB/Class/Common/HIDParser.c **** 				  return HID_PARSE_HIDStackUnderflow;
 529               		.loc 1 101 0
 530 02a4 CE01      		movw r24,r28
 531 02a6 0196      		adiw r24,1
 532 02a8 8E15      		cp r24,r14
 533 02aa 9F05      		cpc r25,r15
 534 02ac 01F4      		brne .+2
 535 02ae 00C0      		rjmp .L65
 104:lib/lufa/LUFA/Drivers/USB/Class/Common/HIDParser.c **** 				break;
 536               		.loc 1 104 0
 537 02b0 4CE1      		ldi r20,28
 538 02b2 E41A      		sub r14,r20
 539 02b4 F108      		sbc r15,__zero_reg__
 540               	.LVL28:
 105:lib/lufa/LUFA/Drivers/USB/Class/Common/HIDParser.c **** 
 541               		.loc 1 105 0
 542 02b6 00C0      		rjmp .L17
 543               	.L16:
 115:lib/lufa/LUFA/Drivers/USB/Class/Common/HIDParser.c **** 				break;
 544               		.loc 1 115 0
 545 02b8 F701      		movw r30,r14
 546 02ba 8286      		std Z+10,r8
 547 02bc 9386      		std Z+11,r9
 548 02be A486      		std Z+12,r10
 549 02c0 B586      		std Z+13,r11
 116:lib/lufa/LUFA/Drivers/USB/Class/Common/HIDParser.c **** 
 550               		.loc 1 116 0
 551 02c2 00C0      		rjmp .L17
 552               	.L11:
 119:lib/lufa/LUFA/Drivers/USB/Class/Common/HIDParser.c **** 				break;
 553               		.loc 1 119 0
 554 02c4 D701      		movw r26,r14
 555 02c6 1E96      		adiw r26,14
 556 02c8 8D92      		st X+,r8
 557 02ca 9D92      		st X+,r9
 558 02cc AD92      		st X+,r10
 559 02ce BC92      		st X,r11
 560 02d0 5197      		sbiw r26,14+3
 120:lib/lufa/LUFA/Drivers/USB/Class/Common/HIDParser.c **** 
 561               		.loc 1 120 0
 562 02d2 00C0      		rjmp .L17
 563               	.L18:
 123:lib/lufa/LUFA/Drivers/USB/Class/Common/HIDParser.c **** 				break;
 564               		.loc 1 123 0
 565 02d4 F701      		movw r30,r14
 566 02d6 828A      		std Z+18,r8
 567 02d8 938A      		std Z+19,r9
 568 02da A48A      		std Z+20,r10
 569 02dc B58A      		std Z+21,r11
 124:lib/lufa/LUFA/Drivers/USB/Class/Common/HIDParser.c **** 
 570               		.loc 1 124 0
 571 02de 00C0      		rjmp .L17
 572               	.L21:
 127:lib/lufa/LUFA/Drivers/USB/Class/Common/HIDParser.c **** 				break;
 573               		.loc 1 127 0
 574 02e0 D701      		movw r26,r14
 575 02e2 5696      		adiw r26,22
 576 02e4 8D92      		st X+,r8
 577 02e6 9D92      		st X+,r9
 578 02e8 AD92      		st X+,r10
 579 02ea BC92      		st X,r11
 580 02ec 5997      		sbiw r26,22+3
 128:lib/lufa/LUFA/Drivers/USB/Class/Common/HIDParser.c **** 
 581               		.loc 1 128 0
 582 02ee 00C0      		rjmp .L17
 583               	.L9:
 135:lib/lufa/LUFA/Drivers/USB/Class/Common/HIDParser.c **** 				break;
 584               		.loc 1 135 0
 585 02f0 D701      		movw r26,r14
 586 02f2 1596      		adiw r26,5
 587 02f4 8D92      		st X+,r8
 588 02f6 9D92      		st X+,r9
 589 02f8 AD92      		st X+,r10
 590 02fa BC92      		st X,r11
 591 02fc 1897      		sbiw r26,5+3
 136:lib/lufa/LUFA/Drivers/USB/Class/Common/HIDParser.c **** 
 592               		.loc 1 136 0
 593 02fe 00C0      		rjmp .L17
 594               	.L23:
 143:lib/lufa/LUFA/Drivers/USB/Class/Common/HIDParser.c **** 				break;
 595               		.loc 1 143 0
 596 0300 D701      		movw r26,r14
 597 0302 5A96      		adiw r26,26
 598 0304 8C92      		st X,r8
 144:lib/lufa/LUFA/Drivers/USB/Class/Common/HIDParser.c **** 
 599               		.loc 1 144 0
 600 0306 00C0      		rjmp .L17
 601               	.L28:
 147:lib/lufa/LUFA/Drivers/USB/Class/Common/HIDParser.c **** 
 602               		.loc 1 147 0
 603 0308 982D      		mov r25,r8
 604 030a F701      		movw r30,r14
 605 030c 838E      		std Z+27,r8
 149:lib/lufa/LUFA/Drivers/USB/Class/Common/HIDParser.c **** 				{
 606               		.loc 1 149 0
 607 030e CD57      		subi r28,lo8(-131)
 608 0310 DF4F      		sbci r29,hi8(-131)
 609 0312 A881      		ld r26,Y
 610 0314 B981      		ldd r27,Y+1
 611 0316 C358      		subi r28,lo8(131)
 612 0318 D040      		sbci r29,hi8(131)
 613 031a 8C91      		ld r24,X
 614 031c 8823      		tst r24
 615 031e 01F4      		brne .+2
 616 0320 00C0      		rjmp .L36
 617               	.LBB12:
 153:lib/lufa/LUFA/Drivers/USB/Class/Common/HIDParser.c **** 					{
 618               		.loc 1 153 0
 619 0322 C557      		subi r28,lo8(-139)
 620 0324 DF4F      		sbci r29,hi8(-139)
 621 0326 E881      		ld r30,Y
 622 0328 F981      		ldd r31,Y+1
 623 032a CB58      		subi r28,lo8(139)
 624 032c D040      		sbci r29,hi8(139)
 625 032e 8081      		ld r24,Z
 626 0330 F101      		movw r30,r2
 627 0332 E057      		subi r30,112
 628 0334 FC4F      		sbci r31,-4
 629 0336 20E0      		ldi r18,0
 630 0338 30E0      		ldi r19,0
 631               	.L37:
 632               	.LVL29:
 153:lib/lufa/LUFA/Drivers/USB/Class/Common/HIDParser.c **** 					{
 633               		.loc 1 153 0 is_stmt 0 discriminator 1
 634 033a 2817      		cp r18,r24
 635 033c 00F4      		brsh .L92
 155:lib/lufa/LUFA/Drivers/USB/Class/Common/HIDParser.c **** 						{
 636               		.loc 1 155 0 is_stmt 1
 637 033e A901      		movw r20,r18
 638 0340 6081      		ld r22,Z
 639 0342 2F5F      		subi r18,-1
 640 0344 3F4F      		sbci r19,-1
 641               	.LVL30:
 642 0346 3796      		adiw r30,7
 643 0348 9613      		cpse r25,r22
 644 034a 00C0      		rjmp .L37
 157:lib/lufa/LUFA/Drivers/USB/Class/Common/HIDParser.c **** 							break;
 645               		.loc 1 157 0
 646 034c 27E0      		ldi r18,lo8(7)
 647 034e 249F      		mul r18,r20
 648 0350 C001      		movw r24,r0
 649 0352 259F      		mul r18,r21
 650 0354 900D      		add r25,r0
 651 0356 1124      		clr __zero_reg__
 652 0358 8057      		subi r24,112
 653 035a 9C4F      		sbci r25,-4
 654 035c 9101      		movw r18,r2
 655 035e 280F      		add r18,r24
 656 0360 391F      		adc r19,r25
 657 0362 E996      		adiw r28,119-62
 658 0364 3FAF      		std Y+63,r19
 659 0366 2EAF      		std Y+62,r18
 660 0368 E997      		sbiw r28,119-62
 661               	.LVL31:
 662 036a 00C0      		rjmp .L36
 663               	.LVL32:
 664               	.L92:
 665               	.LBE12:
 164:lib/lufa/LUFA/Drivers/USB/Class/Common/HIDParser.c **** 						  return HID_PARSE_InsufficientReportIDItems;
 666               		.loc 1 164 0
 667 036c 8A30      		cpi r24,lo8(10)
 668 036e 01F4      		brne .+2
 669 0370 00C0      		rjmp .L93
 167:lib/lufa/LUFA/Drivers/USB/Class/Common/HIDParser.c **** 						memset(CurrReportIDInfo, 0x00, sizeof(HID_ReportSizeInfo_t));
 670               		.loc 1 167 0
 671 0372 91E0      		ldi r25,lo8(1)
 672 0374 980F      		add r25,r24
 673 0376 C158      		subi r28,lo8(-127)
 674 0378 DF4F      		sbci r29,hi8(-127)
 675 037a A881      		ld r26,Y
 676 037c B981      		ldd r27,Y+1
 677 037e CF57      		subi r28,lo8(127)
 678 0380 D040      		sbci r29,hi8(127)
 679 0382 9C93      		st X,r25
 680 0384 97E0      		ldi r25,lo8(7)
 681 0386 9101      		movw r18,r2
 682               	.LVL33:
 683 0388 989F      		mul r25,r24
 684 038a 200D      		add r18,r0
 685 038c 311D      		adc r19,r1
 686 038e 1124      		clr __zero_reg__
 687 0390 F901      		movw r30,r18
 688 0392 E057      		subi r30,112
 689 0394 FC4F      		sbci r31,-4
 690 0396 E996      		adiw r28,119-62
 691 0398 FFAF      		std Y+63,r31
 692 039a EEAF      		std Y+62,r30
 693 039c E997      		sbiw r28,119-62
 694               	.LVL34:
 168:lib/lufa/LUFA/Drivers/USB/Class/Common/HIDParser.c **** 					}
 695               		.loc 1 168 0
 696               		0:
 697 039e 1192      		st Z+,__zero_reg__
 698 03a0 9A95      		dec r25
 699 03a2 01F4      		brne 0b
 700               	.LVL35:
 701               	.L36:
 172:lib/lufa/LUFA/Drivers/USB/Class/Common/HIDParser.c **** 
 702               		.loc 1 172 0
 703 03a4 81E0      		ldi r24,lo8(1)
 704 03a6 CD57      		subi r28,lo8(-131)
 705 03a8 DF4F      		sbci r29,hi8(-131)
 706 03aa A881      		ld r26,Y
 707 03ac B981      		ldd r27,Y+1
 708 03ae C358      		subi r28,lo8(131)
 709 03b0 D040      		sbci r29,hi8(131)
 710 03b2 8C93      		st X,r24
 174:lib/lufa/LUFA/Drivers/USB/Class/Common/HIDParser.c **** 				break;
 711               		.loc 1 174 0
 712 03b4 F701      		movw r30,r14
 713 03b6 838D      		ldd r24,Z+27
 714 03b8 E996      		adiw r28,119-62
 715 03ba AEAD      		ldd r26,Y+62
 716 03bc BFAD      		ldd r27,Y+63
 717 03be E997      		sbiw r28,119-62
 718 03c0 8C93      		st X,r24
 175:lib/lufa/LUFA/Drivers/USB/Class/Common/HIDParser.c **** 
 719               		.loc 1 175 0
 720 03c2 00C0      		rjmp .L17
 721               	.L13:
 178:lib/lufa/LUFA/Drivers/USB/Class/Common/HIDParser.c **** 				  return HID_PARSE_UsageListOverflow;
 722               		.loc 1 178 0
 723 03c4 0830      		cpi r16,lo8(8)
 724 03c6 01F4      		brne .+2
 725 03c8 00C0      		rjmp .L66
 726               	.LVL36:
 181:lib/lufa/LUFA/Drivers/USB/Class/Common/HIDParser.c **** 				break;
 727               		.loc 1 181 0
 728 03ca FE01      		movw r30,r28
 729 03cc ED59      		subi r30,-99
 730 03ce FF4F      		sbci r31,-1
 731 03d0 E00F      		add r30,r16
 732 03d2 F11D      		adc r31,__zero_reg__
 733 03d4 E00F      		add r30,r16
 734 03d6 F11D      		adc r31,__zero_reg__
 735 03d8 9182      		std Z+1,r9
 736 03da 8082      		st Z,r8
 737 03dc 0F5F      		subi r16,lo8(-(1))
 738               	.LVL37:
 182:lib/lufa/LUFA/Drivers/USB/Class/Common/HIDParser.c **** 
 739               		.loc 1 182 0
 740 03de 00C0      		rjmp .L17
 741               	.L30:
 193:lib/lufa/LUFA/Drivers/USB/Class/Common/HIDParser.c **** 				{
 742               		.loc 1 193 0
 743 03e0 E596      		adiw r28,115-62
 744 03e2 EEAD      		ldd r30,Y+62
 745 03e4 FFAD      		ldd r31,Y+63
 746 03e6 E597      		sbiw r28,115-62
 747 03e8 EF2B      		or r30,r31
 748 03ea 01F4      		brne .L40
 195:lib/lufa/LUFA/Drivers/USB/Class/Common/HIDParser.c **** 				}
 749               		.loc 1 195 0
 750 03ec 9101      		movw r18,r2
 751 03ee 275B      		subi r18,-73
 752 03f0 3C4F      		sbci r19,-4
 753 03f2 E596      		adiw r28,115-62
 754 03f4 3FAF      		std Y+63,r19
 755 03f6 2EAF      		std Y+62,r18
 756 03f8 E597      		sbiw r28,115-62
 757               	.LVL38:
 758 03fa 00C0      		rjmp .L41
 759               	.LVL39:
 760               	.L40:
 761               	.LBB13:
 201:lib/lufa/LUFA/Drivers/USB/Class/Common/HIDParser.c **** 
 762               		.loc 1 201 0
 763 03fc F101      		movw r30,r2
 764 03fe E05B      		subi r30,-80
 765 0400 FC4F      		sbci r31,-4
 766               	.LVL40:
 767               	.L42:
 203:lib/lufa/LUFA/Drivers/USB/Class/Common/HIDParser.c **** 					{
 768               		.loc 1 203 0
 769 0402 8581      		ldd r24,Z+5
 770 0404 9681      		ldd r25,Z+6
 771 0406 892B      		or r24,r25
 772 0408 01F0      		breq .L94
 205:lib/lufa/LUFA/Drivers/USB/Class/Common/HIDParser.c **** 						  return HID_PARSE_InsufficientCollectionPaths;
 773               		.loc 1 205 0
 774 040a C757      		subi r28,lo8(-137)
 775 040c DF4F      		sbci r29,hi8(-137)
 776 040e 4881      		ld r20,Y
 777 0410 5981      		ldd r21,Y+1
 778 0412 C958      		subi r28,lo8(137)
 779 0414 D040      		sbci r29,hi8(137)
 780 0416 E417      		cp r30,r20
 781 0418 F507      		cpc r31,r21
 782 041a 01F4      		brne .+2
 783 041c 00C0      		rjmp .L67
 208:lib/lufa/LUFA/Drivers/USB/Class/Common/HIDParser.c **** 					}
 784               		.loc 1 208 0
 785 041e 3796      		adiw r30,7
 786               	.LVL41:
 787 0420 00C0      		rjmp .L42
 788               	.L94:
 211:lib/lufa/LUFA/Drivers/USB/Class/Common/HIDParser.c **** 				}
 789               		.loc 1 211 0
 790 0422 E596      		adiw r28,115-62
 791 0424 8EAD      		ldd r24,Y+62
 792 0426 9FAD      		ldd r25,Y+63
 793 0428 E597      		sbiw r28,115-62
 794 042a 9683      		std Z+6,r25
 795 042c 8583      		std Z+5,r24
 796 042e E596      		adiw r28,115-62
 797 0430 FFAF      		std Y+63,r31
 798 0432 EEAF      		std Y+62,r30
 799 0434 E597      		sbiw r28,115-62
 800               	.LVL42:
 801               	.L41:
 802               	.LBE13:
 214:lib/lufa/LUFA/Drivers/USB/Class/Common/HIDParser.c **** 				CurrCollectionPath->Usage.Page = CurrStateTable->Attributes.Usage.Page;
 803               		.loc 1 214 0
 804 0436 E596      		adiw r28,115-62
 805 0438 AEAD      		ldd r26,Y+62
 806 043a BFAD      		ldd r27,Y+63
 807 043c E597      		sbiw r28,115-62
 808 043e 8C92      		st X,r8
 215:lib/lufa/LUFA/Drivers/USB/Class/Common/HIDParser.c **** 
 809               		.loc 1 215 0
 810 0440 F701      		movw r30,r14
 811 0442 8181      		ldd r24,Z+1
 812 0444 9281      		ldd r25,Z+2
 813 0446 1296      		adiw r26,1+1
 814 0448 9C93      		st X,r25
 815 044a 8E93      		st -X,r24
 816 044c 1197      		sbiw r26,1
 217:lib/lufa/LUFA/Drivers/USB/Class/Common/HIDParser.c **** 				{
 817               		.loc 1 217 0
 818 044e 0023      		tst r16
 819 0450 01F0      		breq .L44
 219:lib/lufa/LUFA/Drivers/USB/Class/Common/HIDParser.c **** 
 820               		.loc 1 219 0
 821 0452 A596      		adiw r28,99-62
 822 0454 8EAD      		ldd r24,Y+62
 823 0456 9FAD      		ldd r25,Y+63
 824 0458 A597      		sbiw r28,99-62
 825 045a 1496      		adiw r26,3+1
 826 045c 9C93      		st X,r25
 827 045e 8E93      		st -X,r24
 828 0460 1397      		sbiw r26,3
 829               	.LVL43:
 830 0462 FE01      		movw r30,r28
 831 0464 ED59      		subi r30,-99
 832 0466 FF4F      		sbci r31,-1
 833               	.LBB14:
 221:lib/lufa/LUFA/Drivers/USB/Class/Common/HIDParser.c **** 					  UsageList[i - 1] = UsageList[i];
 834               		.loc 1 221 0
 835 0468 81E0      		ldi r24,lo8(1)
 836               	.LVL44:
 837               	.L45:
 221:lib/lufa/LUFA/Drivers/USB/Class/Common/HIDParser.c **** 					  UsageList[i - 1] = UsageList[i];
 838               		.loc 1 221 0 is_stmt 0 discriminator 1
 839 046a 0817      		cp r16,r24
 840 046c 01F0      		breq .L95
 222:lib/lufa/LUFA/Drivers/USB/Class/Common/HIDParser.c **** 
 841               		.loc 1 222 0 is_stmt 1 discriminator 3
 842 046e 2281      		ldd r18,Z+2
 843 0470 3381      		ldd r19,Z+3
 844 0472 2193      		st Z+,r18
 845 0474 3193      		st Z+,r19
 221:lib/lufa/LUFA/Drivers/USB/Class/Common/HIDParser.c **** 					  UsageList[i - 1] = UsageList[i];
 846               		.loc 1 221 0 discriminator 3
 847 0476 8F5F      		subi r24,lo8(-(1))
 848               	.LVL45:
 849 0478 00C0      		rjmp .L45
 850               	.L95:
 851               	.LBE14:
 224:lib/lufa/LUFA/Drivers/USB/Class/Common/HIDParser.c **** 				}
 852               		.loc 1 224 0
 853 047a 0150      		subi r16,lo8(-(-1))
 854               	.LVL46:
 855 047c 00C0      		rjmp .L17
 856               	.LVL47:
 857               	.L44:
 226:lib/lufa/LUFA/Drivers/USB/Class/Common/HIDParser.c **** 				{
 858               		.loc 1 226 0
 859 047e ED96      		adiw r28,121-60
 860 0480 2CAD      		ldd r18,Y+60
 861 0482 3DAD      		ldd r19,Y+61
 862 0484 4EAD      		ldd r20,Y+62
 863 0486 5FAD      		ldd r21,Y+63
 864 0488 ED97      		sbiw r28,121-60
 865 048a 2415      		cp r18,r4
 866 048c 3505      		cpc r19,r5
 867 048e 4605      		cpc r20,r6
 868 0490 5705      		cpc r21,r7
 869 0492 00F4      		brsh .+2
 870 0494 00C0      		rjmp .L17
 871               	.LVL48:
 228:lib/lufa/LUFA/Drivers/USB/Class/Common/HIDParser.c **** 				}
 872               		.loc 1 228 0
 873 0496 E596      		adiw r28,115-62
 874 0498 AEAD      		ldd r26,Y+62
 875 049a BFAD      		ldd r27,Y+63
 876 049c E597      		sbiw r28,115-62
 877 049e 1496      		adiw r26,3+1
 878 04a0 5C92      		st X,r5
 879 04a2 4E92      		st -X,r4
 880 04a4 1397      		sbiw r26,3
 881 04a6 BFEF      		ldi r27,-1
 882 04a8 4B1A      		sub r4,r27
 883 04aa 5B0A      		sbc r5,r27
 884 04ac 6B0A      		sbc r6,r27
 885 04ae 7B0A      		sbc r7,r27
 886               	.LVL49:
 887 04b0 00C0      		rjmp .L17
 888               	.LVL50:
 889               	.L33:
 234:lib/lufa/LUFA/Drivers/USB/Class/Common/HIDParser.c **** 				  return HID_PARSE_UnexpectedEndCollection;
 890               		.loc 1 234 0
 891 04b2 E596      		adiw r28,115-62
 892 04b4 EEAD      		ldd r30,Y+62
 893 04b6 FFAD      		ldd r31,Y+63
 894 04b8 E597      		sbiw r28,115-62
 895 04ba 3097      		sbiw r30,0
 896 04bc 01F4      		brne .+2
 897 04be 00C0      		rjmp .L68
 237:lib/lufa/LUFA/Drivers/USB/Class/Common/HIDParser.c **** 				break;
 898               		.loc 1 237 0
 899 04c0 2581      		ldd r18,Z+5
 900 04c2 3681      		ldd r19,Z+6
 901 04c4 E596      		adiw r28,115-62
 902 04c6 3FAF      		std Y+63,r19
 903 04c8 2EAF      		std Y+62,r18
 904 04ca E597      		sbiw r28,115-62
 905               	.LVL51:
 238:lib/lufa/LUFA/Drivers/USB/Class/Common/HIDParser.c **** 
 906               		.loc 1 238 0
 907 04cc 00C0      		rjmp .L17
 908               	.LVL52:
 909               	.L55:
 910               	.LBB15:
 911               	.LBB7:
 287:lib/lufa/LUFA/Drivers/USB/Class/Common/HIDParser.c **** 					       &NewReportItem, sizeof(HID_ReportItem_t));
 912               		.loc 1 287 0
 913 04ce D101      		movw r26,r2
 914 04d0 EAE2      		ldi r30,lo8(42)
 915 04d2 E89F      		mul r30,r24
 916 04d4 A00D      		add r26,r0
 917 04d6 B11D      		adc r27,r1
 918 04d8 1124      		clr __zero_reg__
 919 04da 1196      		adiw r26,1
 920 04dc FE01      		movw r30,r28
 921 04de F996      		adiw r30,57
 922 04e0 8AE2      		ldi r24,lo8(42)
 923               		0:
 924 04e2 0190      		ld r0,Z+
 925 04e4 0D92      		st X+,r0
 926 04e6 8A95      		dec r24
 927 04e8 01F4      		brne 0b
 928               		.loc 1 290 0
 929 04ea CB57      		subi r28,lo8(-133)
 930 04ec DF4F      		sbci r29,hi8(-133)
 931 04ee 2881      		ld r18,Y
 932 04f0 3981      		ldd r19,Y+1
 933 04f2 4A81      		ldd r20,Y+2
 934 04f4 5B81      		ldd r21,Y+3
 935 04f6 C558      		subi r28,lo8(133)
 936 04f8 D040      		sbci r29,hi8(133)
 937 04fa 232B      		or r18,r19
 938 04fc 242B      		or r18,r20
 939 04fe 252B      		or r18,r21
 940 0500 01F4      		brne .+2
 941 0502 00C0      		rjmp .L96
 942               	.LVL53:
 943               	.L57:
 944               	.LBE7:
 243:lib/lufa/LUFA/Drivers/USB/Class/Common/HIDParser.c **** 				{
 945               		.loc 1 243 0
 946 0504 EE96      		adiw r28,125-63
 947 0506 BFAD      		ldd r27,Y+63
 948 0508 EE97      		sbiw r28,125-63
 949 050a BF5F      		subi r27,lo8(-(1))
 950 050c EE96      		adiw r28,125-63
 951 050e BFAF      		std Y+63,r27
 952 0510 EE97      		sbiw r28,125-63
 953               	.LVL54:
 954               	.L34:
 243:lib/lufa/LUFA/Drivers/USB/Class/Common/HIDParser.c **** 				{
 955               		.loc 1 243 0 is_stmt 0 discriminator 1
 956 0512 F701      		movw r30,r14
 957 0514 828D      		ldd r24,Z+26
 958 0516 EE96      		adiw r28,125-63
 959 0518 FFAD      		ldd r31,Y+63
 960 051a EE97      		sbiw r28,125-63
 961 051c F817      		cp r31,r24
 962 051e 00F0      		brlo .+2
 963 0520 00C0      		rjmp .L17
 964               	.LBB8:
 247:lib/lufa/LUFA/Drivers/USB/Class/Common/HIDParser.c **** 					       &CurrStateTable->Attributes,
 965               		.loc 1 247 0 is_stmt 1
 966 0522 8AE1      		ldi r24,lo8(26)
 967 0524 F701      		movw r30,r14
 968 0526 DE01      		movw r26,r28
 969 0528 AF5B      		subi r26,-65
 970 052a BF4F      		sbci r27,-1
 971               		0:
 972 052c 0190      		ld r0,Z+
 973 052e 0D92      		st X+,r0
 974 0530 8A95      		dec r24
 975 0532 01F4      		brne 0b
 251:lib/lufa/LUFA/Drivers/USB/Class/Common/HIDParser.c **** 					NewReportItem.CollectionPath = CurrCollectionPath;
 976               		.loc 1 251 0
 977 0534 9DAE      		std Y+61,r9
 978 0536 8CAE      		std Y+60,r8
 252:lib/lufa/LUFA/Drivers/USB/Class/Common/HIDParser.c **** 					NewReportItem.ReportID       = CurrStateTable->ReportID;
 979               		.loc 1 252 0
 980 0538 E596      		adiw r28,115-62
 981 053a 4EAD      		ldd r20,Y+62
 982 053c 5FAD      		ldd r21,Y+63
 983 053e E597      		sbiw r28,115-62
 984 0540 2196      		adiw r28,63-62
 985 0542 5FAF      		std Y+63,r21
 986 0544 4EAF      		std Y+62,r20
 987 0546 2197      		sbiw r28,63-62
 253:lib/lufa/LUFA/Drivers/USB/Class/Common/HIDParser.c **** 
 988               		.loc 1 253 0
 989 0548 D701      		movw r26,r14
 990 054a 5B96      		adiw r26,27
 991 054c 8C91      		ld r24,X
 992 054e 8EAF      		std Y+62,r24
 255:lib/lufa/LUFA/Drivers/USB/Class/Common/HIDParser.c **** 					{
 993               		.loc 1 255 0
 994 0550 0023      		tst r16
 995 0552 01F0      		breq .L47
 257:lib/lufa/LUFA/Drivers/USB/Class/Common/HIDParser.c **** 
 996               		.loc 1 257 0
 997 0554 A596      		adiw r28,99-62
 998 0556 8EAD      		ldd r24,Y+62
 999 0558 9FAD      		ldd r25,Y+63
 1000 055a A597      		sbiw r28,99-62
 1001 055c 2696      		adiw r28,68-62
 1002 055e 9FAF      		std Y+63,r25
 1003 0560 8EAF      		std Y+62,r24
 1004 0562 2697      		sbiw r28,68-62
 1005               	.LVL55:
 1006 0564 FE01      		movw r30,r28
 1007 0566 ED59      		subi r30,-99
 1008 0568 FF4F      		sbci r31,-1
 1009               	.LBB5:
 259:lib/lufa/LUFA/Drivers/USB/Class/Common/HIDParser.c **** 						  UsageList[i - 1] = UsageList[i];
 1010               		.loc 1 259 0
 1011 056a 81E0      		ldi r24,lo8(1)
 1012               	.LVL56:
 1013               	.L48:
 259:lib/lufa/LUFA/Drivers/USB/Class/Common/HIDParser.c **** 						  UsageList[i - 1] = UsageList[i];
 1014               		.loc 1 259 0 is_stmt 0 discriminator 1
 1015 056c 0817      		cp r16,r24
 1016 056e 01F0      		breq .L97
 260:lib/lufa/LUFA/Drivers/USB/Class/Common/HIDParser.c **** 
 1017               		.loc 1 260 0 is_stmt 1 discriminator 3
 1018 0570 2281      		ldd r18,Z+2
 1019 0572 3381      		ldd r19,Z+3
 1020 0574 2193      		st Z+,r18
 1021 0576 3193      		st Z+,r19
 259:lib/lufa/LUFA/Drivers/USB/Class/Common/HIDParser.c **** 						  UsageList[i - 1] = UsageList[i];
 1022               		.loc 1 259 0 discriminator 3
 1023 0578 8F5F      		subi r24,lo8(-(1))
 1024               	.LVL57:
 1025 057a 00C0      		rjmp .L48
 1026               	.L97:
 1027               	.LBE5:
 262:lib/lufa/LUFA/Drivers/USB/Class/Common/HIDParser.c **** 					}
 1028               		.loc 1 262 0
 1029 057c 0150      		subi r16,lo8(-(-1))
 1030               	.LVL58:
 1031 057e 00C0      		rjmp .L50
 1032               	.LVL59:
 1033               	.L47:
 264:lib/lufa/LUFA/Drivers/USB/Class/Common/HIDParser.c **** 					{
 1034               		.loc 1 264 0
 1035 0580 ED96      		adiw r28,121-60
 1036 0582 2CAD      		ldd r18,Y+60
 1037 0584 3DAD      		ldd r19,Y+61
 1038 0586 4EAD      		ldd r20,Y+62
 1039 0588 5FAD      		ldd r21,Y+63
 1040 058a ED97      		sbiw r28,121-60
 1041 058c 2415      		cp r18,r4
 1042 058e 3505      		cpc r19,r5
 1043 0590 4605      		cpc r20,r6
 1044 0592 5705      		cpc r21,r7
 1045 0594 00F0      		brlo .L50
 1046               	.LVL60:
 266:lib/lufa/LUFA/Drivers/USB/Class/Common/HIDParser.c **** 					}
 1047               		.loc 1 266 0
 1048 0596 2696      		adiw r28,68-62
 1049 0598 5FAE      		std Y+63,r5
 1050 059a 4EAE      		std Y+62,r4
 1051 059c 2697      		sbiw r28,68-62
 1052 059e 3FEF      		ldi r19,-1
 1053 05a0 431A      		sub r4,r19
 1054 05a2 530A      		sbc r5,r19
 1055 05a4 630A      		sbc r6,r19
 1056 05a6 730A      		sbc r7,r19
 1057               	.LVL61:
 1058               	.L50:
 271:lib/lufa/LUFA/Drivers/USB/Class/Common/HIDParser.c **** 					  NewReportItem.ItemType = HID_REPORT_ITEM_In;
 1059               		.loc 1 271 0
 1060 05a8 1038      		cpi r17,lo8(-128)
 1061 05aa 01F4      		brne .L51
 272:lib/lufa/LUFA/Drivers/USB/Class/Common/HIDParser.c **** 					else if (ItemTypeTag == HID_RI_OUTPUT(0))
 1062               		.loc 1 272 0
 1063 05ac 1BAE      		std Y+59,__zero_reg__
 1064 05ae 00C0      		rjmp .L52
 1065               	.L51:
 273:lib/lufa/LUFA/Drivers/USB/Class/Common/HIDParser.c **** 					  NewReportItem.ItemType = HID_REPORT_ITEM_Out;
 1066               		.loc 1 273 0
 1067 05b0 1039      		cpi r17,lo8(-112)
 1068 05b2 01F4      		brne .L53
 274:lib/lufa/LUFA/Drivers/USB/Class/Common/HIDParser.c **** 					else
 1069               		.loc 1 274 0
 1070 05b4 41E0      		ldi r20,lo8(1)
 1071 05b6 4BAF      		std Y+59,r20
 1072 05b8 00C0      		rjmp .L52
 1073               	.L53:
 276:lib/lufa/LUFA/Drivers/USB/Class/Common/HIDParser.c **** 
 1074               		.loc 1 276 0
 1075 05ba 52E0      		ldi r21,lo8(2)
 1076 05bc 5BAF      		std Y+59,r21
 1077               	.L52:
 278:lib/lufa/LUFA/Drivers/USB/Class/Common/HIDParser.c **** 
 1078               		.loc 1 278 0
 1079 05be 8BAD      		ldd r24,Y+59
 1080 05c0 E996      		adiw r28,119-62
 1081 05c2 EEAD      		ldd r30,Y+62
 1082 05c4 FFAD      		ldd r31,Y+63
 1083 05c6 E997      		sbiw r28,119-62
 1084 05c8 E80F      		add r30,r24
 1085 05ca F11D      		adc r31,__zero_reg__
 1086 05cc E80F      		add r30,r24
 1087 05ce F11D      		adc r31,__zero_reg__
 1088 05d0 8181      		ldd r24,Z+1
 1089 05d2 9281      		ldd r25,Z+2
 1090 05d4 9AAF      		std Y+58,r25
 1091 05d6 89AF      		std Y+57,r24
 280:lib/lufa/LUFA/Drivers/USB/Class/Common/HIDParser.c **** 
 1092               		.loc 1 280 0
 1093 05d8 D701      		movw r26,r14
 1094 05da 2C91      		ld r18,X
 1095 05dc 8181      		ldd r24,Z+1
 1096 05de 9281      		ldd r25,Z+2
 1097 05e0 820F      		add r24,r18
 1098 05e2 911D      		adc r25,__zero_reg__
 1099 05e4 9283      		std Z+2,r25
 1100 05e6 8183      		std Z+1,r24
 282:lib/lufa/LUFA/Drivers/USB/Class/Common/HIDParser.c **** 
 1101               		.loc 1 282 0
 1102 05e8 8BAD      		ldd r24,Y+59
 1103 05ea E996      		adiw r28,119-62
 1104 05ec EEAD      		ldd r30,Y+62
 1105 05ee FFAD      		ldd r31,Y+63
 1106 05f0 E997      		sbiw r28,119-62
 1107 05f2 E80F      		add r30,r24
 1108 05f4 F11D      		adc r31,__zero_reg__
 1109 05f6 E80F      		add r30,r24
 1110 05f8 F11D      		adc r31,__zero_reg__
 1111 05fa CF57      		subi r28,lo8(-129)
 1112 05fc DF4F      		sbci r29,hi8(-129)
 1113 05fe A881      		ld r26,Y
 1114 0600 B981      		ldd r27,Y+1
 1115 0602 C158      		subi r28,lo8(129)
 1116 0604 D040      		sbci r29,hi8(129)
 1117 0606 2D91      		ld r18,X+
 1118 0608 3C91      		ld r19,X
 1119 060a 8181      		ldd r24,Z+1
 1120 060c 9281      		ldd r25,Z+2
 1121 060e 8217      		cp r24,r18
 1122 0610 9307      		cpc r25,r19
 1123 0612 00F4      		brsh .L54
 1124 0614 C901      		movw r24,r18
 1125               	.L54:
 1126 0616 CF57      		subi r28,lo8(-129)
 1127 0618 DF4F      		sbci r29,hi8(-129)
 1128 061a E881      		ld r30,Y
 1129 061c F981      		ldd r31,Y+1
 1130 061e C158      		subi r28,lo8(129)
 1131 0620 D040      		sbci r29,hi8(129)
 1132 0622 9183      		std Z+1,r25
 1133 0624 8083      		st Z,r24
 284:lib/lufa/LUFA/Drivers/USB/Class/Common/HIDParser.c **** 					  return HID_PARSE_InsufficientReportItems;
 1134               		.loc 1 284 0
 1135 0626 D101      		movw r26,r2
 1136 0628 8C91      		ld r24,X
 1137 062a 8431      		cpi r24,lo8(20)
 1138 062c 01F0      		breq .+2
 1139 062e 00C0      		rjmp .L55
 285:lib/lufa/LUFA/Drivers/USB/Class/Common/HIDParser.c **** 
 1140               		.loc 1 285 0
 1141 0630 83E0      		ldi r24,lo8(3)
 1142 0632 00C0      		rjmp .L88
 1143               	.L96:
 1144               		.loc 1 290 0 discriminator 1
 1145 0634 CE01      		movw r24,r28
 1146 0636 C996      		adiw r24,57
 1147 0638 0E94 0000 		call CALLBACK_HIDParser_FilterHIDReportItem
 1148               	.LVL62:
 1149 063c 8823      		tst r24
 1150 063e 01F4      		brne .+2
 1151 0640 00C0      		rjmp .L57
 291:lib/lufa/LUFA/Drivers/USB/Class/Common/HIDParser.c **** 					  ParserData->TotalReportItems++;
 1152               		.loc 1 291 0
 1153 0642 D101      		movw r26,r2
 1154 0644 8C91      		ld r24,X
 1155 0646 8F5F      		subi r24,lo8(-(1))
 1156 0648 8C93      		st X,r24
 1157 064a 00C0      		rjmp .L57
 1158               	.LVL63:
 1159               	.L17:
 1160               	.LBE8:
 1161               	.LBE15:
 292:lib/lufa/LUFA/Drivers/USB/Class/Common/HIDParser.c **** 				}
 293:lib/lufa/LUFA/Drivers/USB/Class/Common/HIDParser.c **** 
 294:lib/lufa/LUFA/Drivers/USB/Class/Common/HIDParser.c **** 				break;
 295:lib/lufa/LUFA/Drivers/USB/Class/Common/HIDParser.c **** 
 296:lib/lufa/LUFA/Drivers/USB/Class/Common/HIDParser.c **** 			default:
 297:lib/lufa/LUFA/Drivers/USB/Class/Common/HIDParser.c **** 				break;
 298:lib/lufa/LUFA/Drivers/USB/Class/Common/HIDParser.c **** 		}
 299:lib/lufa/LUFA/Drivers/USB/Class/Common/HIDParser.c **** 
 300:lib/lufa/LUFA/Drivers/USB/Class/Common/HIDParser.c **** 		if ((HIDReportItem & HID_RI_TYPE_MASK) == HID_RI_TYPE_MAIN)
 1162               		.loc 1 300 0
 1163 064c EF96      		adiw r28,126-63
 1164 064e 8FAD      		ldd r24,Y+63
 1165 0650 EF97      		sbiw r28,126-63
 1166 0652 8C70      		andi r24,lo8(12)
 1167 0654 01F0      		breq .+2
 1168 0656 00C0      		rjmp .L2
 301:lib/lufa/LUFA/Drivers/USB/Class/Common/HIDParser.c **** 		{
 302:lib/lufa/LUFA/Drivers/USB/Class/Common/HIDParser.c **** 			UsageMinMax.Minimum = 0;
 303:lib/lufa/LUFA/Drivers/USB/Class/Common/HIDParser.c **** 			UsageMinMax.Maximum = 0;
 1169               		.loc 1 303 0
 1170 0658 ED96      		adiw r28,121-60
 1171 065a 1CAE      		std Y+60,__zero_reg__
 1172 065c 1DAE      		std Y+61,__zero_reg__
 1173 065e 1EAE      		std Y+62,__zero_reg__
 1174 0660 1FAE      		std Y+63,__zero_reg__
 1175 0662 ED97      		sbiw r28,121-60
 1176               	.LVL64:
 302:lib/lufa/LUFA/Drivers/USB/Class/Common/HIDParser.c **** 			UsageMinMax.Maximum = 0;
 1177               		.loc 1 302 0
 1178 0664 412C      		mov r4,__zero_reg__
 1179 0666 512C      		mov r5,__zero_reg__
 1180 0668 3201      		movw r6,r4
 1181               	.LVL65:
 304:lib/lufa/LUFA/Drivers/USB/Class/Common/HIDParser.c **** 			UsageListSize       = 0;
 1182               		.loc 1 304 0
 1183 066a 00E0      		ldi r16,0
 1184               	.LVL66:
 1185 066c 00C0      		rjmp .L2
 1186               	.LVL67:
 1187               	.L91:
 1188               	.LBE17:
 305:lib/lufa/LUFA/Drivers/USB/Class/Common/HIDParser.c **** 		}
 306:lib/lufa/LUFA/Drivers/USB/Class/Common/HIDParser.c **** 	}
 307:lib/lufa/LUFA/Drivers/USB/Class/Common/HIDParser.c **** 
 308:lib/lufa/LUFA/Drivers/USB/Class/Common/HIDParser.c **** 	if (!(ParserData->TotalReportItems))
 1189               		.loc 1 308 0
 1190 066e D101      		movw r26,r2
 1191 0670 8C91      		ld r24,X
 1192 0672 8823      		tst r24
 1193 0674 01F0      		breq .L69
 309:lib/lufa/LUFA/Drivers/USB/Class/Common/HIDParser.c **** 	  return HID_PARSE_NoUnfilteredReportItems;
 310:lib/lufa/LUFA/Drivers/USB/Class/Common/HIDParser.c **** 
 311:lib/lufa/LUFA/Drivers/USB/Class/Common/HIDParser.c **** 	return HID_PARSE_Successful;
 1194               		.loc 1 311 0
 1195 0676 80E0      		ldi r24,0
 1196 0678 00C0      		rjmp .L88
 1197               	.LVL68:
 1198               	.L64:
 1199               	.LBB18:
  91:lib/lufa/LUFA/Drivers/USB/Class/Common/HIDParser.c **** 
 1200               		.loc 1 91 0
 1201 067a 81E0      		ldi r24,lo8(1)
 1202 067c 00C0      		rjmp .L88
 1203               	.L65:
 102:lib/lufa/LUFA/Drivers/USB/Class/Common/HIDParser.c **** 
 1204               		.loc 1 102 0
 1205 067e 82E0      		ldi r24,lo8(2)
 1206 0680 00C0      		rjmp .L88
 1207               	.L66:
 179:lib/lufa/LUFA/Drivers/USB/Class/Common/HIDParser.c **** 
 1208               		.loc 1 179 0
 1209 0682 86E0      		ldi r24,lo8(6)
 1210 0684 00C0      		rjmp .L88
 1211               	.LVL69:
 1212               	.L67:
 1213               	.LBB16:
 206:lib/lufa/LUFA/Drivers/USB/Class/Common/HIDParser.c **** 
 1214               		.loc 1 206 0
 1215 0686 85E0      		ldi r24,lo8(5)
 1216 0688 00C0      		rjmp .L88
 1217               	.LVL70:
 1218               	.L68:
 1219               	.LBE16:
 235:lib/lufa/LUFA/Drivers/USB/Class/Common/HIDParser.c **** 
 1220               		.loc 1 235 0
 1221 068a 84E0      		ldi r24,lo8(4)
 1222 068c 00C0      		rjmp .L88
 1223               	.LVL71:
 1224               	.L69:
 1225               	.LBE18:
 309:lib/lufa/LUFA/Drivers/USB/Class/Common/HIDParser.c **** 
 1226               		.loc 1 309 0
 1227 068e 88E0      		ldi r24,lo8(8)
 1228 0690 00C0      		rjmp .L88
 1229               	.LVL72:
 1230               	.L93:
 1231               	.LBB19:
 165:lib/lufa/LUFA/Drivers/USB/Class/Common/HIDParser.c **** 
 1232               		.loc 1 165 0
 1233 0692 87E0      		ldi r24,lo8(7)
 1234               	.LVL73:
 1235               	.L88:
 1236               	/* epilogue start */
 1237               	.LBE19:
 312:lib/lufa/LUFA/Drivers/USB/Class/Common/HIDParser.c **** }
 1238               		.loc 1 312 0
 1239 0694 C457      		subi r28,116
 1240 0696 DF4F      		sbci r29,-1
 1241 0698 0FB6      		in __tmp_reg__,__SREG__
 1242 069a F894      		cli
 1243 069c DEBF      		out __SP_H__,r29
 1244 069e 0FBE      		out __SREG__,__tmp_reg__
 1245 06a0 CDBF      		out __SP_L__,r28
 1246 06a2 DF91      		pop r29
 1247 06a4 CF91      		pop r28
 1248 06a6 1F91      		pop r17
 1249 06a8 0F91      		pop r16
 1250               	.LVL74:
 1251 06aa FF90      		pop r15
 1252 06ac EF90      		pop r14
 1253               	.LVL75:
 1254 06ae DF90      		pop r13
 1255 06b0 CF90      		pop r12
 1256               	.LVL76:
 1257 06b2 BF90      		pop r11
 1258 06b4 AF90      		pop r10
 1259 06b6 9F90      		pop r9
 1260 06b8 8F90      		pop r8
 1261 06ba 7F90      		pop r7
 1262 06bc 6F90      		pop r6
 1263 06be 5F90      		pop r5
 1264 06c0 4F90      		pop r4
 1265               	.LVL77:
 1266 06c2 3F90      		pop r3
 1267 06c4 2F90      		pop r2
 1268               	.LVL78:
 1269 06c6 0895      		ret
 1270               		.cfi_endproc
 1271               	.LFE16:
 1273               		.section	.text.USB_GetHIDReportItemInfo,"ax",@progbits
 1274               	.global	USB_GetHIDReportItemInfo
 1276               	USB_GetHIDReportItemInfo:
 1277               	.LFB17:
 313:lib/lufa/LUFA/Drivers/USB/Class/Common/HIDParser.c **** 
 314:lib/lufa/LUFA/Drivers/USB/Class/Common/HIDParser.c **** bool USB_GetHIDReportItemInfo(const uint8_t* ReportData,
 315:lib/lufa/LUFA/Drivers/USB/Class/Common/HIDParser.c ****                               HID_ReportItem_t* const ReportItem)
 316:lib/lufa/LUFA/Drivers/USB/Class/Common/HIDParser.c **** {
 1278               		.loc 1 316 0
 1279               		.cfi_startproc
 1280               	.LVL79:
 1281 0000 8F92      		push r8
 1282               	.LCFI20:
 1283               		.cfi_def_cfa_offset 3
 1284               		.cfi_offset 8, -2
 1285 0002 9F92      		push r9
 1286               	.LCFI21:
 1287               		.cfi_def_cfa_offset 4
 1288               		.cfi_offset 9, -3
 1289 0004 AF92      		push r10
 1290               	.LCFI22:
 1291               		.cfi_def_cfa_offset 5
 1292               		.cfi_offset 10, -4
 1293 0006 BF92      		push r11
 1294               	.LCFI23:
 1295               		.cfi_def_cfa_offset 6
 1296               		.cfi_offset 11, -5
 1297 0008 CF92      		push r12
 1298               	.LCFI24:
 1299               		.cfi_def_cfa_offset 7
 1300               		.cfi_offset 12, -6
 1301 000a DF92      		push r13
 1302               	.LCFI25:
 1303               		.cfi_def_cfa_offset 8
 1304               		.cfi_offset 13, -7
 1305 000c EF92      		push r14
 1306               	.LCFI26:
 1307               		.cfi_def_cfa_offset 9
 1308               		.cfi_offset 14, -8
 1309 000e FF92      		push r15
 1310               	.LCFI27:
 1311               		.cfi_def_cfa_offset 10
 1312               		.cfi_offset 15, -9
 1313               	/* prologue: function */
 1314               	/* frame size = 0 */
 1315               	/* stack size = 8 */
 1316               	.L__stack_usage = 8
 1317 0010 FB01      		movw r30,r22
 317:lib/lufa/LUFA/Drivers/USB/Class/Common/HIDParser.c **** 	if (ReportItem == NULL)
 1318               		.loc 1 317 0
 1319 0012 3097      		sbiw r30,0
 1320 0014 01F4      		brne .+2
 1321 0016 00C0      		rjmp .L105
 1322               	.LVL80:
 318:lib/lufa/LUFA/Drivers/USB/Class/Common/HIDParser.c **** 	  return false;
 319:lib/lufa/LUFA/Drivers/USB/Class/Common/HIDParser.c **** 
 320:lib/lufa/LUFA/Drivers/USB/Class/Common/HIDParser.c **** 	uint16_t DataBitsRem  = ReportItem->Attributes.BitSize;
 321:lib/lufa/LUFA/Drivers/USB/Class/Common/HIDParser.c **** 	uint16_t CurrentBit   = ReportItem->BitOffset;
 322:lib/lufa/LUFA/Drivers/USB/Class/Common/HIDParser.c **** 	uint32_t BitMask      = (1 << 0);
 323:lib/lufa/LUFA/Drivers/USB/Class/Common/HIDParser.c **** 
 324:lib/lufa/LUFA/Drivers/USB/Class/Common/HIDParser.c **** 	if (ReportItem->ReportID)
 1323               		.loc 1 324 0
 1324 0018 2581      		ldd r18,Z+5
 1325 001a 2223      		tst r18
 1326 001c 01F0      		breq .L100
 325:lib/lufa/LUFA/Drivers/USB/Class/Common/HIDParser.c **** 	{
 326:lib/lufa/LUFA/Drivers/USB/Class/Common/HIDParser.c **** 		if (ReportItem->ReportID != ReportData[0])
 1327               		.loc 1 326 0
 1328 001e DC01      		movw r26,r24
 1329 0020 3C91      		ld r19,X
 1330 0022 2313      		cpse r18,r19
 1331 0024 00C0      		rjmp .L105
 327:lib/lufa/LUFA/Drivers/USB/Class/Common/HIDParser.c **** 		  return false;
 328:lib/lufa/LUFA/Drivers/USB/Class/Common/HIDParser.c **** 
 329:lib/lufa/LUFA/Drivers/USB/Class/Common/HIDParser.c **** 		ReportData++;
 1332               		.loc 1 329 0
 1333 0026 0196      		adiw r24,1
 1334               	.LVL81:
 1335               	.L100:
 320:lib/lufa/LUFA/Drivers/USB/Class/Common/HIDParser.c **** 	uint16_t CurrentBit   = ReportItem->BitOffset;
 1336               		.loc 1 320 0
 1337 0028 2085      		ldd r18,Z+8
 1338 002a 30E0      		ldi r19,0
 321:lib/lufa/LUFA/Drivers/USB/Class/Common/HIDParser.c **** 	uint32_t BitMask      = (1 << 0);
 1339               		.loc 1 321 0
 1340 002c 6081      		ld r22,Z
 1341 002e 7181      		ldd r23,Z+1
 1342               	.LVL82:
 330:lib/lufa/LUFA/Drivers/USB/Class/Common/HIDParser.c **** 	}
 331:lib/lufa/LUFA/Drivers/USB/Class/Common/HIDParser.c **** 
 332:lib/lufa/LUFA/Drivers/USB/Class/Common/HIDParser.c **** 	ReportItem->PreviousValue = ReportItem->Value;
 1343               		.loc 1 332 0
 1344 0030 C2A0      		ldd r12,Z+34
 1345 0032 D3A0      		ldd r13,Z+35
 1346 0034 E4A0      		ldd r14,Z+36
 1347 0036 F5A0      		ldd r15,Z+37
 1348 0038 C6A2      		std Z+38,r12
 1349 003a D7A2      		std Z+39,r13
 1350 003c E0A6      		std Z+40,r14
 1351 003e F1A6      		std Z+41,r15
 333:lib/lufa/LUFA/Drivers/USB/Class/Common/HIDParser.c **** 	ReportItem->Value = 0;
 1352               		.loc 1 333 0
 1353 0040 12A2      		std Z+34,__zero_reg__
 1354 0042 13A2      		std Z+35,__zero_reg__
 1355 0044 14A2      		std Z+36,__zero_reg__
 1356 0046 15A2      		std Z+37,__zero_reg__
 322:lib/lufa/LUFA/Drivers/USB/Class/Common/HIDParser.c **** 
 1357               		.loc 1 322 0
 1358 0048 C12C      		mov r12,__zero_reg__
 1359 004a D12C      		mov r13,__zero_reg__
 1360 004c 7601      		movw r14,r12
 1361 004e C394      		inc r12
 1362               	.LVL83:
 1363               	.L101:
 334:lib/lufa/LUFA/Drivers/USB/Class/Common/HIDParser.c **** 
 335:lib/lufa/LUFA/Drivers/USB/Class/Common/HIDParser.c **** 	while (DataBitsRem--)
 1364               		.loc 1 335 0
 1365               	.LVL84:
 1366 0050 2150      		subi r18,1
 1367 0052 3109      		sbc r19,__zero_reg__
 1368 0054 00F0      		brcs .L112
 336:lib/lufa/LUFA/Drivers/USB/Class/Common/HIDParser.c **** 	{
 337:lib/lufa/LUFA/Drivers/USB/Class/Common/HIDParser.c **** 		if (ReportData[CurrentBit / 8] & (1 << (CurrentBit % 8)))
 1369               		.loc 1 337 0
 1370 0056 DB01      		movw r26,r22
 1371 0058 53E0      		ldi r21,3
 1372               		1:
 1373 005a B695      		lsr r27
 1374 005c A795      		ror r26
 1375 005e 5A95      		dec r21
 1376 0060 01F4      		brne 1b
 1377 0062 A80F      		add r26,r24
 1378 0064 B91F      		adc r27,r25
 1379 0066 4C91      		ld r20,X
 1380 0068 50E0      		ldi r21,0
 1381 006a DB01      		movw r26,r22
 1382 006c A770      		andi r26,7
 1383 006e BB27      		clr r27
 1384 0070 00C0      		rjmp 2f
 1385               		1:
 1386 0072 5595      		asr r21
 1387 0074 4795      		ror r20
 1388               		2:
 1389 0076 AA95      		dec r26
 1390 0078 02F4      		brpl 1b
 1391 007a 40FF      		sbrs r20,0
 1392 007c 00C0      		rjmp .L102
 338:lib/lufa/LUFA/Drivers/USB/Class/Common/HIDParser.c **** 		  ReportItem->Value |= BitMask;
 1393               		.loc 1 338 0
 1394 007e 82A0      		ldd r8,Z+34
 1395 0080 93A0      		ldd r9,Z+35
 1396 0082 A4A0      		ldd r10,Z+36
 1397 0084 B5A0      		ldd r11,Z+37
 1398 0086 8C28      		or r8,r12
 1399 0088 9D28      		or r9,r13
 1400 008a AE28      		or r10,r14
 1401 008c BF28      		or r11,r15
 1402 008e 82A2      		std Z+34,r8
 1403 0090 93A2      		std Z+35,r9
 1404 0092 A4A2      		std Z+36,r10
 1405 0094 B5A2      		std Z+37,r11
 1406               	.L102:
 339:lib/lufa/LUFA/Drivers/USB/Class/Common/HIDParser.c **** 
 340:lib/lufa/LUFA/Drivers/USB/Class/Common/HIDParser.c **** 		CurrentBit++;
 1407               		.loc 1 340 0
 1408 0096 6F5F      		subi r22,-1
 1409 0098 7F4F      		sbci r23,-1
 1410               	.LVL85:
 341:lib/lufa/LUFA/Drivers/USB/Class/Common/HIDParser.c **** 		BitMask <<= 1;
 1411               		.loc 1 341 0
 1412 009a CC0C      		lsl r12
 1413 009c DD1C      		rol r13
 1414 009e EE1C      		rol r14
 1415 00a0 FF1C      		rol r15
 1416               	.LVL86:
 1417 00a2 00C0      		rjmp .L101
 1418               	.L112:
 342:lib/lufa/LUFA/Drivers/USB/Class/Common/HIDParser.c **** 	}
 343:lib/lufa/LUFA/Drivers/USB/Class/Common/HIDParser.c **** 
 344:lib/lufa/LUFA/Drivers/USB/Class/Common/HIDParser.c **** 	return true;
 1419               		.loc 1 344 0
 1420 00a4 81E0      		ldi r24,lo8(1)
 1421               	.LVL87:
 1422 00a6 00C0      		rjmp .L99
 1423               	.LVL88:
 1424               	.L105:
 318:lib/lufa/LUFA/Drivers/USB/Class/Common/HIDParser.c **** 
 1425               		.loc 1 318 0
 1426 00a8 80E0      		ldi r24,0
 1427               	.LVL89:
 1428               	.L99:
 1429               	/* epilogue start */
 345:lib/lufa/LUFA/Drivers/USB/Class/Common/HIDParser.c **** }
 1430               		.loc 1 345 0
 1431 00aa FF90      		pop r15
 1432 00ac EF90      		pop r14
 1433 00ae DF90      		pop r13
 1434 00b0 CF90      		pop r12
 1435 00b2 BF90      		pop r11
 1436 00b4 AF90      		pop r10
 1437 00b6 9F90      		pop r9
 1438 00b8 8F90      		pop r8
 1439 00ba 0895      		ret
 1440               		.cfi_endproc
 1441               	.LFE17:
 1443               		.section	.text.USB_SetHIDReportItemInfo,"ax",@progbits
 1444               	.global	USB_SetHIDReportItemInfo
 1446               	USB_SetHIDReportItemInfo:
 1447               	.LFB18:
 346:lib/lufa/LUFA/Drivers/USB/Class/Common/HIDParser.c **** 
 347:lib/lufa/LUFA/Drivers/USB/Class/Common/HIDParser.c **** void USB_SetHIDReportItemInfo(uint8_t* ReportData,
 348:lib/lufa/LUFA/Drivers/USB/Class/Common/HIDParser.c ****                               HID_ReportItem_t* const ReportItem)
 349:lib/lufa/LUFA/Drivers/USB/Class/Common/HIDParser.c **** {
 1448               		.loc 1 349 0
 1449               		.cfi_startproc
 1450               	.LVL90:
 1451 0000 8F92      		push r8
 1452               	.LCFI28:
 1453               		.cfi_def_cfa_offset 3
 1454               		.cfi_offset 8, -2
 1455 0002 9F92      		push r9
 1456               	.LCFI29:
 1457               		.cfi_def_cfa_offset 4
 1458               		.cfi_offset 9, -3
 1459 0004 AF92      		push r10
 1460               	.LCFI30:
 1461               		.cfi_def_cfa_offset 5
 1462               		.cfi_offset 10, -4
 1463 0006 BF92      		push r11
 1464               	.LCFI31:
 1465               		.cfi_def_cfa_offset 6
 1466               		.cfi_offset 11, -5
 1467 0008 CF92      		push r12
 1468               	.LCFI32:
 1469               		.cfi_def_cfa_offset 7
 1470               		.cfi_offset 12, -6
 1471 000a DF92      		push r13
 1472               	.LCFI33:
 1473               		.cfi_def_cfa_offset 8
 1474               		.cfi_offset 13, -7
 1475 000c EF92      		push r14
 1476               	.LCFI34:
 1477               		.cfi_def_cfa_offset 9
 1478               		.cfi_offset 14, -8
 1479 000e FF92      		push r15
 1480               	.LCFI35:
 1481               		.cfi_def_cfa_offset 10
 1482               		.cfi_offset 15, -9
 1483 0010 0F93      		push r16
 1484               	.LCFI36:
 1485               		.cfi_def_cfa_offset 11
 1486               		.cfi_offset 16, -10
 1487 0012 1F93      		push r17
 1488               	.LCFI37:
 1489               		.cfi_def_cfa_offset 12
 1490               		.cfi_offset 17, -11
 1491 0014 CF93      		push r28
 1492               	.LCFI38:
 1493               		.cfi_def_cfa_offset 13
 1494               		.cfi_offset 28, -12
 1495 0016 DF93      		push r29
 1496               	.LCFI39:
 1497               		.cfi_def_cfa_offset 14
 1498               		.cfi_offset 29, -13
 1499               	/* prologue: function */
 1500               	/* frame size = 0 */
 1501               	/* stack size = 12 */
 1502               	.L__stack_usage = 12
 1503 0018 FB01      		movw r30,r22
 350:lib/lufa/LUFA/Drivers/USB/Class/Common/HIDParser.c **** 	if (ReportItem == NULL)
 1504               		.loc 1 350 0
 1505 001a 3097      		sbiw r30,0
 1506 001c 01F4      		brne .+2
 1507 001e 00C0      		rjmp .L113
 351:lib/lufa/LUFA/Drivers/USB/Class/Common/HIDParser.c **** 	  return;
 352:lib/lufa/LUFA/Drivers/USB/Class/Common/HIDParser.c **** 
 353:lib/lufa/LUFA/Drivers/USB/Class/Common/HIDParser.c **** 	uint16_t DataBitsRem  = ReportItem->Attributes.BitSize;
 1508               		.loc 1 353 0
 1509 0020 2085      		ldd r18,Z+8
 1510 0022 30E0      		ldi r19,0
 1511               	.LVL91:
 354:lib/lufa/LUFA/Drivers/USB/Class/Common/HIDParser.c **** 	uint16_t CurrentBit   = ReportItem->BitOffset;
 1512               		.loc 1 354 0
 1513 0024 4081      		ld r20,Z
 1514 0026 5181      		ldd r21,Z+1
 1515               	.LVL92:
 355:lib/lufa/LUFA/Drivers/USB/Class/Common/HIDParser.c **** 	uint32_t BitMask      = (1 << 0);
 356:lib/lufa/LUFA/Drivers/USB/Class/Common/HIDParser.c **** 
 357:lib/lufa/LUFA/Drivers/USB/Class/Common/HIDParser.c **** 	if (ReportItem->ReportID)
 1516               		.loc 1 357 0
 1517 0028 6581      		ldd r22,Z+5
 1518               	.LVL93:
 1519 002a 6623      		tst r22
 1520 002c 01F0      		breq .L115
 358:lib/lufa/LUFA/Drivers/USB/Class/Common/HIDParser.c **** 	{
 359:lib/lufa/LUFA/Drivers/USB/Class/Common/HIDParser.c **** 		ReportData[0] = ReportItem->ReportID;
 1521               		.loc 1 359 0
 1522 002e DC01      		movw r26,r24
 1523 0030 6D93      		st X+,r22
 1524 0032 CD01      		movw r24,r26
 1525               	.LVL94:
 1526               	.L115:
 360:lib/lufa/LUFA/Drivers/USB/Class/Common/HIDParser.c **** 		ReportData++;
 361:lib/lufa/LUFA/Drivers/USB/Class/Common/HIDParser.c **** 	}
 362:lib/lufa/LUFA/Drivers/USB/Class/Common/HIDParser.c **** 
 363:lib/lufa/LUFA/Drivers/USB/Class/Common/HIDParser.c **** 	ReportItem->PreviousValue = ReportItem->Value;
 1527               		.loc 1 363 0
 1528 0034 C2A0      		ldd r12,Z+34
 1529 0036 D3A0      		ldd r13,Z+35
 1530 0038 E4A0      		ldd r14,Z+36
 1531 003a F5A0      		ldd r15,Z+37
 1532 003c C6A2      		std Z+38,r12
 1533 003e D7A2      		std Z+39,r13
 1534 0040 E0A6      		std Z+40,r14
 1535 0042 F1A6      		std Z+41,r15
 355:lib/lufa/LUFA/Drivers/USB/Class/Common/HIDParser.c **** 
 1536               		.loc 1 355 0
 1537 0044 C12C      		mov r12,__zero_reg__
 1538 0046 D12C      		mov r13,__zero_reg__
 1539 0048 7601      		movw r14,r12
 1540 004a C394      		inc r12
 364:lib/lufa/LUFA/Drivers/USB/Class/Common/HIDParser.c **** 
 365:lib/lufa/LUFA/Drivers/USB/Class/Common/HIDParser.c **** 	while (DataBitsRem--)
 366:lib/lufa/LUFA/Drivers/USB/Class/Common/HIDParser.c **** 	{
 367:lib/lufa/LUFA/Drivers/USB/Class/Common/HIDParser.c **** 		if (ReportItem->Value & BitMask)
 368:lib/lufa/LUFA/Drivers/USB/Class/Common/HIDParser.c **** 		  ReportData[CurrentBit / 8] |= (1 << (CurrentBit % 8));
 1541               		.loc 1 368 0
 1542 004c C1E0      		ldi r28,lo8(1)
 1543 004e D0E0      		ldi r29,0
 1544               	.LVL95:
 1545               	.L116:
 365:lib/lufa/LUFA/Drivers/USB/Class/Common/HIDParser.c **** 	{
 1546               		.loc 1 365 0
 1547               	.LVL96:
 1548 0050 2150      		subi r18,1
 1549 0052 3109      		sbc r19,__zero_reg__
 1550 0054 00F0      		brcs .L113
 367:lib/lufa/LUFA/Drivers/USB/Class/Common/HIDParser.c **** 		  ReportData[CurrentBit / 8] |= (1 << (CurrentBit % 8));
 1551               		.loc 1 367 0
 1552 0056 82A0      		ldd r8,Z+34
 1553 0058 93A0      		ldd r9,Z+35
 1554 005a A4A0      		ldd r10,Z+36
 1555 005c B5A0      		ldd r11,Z+37
 1556 005e 8C20      		and r8,r12
 1557 0060 9D20      		and r9,r13
 1558 0062 AE20      		and r10,r14
 1559 0064 BF20      		and r11,r15
 1560 0066 8928      		or r8,r9
 1561 0068 8A28      		or r8,r10
 1562 006a 8B28      		or r8,r11
 1563 006c 01F0      		breq .L117
 1564               		.loc 1 368 0
 1565 006e DA01      		movw r26,r20
 1566 0070 73E0      		ldi r23,3
 1567               		1:
 1568 0072 B695      		lsr r27
 1569 0074 A795      		ror r26
 1570 0076 7A95      		dec r23
 1571 0078 01F4      		brne 1b
 1572 007a A80F      		add r26,r24
 1573 007c B91F      		adc r27,r25
 1574 007e BA01      		movw r22,r20
 1575 0080 6770      		andi r22,7
 1576 0082 7727      		clr r23
 1577 0084 8E01      		movw r16,r28
 1578 0086 00C0      		rjmp 2f
 1579               		1:
 1580 0088 000F      		lsl r16
 1581 008a 111F      		rol r17
 1582               		2:
 1583 008c 6A95      		dec r22
 1584 008e 02F4      		brpl 1b
 1585 0090 B801      		movw r22,r16
 1586 0092 7C91      		ld r23,X
 1587 0094 672B      		or r22,r23
 1588 0096 6C93      		st X,r22
 1589               	.L117:
 369:lib/lufa/LUFA/Drivers/USB/Class/Common/HIDParser.c **** 
 370:lib/lufa/LUFA/Drivers/USB/Class/Common/HIDParser.c **** 		CurrentBit++;
 1590               		.loc 1 370 0
 1591 0098 4F5F      		subi r20,-1
 1592 009a 5F4F      		sbci r21,-1
 1593               	.LVL97:
 371:lib/lufa/LUFA/Drivers/USB/Class/Common/HIDParser.c **** 		BitMask <<= 1;
 1594               		.loc 1 371 0
 1595 009c CC0C      		lsl r12
 1596 009e DD1C      		rol r13
 1597 00a0 EE1C      		rol r14
 1598 00a2 FF1C      		rol r15
 1599               	.LVL98:
 1600 00a4 00C0      		rjmp .L116
 1601               	.LVL99:
 1602               	.L113:
 1603               	/* epilogue start */
 372:lib/lufa/LUFA/Drivers/USB/Class/Common/HIDParser.c **** 	}
 373:lib/lufa/LUFA/Drivers/USB/Class/Common/HIDParser.c **** }
 1604               		.loc 1 373 0
 1605 00a6 DF91      		pop r29
 1606 00a8 CF91      		pop r28
 1607 00aa 1F91      		pop r17
 1608 00ac 0F91      		pop r16
 1609 00ae FF90      		pop r15
 1610 00b0 EF90      		pop r14
 1611 00b2 DF90      		pop r13
 1612 00b4 CF90      		pop r12
 1613 00b6 BF90      		pop r11
 1614 00b8 AF90      		pop r10
 1615 00ba 9F90      		pop r9
 1616 00bc 8F90      		pop r8
 1617 00be 0895      		ret
 1618               		.cfi_endproc
 1619               	.LFE18:
 1621               		.section	.text.USB_GetHIDReportSize,"ax",@progbits
 1622               	.global	USB_GetHIDReportSize
 1624               	USB_GetHIDReportSize:
 1625               	.LFB19:
 374:lib/lufa/LUFA/Drivers/USB/Class/Common/HIDParser.c **** 
 375:lib/lufa/LUFA/Drivers/USB/Class/Common/HIDParser.c **** uint16_t USB_GetHIDReportSize(HID_ReportInfo_t* const ParserData,
 376:lib/lufa/LUFA/Drivers/USB/Class/Common/HIDParser.c ****                               const uint8_t ReportID,
 377:lib/lufa/LUFA/Drivers/USB/Class/Common/HIDParser.c ****                               const uint8_t ReportType)
 378:lib/lufa/LUFA/Drivers/USB/Class/Common/HIDParser.c **** {
 1626               		.loc 1 378 0
 1627               		.cfi_startproc
 1628               	.LVL100:
 1629               	/* prologue: function */
 1630               	/* frame size = 0 */
 1631               	/* stack size = 0 */
 1632               	.L__stack_usage = 0
 1633 0000 FC01      		movw r30,r24
 1634 0002 EA5B      		subi r30,-70
 1635 0004 FF4F      		sbci r31,-1
 1636 0006 50E0      		ldi r21,0
 1637 0008 440F      		lsl r20
 1638 000a 551F      		rol r21
 1639               	.LVL101:
 1640               	.LBB20:
 1641               	.LBB21:
 379:lib/lufa/LUFA/Drivers/USB/Class/Common/HIDParser.c **** 	for (uint8_t i = 0; i < HID_MAX_REPORT_IDS; i++)
 380:lib/lufa/LUFA/Drivers/USB/Class/Common/HIDParser.c **** 	{
 381:lib/lufa/LUFA/Drivers/USB/Class/Common/HIDParser.c **** 		uint16_t ReportSizeBits = ParserData->ReportIDSizes[i].ReportSizeBits[ReportType];
 1642               		.loc 1 381 0
 1643 000c 4F56      		subi r20,111
 1644 000e 5C4F      		sbci r21,-4
 1645               	.LVL102:
 1646               	.L130:
 1647 0010 DC01      		movw r26,r24
 1648 0012 A40F      		add r26,r20
 1649 0014 B51F      		adc r27,r21
 1650 0016 2D91      		ld r18,X+
 1651 0018 3C91      		ld r19,X
 1652               	.LVL103:
 382:lib/lufa/LUFA/Drivers/USB/Class/Common/HIDParser.c **** 
 383:lib/lufa/LUFA/Drivers/USB/Class/Common/HIDParser.c **** 		if (ParserData->ReportIDSizes[i].ReportID == ReportID)
 1653               		.loc 1 383 0
 1654 001a DC01      		movw r26,r24
 1655 001c A057      		subi r26,112
 1656 001e BC4F      		sbci r27,-4
 1657 0020 7C91      		ld r23,X
 1658 0022 7613      		cpse r23,r22
 1659 0024 00C0      		rjmp .L127
 384:lib/lufa/LUFA/Drivers/USB/Class/Common/HIDParser.c **** 		  return (ReportSizeBits / 8) + ((ReportSizeBits % 8) ? 1 : 0);
 1660               		.loc 1 384 0
 1661 0026 81E0      		ldi r24,lo8(1)
 1662 0028 90E0      		ldi r25,0
 1663 002a A901      		movw r20,r18
 1664 002c 4770      		andi r20,7
 1665 002e 5527      		clr r21
 1666 0030 452B      		or r20,r21
 1667 0032 01F4      		brne .L128
 1668 0034 80E0      		ldi r24,0
 1669 0036 90E0      		ldi r25,0
 1670               	.L128:
 1671 0038 43E0      		ldi r20,3
 1672               		1:
 1673 003a 3695      		lsr r19
 1674 003c 2795      		ror r18
 1675 003e 4A95      		dec r20
 1676 0040 01F4      		brne 1b
 1677               	.LVL104:
 1678 0042 820F      		add r24,r18
 1679 0044 931F      		adc r25,r19
 1680 0046 0895      		ret
 1681               	.LVL105:
 1682               	.L127:
 1683 0048 0796      		adiw r24,7
 1684               	.LBE21:
 379:lib/lufa/LUFA/Drivers/USB/Class/Common/HIDParser.c **** 	for (uint8_t i = 0; i < HID_MAX_REPORT_IDS; i++)
 1685               		.loc 1 379 0 discriminator 2
 1686 004a 8E17      		cp r24,r30
 1687 004c 9F07      		cpc r25,r31
 1688 004e 01F4      		brne .L130
 1689               	.LBE20:
 385:lib/lufa/LUFA/Drivers/USB/Class/Common/HIDParser.c **** 	}
 386:lib/lufa/LUFA/Drivers/USB/Class/Common/HIDParser.c **** 
 387:lib/lufa/LUFA/Drivers/USB/Class/Common/HIDParser.c **** 	return 0;
 1690               		.loc 1 387 0
 1691 0050 80E0      		ldi r24,0
 1692 0052 90E0      		ldi r25,0
 388:lib/lufa/LUFA/Drivers/USB/Class/Common/HIDParser.c **** }
 1693               		.loc 1 388 0
 1694 0054 0895      		ret
 1695               		.cfi_endproc
 1696               	.LFE19:
 1698               		.text
 1699               	.Letext0:
 1700               		.file 2 "c:\\msys64_2\\home\\egypt2\\qmk_utils\\avr8-gnu-toolchain\\avr\\include\\stdint.h"
 1701               		.file 3 "lib/lufa/LUFA/Drivers/USB/Class/Common/HIDClassCommon.h"
 1702               		.file 4 "lib/lufa/LUFA/Drivers/USB/Class/Common/HIDParser.h"
 1703               		.file 5 "c:\\msys64_2\\home\\egypt2\\qmk_utils\\avr8-gnu-toolchain\\avr\\include\\string.h"