   1               		.file	"EndpointStream_AVR8.c"
   2               	__SP_H__ = 0x3e
   3               	__SP_L__ = 0x3d
   4               	__SREG__ = 0x3f
   5               	__tmp_reg__ = 0
   6               	__zero_reg__ = 1
   7               		.text
   8               	.Ltext0:
   9               		.cfi_sections	.debug_frame
  10               		.section	.text.Endpoint_Discard_Stream,"ax",@progbits
  11               	.global	Endpoint_Discard_Stream
  13               	Endpoint_Discard_Stream:
  14               	.LFB85:
  15               		.file 1 "lib/lufa/LUFA/Drivers/USB/Core/AVR8/EndpointStream_AVR8.c"
   1:lib/lufa/LUFA/Drivers/USB/Core/AVR8/EndpointStream_AVR8.c **** /*
   2:lib/lufa/LUFA/Drivers/USB/Core/AVR8/EndpointStream_AVR8.c ****              LUFA Library
   3:lib/lufa/LUFA/Drivers/USB/Core/AVR8/EndpointStream_AVR8.c ****      Copyright (C) Dean Camera, 2017.
   4:lib/lufa/LUFA/Drivers/USB/Core/AVR8/EndpointStream_AVR8.c **** 
   5:lib/lufa/LUFA/Drivers/USB/Core/AVR8/EndpointStream_AVR8.c ****   dean [at] fourwalledcubicle [dot] com
   6:lib/lufa/LUFA/Drivers/USB/Core/AVR8/EndpointStream_AVR8.c ****            www.lufa-lib.org
   7:lib/lufa/LUFA/Drivers/USB/Core/AVR8/EndpointStream_AVR8.c **** */
   8:lib/lufa/LUFA/Drivers/USB/Core/AVR8/EndpointStream_AVR8.c **** 
   9:lib/lufa/LUFA/Drivers/USB/Core/AVR8/EndpointStream_AVR8.c **** /*
  10:lib/lufa/LUFA/Drivers/USB/Core/AVR8/EndpointStream_AVR8.c ****   Copyright 2017  Dean Camera (dean [at] fourwalledcubicle [dot] com)
  11:lib/lufa/LUFA/Drivers/USB/Core/AVR8/EndpointStream_AVR8.c **** 
  12:lib/lufa/LUFA/Drivers/USB/Core/AVR8/EndpointStream_AVR8.c ****   Permission to use, copy, modify, distribute, and sell this
  13:lib/lufa/LUFA/Drivers/USB/Core/AVR8/EndpointStream_AVR8.c ****   software and its documentation for any purpose is hereby granted
  14:lib/lufa/LUFA/Drivers/USB/Core/AVR8/EndpointStream_AVR8.c ****   without fee, provided that the above copyright notice appear in
  15:lib/lufa/LUFA/Drivers/USB/Core/AVR8/EndpointStream_AVR8.c ****   all copies and that both that the copyright notice and this
  16:lib/lufa/LUFA/Drivers/USB/Core/AVR8/EndpointStream_AVR8.c ****   permission notice and warranty disclaimer appear in supporting
  17:lib/lufa/LUFA/Drivers/USB/Core/AVR8/EndpointStream_AVR8.c ****   documentation, and that the name of the author not be used in
  18:lib/lufa/LUFA/Drivers/USB/Core/AVR8/EndpointStream_AVR8.c ****   advertising or publicity pertaining to distribution of the
  19:lib/lufa/LUFA/Drivers/USB/Core/AVR8/EndpointStream_AVR8.c ****   software without specific, written prior permission.
  20:lib/lufa/LUFA/Drivers/USB/Core/AVR8/EndpointStream_AVR8.c **** 
  21:lib/lufa/LUFA/Drivers/USB/Core/AVR8/EndpointStream_AVR8.c ****   The author disclaims all warranties with regard to this
  22:lib/lufa/LUFA/Drivers/USB/Core/AVR8/EndpointStream_AVR8.c ****   software, including all implied warranties of merchantability
  23:lib/lufa/LUFA/Drivers/USB/Core/AVR8/EndpointStream_AVR8.c ****   and fitness.  In no event shall the author be liable for any
  24:lib/lufa/LUFA/Drivers/USB/Core/AVR8/EndpointStream_AVR8.c ****   special, indirect or consequential damages or any damages
  25:lib/lufa/LUFA/Drivers/USB/Core/AVR8/EndpointStream_AVR8.c ****   whatsoever resulting from loss of use, data or profits, whether
  26:lib/lufa/LUFA/Drivers/USB/Core/AVR8/EndpointStream_AVR8.c ****   in an action of contract, negligence or other tortious action,
  27:lib/lufa/LUFA/Drivers/USB/Core/AVR8/EndpointStream_AVR8.c ****   arising out of or in connection with the use or performance of
  28:lib/lufa/LUFA/Drivers/USB/Core/AVR8/EndpointStream_AVR8.c ****   this software.
  29:lib/lufa/LUFA/Drivers/USB/Core/AVR8/EndpointStream_AVR8.c **** */
  30:lib/lufa/LUFA/Drivers/USB/Core/AVR8/EndpointStream_AVR8.c **** 
  31:lib/lufa/LUFA/Drivers/USB/Core/AVR8/EndpointStream_AVR8.c **** #include "../../../../Common/Common.h"
  32:lib/lufa/LUFA/Drivers/USB/Core/AVR8/EndpointStream_AVR8.c **** #if (ARCH == ARCH_AVR8)
  33:lib/lufa/LUFA/Drivers/USB/Core/AVR8/EndpointStream_AVR8.c **** 
  34:lib/lufa/LUFA/Drivers/USB/Core/AVR8/EndpointStream_AVR8.c **** #define  __INCLUDE_FROM_USB_DRIVER
  35:lib/lufa/LUFA/Drivers/USB/Core/AVR8/EndpointStream_AVR8.c **** #include "../USBMode.h"
  36:lib/lufa/LUFA/Drivers/USB/Core/AVR8/EndpointStream_AVR8.c **** 
  37:lib/lufa/LUFA/Drivers/USB/Core/AVR8/EndpointStream_AVR8.c **** #if defined(USB_CAN_BE_DEVICE)
  38:lib/lufa/LUFA/Drivers/USB/Core/AVR8/EndpointStream_AVR8.c **** 
  39:lib/lufa/LUFA/Drivers/USB/Core/AVR8/EndpointStream_AVR8.c **** #include "EndpointStream_AVR8.h"
  40:lib/lufa/LUFA/Drivers/USB/Core/AVR8/EndpointStream_AVR8.c **** 
  41:lib/lufa/LUFA/Drivers/USB/Core/AVR8/EndpointStream_AVR8.c **** #if !defined(CONTROL_ONLY_DEVICE)
  42:lib/lufa/LUFA/Drivers/USB/Core/AVR8/EndpointStream_AVR8.c **** uint8_t Endpoint_Discard_Stream(uint16_t Length,
  43:lib/lufa/LUFA/Drivers/USB/Core/AVR8/EndpointStream_AVR8.c ****                                 uint16_t* const BytesProcessed)
  44:lib/lufa/LUFA/Drivers/USB/Core/AVR8/EndpointStream_AVR8.c **** {
  16               		.loc 1 44 0
  17               		.cfi_startproc
  18               	.LVL0:
  19 0000 EF92      		push r14
  20               	.LCFI0:
  21               		.cfi_def_cfa_offset 3
  22               		.cfi_offset 14, -2
  23 0002 FF92      		push r15
  24               	.LCFI1:
  25               		.cfi_def_cfa_offset 4
  26               		.cfi_offset 15, -3
  27 0004 0F93      		push r16
  28               	.LCFI2:
  29               		.cfi_def_cfa_offset 5
  30               		.cfi_offset 16, -4
  31 0006 1F93      		push r17
  32               	.LCFI3:
  33               		.cfi_def_cfa_offset 6
  34               		.cfi_offset 17, -5
  35 0008 CF93      		push r28
  36               	.LCFI4:
  37               		.cfi_def_cfa_offset 7
  38               		.cfi_offset 28, -6
  39 000a DF93      		push r29
  40               	.LCFI5:
  41               		.cfi_def_cfa_offset 8
  42               		.cfi_offset 29, -7
  43               	/* prologue: function */
  44               	/* frame size = 0 */
  45               	/* stack size = 6 */
  46               	.L__stack_usage = 6
  47 000c EC01      		movw r28,r24
  48 000e 8B01      		movw r16,r22
  49               	.LVL1:
  45:lib/lufa/LUFA/Drivers/USB/Core/AVR8/EndpointStream_AVR8.c **** 	uint8_t  ErrorCode;
  46:lib/lufa/LUFA/Drivers/USB/Core/AVR8/EndpointStream_AVR8.c **** 	uint16_t BytesInTransfer = 0;
  47:lib/lufa/LUFA/Drivers/USB/Core/AVR8/EndpointStream_AVR8.c **** 
  48:lib/lufa/LUFA/Drivers/USB/Core/AVR8/EndpointStream_AVR8.c **** 	if ((ErrorCode = Endpoint_WaitUntilReady()))
  50               		.loc 1 48 0
  51 0010 0E94 0000 		call Endpoint_WaitUntilReady
  52               	.LVL2:
  53 0014 8111      		cpse r24,__zero_reg__
  54 0016 00C0      		rjmp .L2
  49:lib/lufa/LUFA/Drivers/USB/Core/AVR8/EndpointStream_AVR8.c **** 	  return ErrorCode;
  50:lib/lufa/LUFA/Drivers/USB/Core/AVR8/EndpointStream_AVR8.c **** 
  51:lib/lufa/LUFA/Drivers/USB/Core/AVR8/EndpointStream_AVR8.c **** 	if (BytesProcessed != NULL)
  55               		.loc 1 51 0
  56 0018 0115      		cp r16,__zero_reg__
  57 001a 1105      		cpc r17,__zero_reg__
  58 001c 01F0      		breq .L3
  52:lib/lufa/LUFA/Drivers/USB/Core/AVR8/EndpointStream_AVR8.c **** 	  Length -= *BytesProcessed;
  59               		.loc 1 52 0
  60 001e F801      		movw r30,r16
  61 0020 8081      		ld r24,Z
  62 0022 9181      		ldd r25,Z+1
  63               	.LVL3:
  64 0024 C81B      		sub r28,r24
  65 0026 D90B      		sbc r29,r25
  66               	.LVL4:
  67               	.L3:
  44:lib/lufa/LUFA/Drivers/USB/Core/AVR8/EndpointStream_AVR8.c **** 	uint8_t  ErrorCode;
  68               		.loc 1 44 0
  69 0028 E12C      		mov r14,__zero_reg__
  70 002a F12C      		mov r15,__zero_reg__
  71               	.LVL5:
  72               	.L4:
  53:lib/lufa/LUFA/Drivers/USB/Core/AVR8/EndpointStream_AVR8.c **** 
  54:lib/lufa/LUFA/Drivers/USB/Core/AVR8/EndpointStream_AVR8.c **** 	while (Length)
  73               		.loc 1 54 0
  74 002c 2097      		sbiw r28,0
  75 002e 01F0      		breq .L15
  76               	.LBB268:
  77               	.LBB269:
  78               		.file 2 "lib/lufa/LUFA/Drivers/USB/Core/AVR8/../AVR8/../AVR8/Endpoint_AVR8.h"
   1:lib/lufa/LUFA/Drivers/USB/Core/AVR8/../AVR8/../AVR8/Endpoint_AVR8.h **** /*
   2:lib/lufa/LUFA/Drivers/USB/Core/AVR8/../AVR8/../AVR8/Endpoint_AVR8.h ****              LUFA Library
   3:lib/lufa/LUFA/Drivers/USB/Core/AVR8/../AVR8/../AVR8/Endpoint_AVR8.h ****      Copyright (C) Dean Camera, 2017.
   4:lib/lufa/LUFA/Drivers/USB/Core/AVR8/../AVR8/../AVR8/Endpoint_AVR8.h **** 
   5:lib/lufa/LUFA/Drivers/USB/Core/AVR8/../AVR8/../AVR8/Endpoint_AVR8.h ****   dean [at] fourwalledcubicle [dot] com
   6:lib/lufa/LUFA/Drivers/USB/Core/AVR8/../AVR8/../AVR8/Endpoint_AVR8.h ****            www.lufa-lib.org
   7:lib/lufa/LUFA/Drivers/USB/Core/AVR8/../AVR8/../AVR8/Endpoint_AVR8.h **** */
   8:lib/lufa/LUFA/Drivers/USB/Core/AVR8/../AVR8/../AVR8/Endpoint_AVR8.h **** 
   9:lib/lufa/LUFA/Drivers/USB/Core/AVR8/../AVR8/../AVR8/Endpoint_AVR8.h **** /*
  10:lib/lufa/LUFA/Drivers/USB/Core/AVR8/../AVR8/../AVR8/Endpoint_AVR8.h ****   Copyright 2017  Dean Camera (dean [at] fourwalledcubicle [dot] com)
  11:lib/lufa/LUFA/Drivers/USB/Core/AVR8/../AVR8/../AVR8/Endpoint_AVR8.h **** 
  12:lib/lufa/LUFA/Drivers/USB/Core/AVR8/../AVR8/../AVR8/Endpoint_AVR8.h ****   Permission to use, copy, modify, distribute, and sell this
  13:lib/lufa/LUFA/Drivers/USB/Core/AVR8/../AVR8/../AVR8/Endpoint_AVR8.h ****   software and its documentation for any purpose is hereby granted
  14:lib/lufa/LUFA/Drivers/USB/Core/AVR8/../AVR8/../AVR8/Endpoint_AVR8.h ****   without fee, provided that the above copyright notice appear in
  15:lib/lufa/LUFA/Drivers/USB/Core/AVR8/../AVR8/../AVR8/Endpoint_AVR8.h ****   all copies and that both that the copyright notice and this
  16:lib/lufa/LUFA/Drivers/USB/Core/AVR8/../AVR8/../AVR8/Endpoint_AVR8.h ****   permission notice and warranty disclaimer appear in supporting
  17:lib/lufa/LUFA/Drivers/USB/Core/AVR8/../AVR8/../AVR8/Endpoint_AVR8.h ****   documentation, and that the name of the author not be used in
  18:lib/lufa/LUFA/Drivers/USB/Core/AVR8/../AVR8/../AVR8/Endpoint_AVR8.h ****   advertising or publicity pertaining to distribution of the
  19:lib/lufa/LUFA/Drivers/USB/Core/AVR8/../AVR8/../AVR8/Endpoint_AVR8.h ****   software without specific, written prior permission.
  20:lib/lufa/LUFA/Drivers/USB/Core/AVR8/../AVR8/../AVR8/Endpoint_AVR8.h **** 
  21:lib/lufa/LUFA/Drivers/USB/Core/AVR8/../AVR8/../AVR8/Endpoint_AVR8.h ****   The author disclaims all warranties with regard to this
  22:lib/lufa/LUFA/Drivers/USB/Core/AVR8/../AVR8/../AVR8/Endpoint_AVR8.h ****   software, including all implied warranties of merchantability
  23:lib/lufa/LUFA/Drivers/USB/Core/AVR8/../AVR8/../AVR8/Endpoint_AVR8.h ****   and fitness.  In no event shall the author be liable for any
  24:lib/lufa/LUFA/Drivers/USB/Core/AVR8/../AVR8/../AVR8/Endpoint_AVR8.h ****   special, indirect or consequential damages or any damages
  25:lib/lufa/LUFA/Drivers/USB/Core/AVR8/../AVR8/../AVR8/Endpoint_AVR8.h ****   whatsoever resulting from loss of use, data or profits, whether
  26:lib/lufa/LUFA/Drivers/USB/Core/AVR8/../AVR8/../AVR8/Endpoint_AVR8.h ****   in an action of contract, negligence or other tortious action,
  27:lib/lufa/LUFA/Drivers/USB/Core/AVR8/../AVR8/../AVR8/Endpoint_AVR8.h ****   arising out of or in connection with the use or performance of
  28:lib/lufa/LUFA/Drivers/USB/Core/AVR8/../AVR8/../AVR8/Endpoint_AVR8.h ****   this software.
  29:lib/lufa/LUFA/Drivers/USB/Core/AVR8/../AVR8/../AVR8/Endpoint_AVR8.h **** */
  30:lib/lufa/LUFA/Drivers/USB/Core/AVR8/../AVR8/../AVR8/Endpoint_AVR8.h **** 
  31:lib/lufa/LUFA/Drivers/USB/Core/AVR8/../AVR8/../AVR8/Endpoint_AVR8.h **** /** \file
  32:lib/lufa/LUFA/Drivers/USB/Core/AVR8/../AVR8/../AVR8/Endpoint_AVR8.h ****  *  \brief USB Endpoint definitions for the AVR8 microcontrollers.
  33:lib/lufa/LUFA/Drivers/USB/Core/AVR8/../AVR8/../AVR8/Endpoint_AVR8.h ****  *  \copydetails Group_EndpointManagement_AVR8
  34:lib/lufa/LUFA/Drivers/USB/Core/AVR8/../AVR8/../AVR8/Endpoint_AVR8.h ****  *
  35:lib/lufa/LUFA/Drivers/USB/Core/AVR8/../AVR8/../AVR8/Endpoint_AVR8.h ****  *  \note This file should not be included directly. It is automatically included as needed by the 
  36:lib/lufa/LUFA/Drivers/USB/Core/AVR8/../AVR8/../AVR8/Endpoint_AVR8.h ****  *        dispatch header located in LUFA/Drivers/USB/USB.h.
  37:lib/lufa/LUFA/Drivers/USB/Core/AVR8/../AVR8/../AVR8/Endpoint_AVR8.h ****  */
  38:lib/lufa/LUFA/Drivers/USB/Core/AVR8/../AVR8/../AVR8/Endpoint_AVR8.h **** 
  39:lib/lufa/LUFA/Drivers/USB/Core/AVR8/../AVR8/../AVR8/Endpoint_AVR8.h **** /** \ingroup Group_EndpointRW
  40:lib/lufa/LUFA/Drivers/USB/Core/AVR8/../AVR8/../AVR8/Endpoint_AVR8.h ****  *  \defgroup Group_EndpointRW_AVR8 Endpoint Data Reading and Writing (AVR8)
  41:lib/lufa/LUFA/Drivers/USB/Core/AVR8/../AVR8/../AVR8/Endpoint_AVR8.h ****  *  \brief Endpoint data read/write definitions for the Atmel AVR8 architecture.
  42:lib/lufa/LUFA/Drivers/USB/Core/AVR8/../AVR8/../AVR8/Endpoint_AVR8.h ****  *
  43:lib/lufa/LUFA/Drivers/USB/Core/AVR8/../AVR8/../AVR8/Endpoint_AVR8.h ****  *  Functions, macros, variables, enums and types related to data reading and writing from and to e
  44:lib/lufa/LUFA/Drivers/USB/Core/AVR8/../AVR8/../AVR8/Endpoint_AVR8.h ****  */
  45:lib/lufa/LUFA/Drivers/USB/Core/AVR8/../AVR8/../AVR8/Endpoint_AVR8.h **** 
  46:lib/lufa/LUFA/Drivers/USB/Core/AVR8/../AVR8/../AVR8/Endpoint_AVR8.h **** /** \ingroup Group_EndpointPrimitiveRW
  47:lib/lufa/LUFA/Drivers/USB/Core/AVR8/../AVR8/../AVR8/Endpoint_AVR8.h ****  *  \defgroup Group_EndpointPrimitiveRW_AVR8 Read/Write of Primitive Data Types (AVR8)
  48:lib/lufa/LUFA/Drivers/USB/Core/AVR8/../AVR8/../AVR8/Endpoint_AVR8.h ****  *  \brief Endpoint primitive read/write definitions for the Atmel AVR8 architecture.
  49:lib/lufa/LUFA/Drivers/USB/Core/AVR8/../AVR8/../AVR8/Endpoint_AVR8.h ****  *
  50:lib/lufa/LUFA/Drivers/USB/Core/AVR8/../AVR8/../AVR8/Endpoint_AVR8.h ****  *  Functions, macros, variables, enums and types related to data reading and writing of primitive 
  51:lib/lufa/LUFA/Drivers/USB/Core/AVR8/../AVR8/../AVR8/Endpoint_AVR8.h ****  *  from and to endpoints.
  52:lib/lufa/LUFA/Drivers/USB/Core/AVR8/../AVR8/../AVR8/Endpoint_AVR8.h ****  */
  53:lib/lufa/LUFA/Drivers/USB/Core/AVR8/../AVR8/../AVR8/Endpoint_AVR8.h **** 
  54:lib/lufa/LUFA/Drivers/USB/Core/AVR8/../AVR8/../AVR8/Endpoint_AVR8.h **** /** \ingroup Group_EndpointPacketManagement
  55:lib/lufa/LUFA/Drivers/USB/Core/AVR8/../AVR8/../AVR8/Endpoint_AVR8.h ****  *  \defgroup Group_EndpointPacketManagement_AVR8 Endpoint Packet Management (AVR8)
  56:lib/lufa/LUFA/Drivers/USB/Core/AVR8/../AVR8/../AVR8/Endpoint_AVR8.h ****  *  \brief Endpoint packet management definitions for the Atmel AVR8 architecture.
  57:lib/lufa/LUFA/Drivers/USB/Core/AVR8/../AVR8/../AVR8/Endpoint_AVR8.h ****  *
  58:lib/lufa/LUFA/Drivers/USB/Core/AVR8/../AVR8/../AVR8/Endpoint_AVR8.h ****  *  Functions, macros, variables, enums and types related to packet management of endpoints.
  59:lib/lufa/LUFA/Drivers/USB/Core/AVR8/../AVR8/../AVR8/Endpoint_AVR8.h ****  */
  60:lib/lufa/LUFA/Drivers/USB/Core/AVR8/../AVR8/../AVR8/Endpoint_AVR8.h **** 
  61:lib/lufa/LUFA/Drivers/USB/Core/AVR8/../AVR8/../AVR8/Endpoint_AVR8.h **** /** \ingroup Group_EndpointManagement
  62:lib/lufa/LUFA/Drivers/USB/Core/AVR8/../AVR8/../AVR8/Endpoint_AVR8.h ****  *  \defgroup Group_EndpointManagement_AVR8 Endpoint Management (AVR8)
  63:lib/lufa/LUFA/Drivers/USB/Core/AVR8/../AVR8/../AVR8/Endpoint_AVR8.h ****  *  \brief Endpoint management definitions for the Atmel AVR8 architecture.
  64:lib/lufa/LUFA/Drivers/USB/Core/AVR8/../AVR8/../AVR8/Endpoint_AVR8.h ****  *
  65:lib/lufa/LUFA/Drivers/USB/Core/AVR8/../AVR8/../AVR8/Endpoint_AVR8.h ****  *  Functions, macros and enums related to endpoint management when in USB Device mode. This
  66:lib/lufa/LUFA/Drivers/USB/Core/AVR8/../AVR8/../AVR8/Endpoint_AVR8.h ****  *  module contains the endpoint management macros, as well as endpoint interrupt and data
  67:lib/lufa/LUFA/Drivers/USB/Core/AVR8/../AVR8/../AVR8/Endpoint_AVR8.h ****  *  send/receive functions for various data types.
  68:lib/lufa/LUFA/Drivers/USB/Core/AVR8/../AVR8/../AVR8/Endpoint_AVR8.h ****  *
  69:lib/lufa/LUFA/Drivers/USB/Core/AVR8/../AVR8/../AVR8/Endpoint_AVR8.h ****  *  @{
  70:lib/lufa/LUFA/Drivers/USB/Core/AVR8/../AVR8/../AVR8/Endpoint_AVR8.h ****  */
  71:lib/lufa/LUFA/Drivers/USB/Core/AVR8/../AVR8/../AVR8/Endpoint_AVR8.h **** 
  72:lib/lufa/LUFA/Drivers/USB/Core/AVR8/../AVR8/../AVR8/Endpoint_AVR8.h **** #ifndef __ENDPOINT_AVR8_H__
  73:lib/lufa/LUFA/Drivers/USB/Core/AVR8/../AVR8/../AVR8/Endpoint_AVR8.h **** #define __ENDPOINT_AVR8_H__
  74:lib/lufa/LUFA/Drivers/USB/Core/AVR8/../AVR8/../AVR8/Endpoint_AVR8.h **** 
  75:lib/lufa/LUFA/Drivers/USB/Core/AVR8/../AVR8/../AVR8/Endpoint_AVR8.h **** 	/* Includes: */
  76:lib/lufa/LUFA/Drivers/USB/Core/AVR8/../AVR8/../AVR8/Endpoint_AVR8.h **** 		#include "../../../../Common/Common.h"
  77:lib/lufa/LUFA/Drivers/USB/Core/AVR8/../AVR8/../AVR8/Endpoint_AVR8.h **** 		#include "../USBTask.h"
  78:lib/lufa/LUFA/Drivers/USB/Core/AVR8/../AVR8/../AVR8/Endpoint_AVR8.h **** 		#include "../USBInterrupt.h"
  79:lib/lufa/LUFA/Drivers/USB/Core/AVR8/../AVR8/../AVR8/Endpoint_AVR8.h **** 
  80:lib/lufa/LUFA/Drivers/USB/Core/AVR8/../AVR8/../AVR8/Endpoint_AVR8.h **** 	/* Enable C linkage for C++ Compilers: */
  81:lib/lufa/LUFA/Drivers/USB/Core/AVR8/../AVR8/../AVR8/Endpoint_AVR8.h **** 		#if defined(__cplusplus)
  82:lib/lufa/LUFA/Drivers/USB/Core/AVR8/../AVR8/../AVR8/Endpoint_AVR8.h **** 			extern "C" {
  83:lib/lufa/LUFA/Drivers/USB/Core/AVR8/../AVR8/../AVR8/Endpoint_AVR8.h **** 		#endif
  84:lib/lufa/LUFA/Drivers/USB/Core/AVR8/../AVR8/../AVR8/Endpoint_AVR8.h **** 
  85:lib/lufa/LUFA/Drivers/USB/Core/AVR8/../AVR8/../AVR8/Endpoint_AVR8.h **** 	/* Preprocessor Checks: */
  86:lib/lufa/LUFA/Drivers/USB/Core/AVR8/../AVR8/../AVR8/Endpoint_AVR8.h **** 		#if !defined(__INCLUDE_FROM_USB_DRIVER)
  87:lib/lufa/LUFA/Drivers/USB/Core/AVR8/../AVR8/../AVR8/Endpoint_AVR8.h **** 			#error Do not include this file directly. Include LUFA/Drivers/USB/USB.h instead.
  88:lib/lufa/LUFA/Drivers/USB/Core/AVR8/../AVR8/../AVR8/Endpoint_AVR8.h **** 		#endif
  89:lib/lufa/LUFA/Drivers/USB/Core/AVR8/../AVR8/../AVR8/Endpoint_AVR8.h **** 
  90:lib/lufa/LUFA/Drivers/USB/Core/AVR8/../AVR8/../AVR8/Endpoint_AVR8.h **** 	/* Private Interface - For use in library only: */
  91:lib/lufa/LUFA/Drivers/USB/Core/AVR8/../AVR8/../AVR8/Endpoint_AVR8.h **** 	#if !defined(__DOXYGEN__)
  92:lib/lufa/LUFA/Drivers/USB/Core/AVR8/../AVR8/../AVR8/Endpoint_AVR8.h **** 		/* Inline Functions: */
  93:lib/lufa/LUFA/Drivers/USB/Core/AVR8/../AVR8/../AVR8/Endpoint_AVR8.h **** 			static inline uint8_t Endpoint_BytesToEPSizeMask(const uint16_t Bytes) ATTR_WARN_UNUSED_RESULT A
  94:lib/lufa/LUFA/Drivers/USB/Core/AVR8/../AVR8/../AVR8/Endpoint_AVR8.h **** 			                                                                       ATTR_ALWAYS_INLINE;
  95:lib/lufa/LUFA/Drivers/USB/Core/AVR8/../AVR8/../AVR8/Endpoint_AVR8.h **** 			static inline uint8_t Endpoint_BytesToEPSizeMask(const uint16_t Bytes)
  96:lib/lufa/LUFA/Drivers/USB/Core/AVR8/../AVR8/../AVR8/Endpoint_AVR8.h **** 			{
  97:lib/lufa/LUFA/Drivers/USB/Core/AVR8/../AVR8/../AVR8/Endpoint_AVR8.h **** 				uint8_t  MaskVal    = 0;
  98:lib/lufa/LUFA/Drivers/USB/Core/AVR8/../AVR8/../AVR8/Endpoint_AVR8.h **** 				uint16_t CheckBytes = 8;
  99:lib/lufa/LUFA/Drivers/USB/Core/AVR8/../AVR8/../AVR8/Endpoint_AVR8.h **** 
 100:lib/lufa/LUFA/Drivers/USB/Core/AVR8/../AVR8/../AVR8/Endpoint_AVR8.h **** 				while (CheckBytes < Bytes)
 101:lib/lufa/LUFA/Drivers/USB/Core/AVR8/../AVR8/../AVR8/Endpoint_AVR8.h **** 				{
 102:lib/lufa/LUFA/Drivers/USB/Core/AVR8/../AVR8/../AVR8/Endpoint_AVR8.h **** 					MaskVal++;
 103:lib/lufa/LUFA/Drivers/USB/Core/AVR8/../AVR8/../AVR8/Endpoint_AVR8.h **** 					CheckBytes <<= 1;
 104:lib/lufa/LUFA/Drivers/USB/Core/AVR8/../AVR8/../AVR8/Endpoint_AVR8.h **** 				}
 105:lib/lufa/LUFA/Drivers/USB/Core/AVR8/../AVR8/../AVR8/Endpoint_AVR8.h **** 
 106:lib/lufa/LUFA/Drivers/USB/Core/AVR8/../AVR8/../AVR8/Endpoint_AVR8.h **** 				return (MaskVal << EPSIZE0);
 107:lib/lufa/LUFA/Drivers/USB/Core/AVR8/../AVR8/../AVR8/Endpoint_AVR8.h **** 			}
 108:lib/lufa/LUFA/Drivers/USB/Core/AVR8/../AVR8/../AVR8/Endpoint_AVR8.h **** 
 109:lib/lufa/LUFA/Drivers/USB/Core/AVR8/../AVR8/../AVR8/Endpoint_AVR8.h **** 		/* Function Prototypes: */
 110:lib/lufa/LUFA/Drivers/USB/Core/AVR8/../AVR8/../AVR8/Endpoint_AVR8.h **** 			void Endpoint_ClearEndpoints(void);
 111:lib/lufa/LUFA/Drivers/USB/Core/AVR8/../AVR8/../AVR8/Endpoint_AVR8.h **** 			bool Endpoint_ConfigureEndpoint_Prv(const uint8_t Number,
 112:lib/lufa/LUFA/Drivers/USB/Core/AVR8/../AVR8/../AVR8/Endpoint_AVR8.h **** 			                                    const uint8_t UECFG0XData,
 113:lib/lufa/LUFA/Drivers/USB/Core/AVR8/../AVR8/../AVR8/Endpoint_AVR8.h **** 			                                    const uint8_t UECFG1XData);
 114:lib/lufa/LUFA/Drivers/USB/Core/AVR8/../AVR8/../AVR8/Endpoint_AVR8.h **** 
 115:lib/lufa/LUFA/Drivers/USB/Core/AVR8/../AVR8/../AVR8/Endpoint_AVR8.h **** 	#endif
 116:lib/lufa/LUFA/Drivers/USB/Core/AVR8/../AVR8/../AVR8/Endpoint_AVR8.h **** 
 117:lib/lufa/LUFA/Drivers/USB/Core/AVR8/../AVR8/../AVR8/Endpoint_AVR8.h **** 	/* Public Interface - May be used in end-application: */
 118:lib/lufa/LUFA/Drivers/USB/Core/AVR8/../AVR8/../AVR8/Endpoint_AVR8.h **** 		/* Macros: */
 119:lib/lufa/LUFA/Drivers/USB/Core/AVR8/../AVR8/../AVR8/Endpoint_AVR8.h **** 			#if (!defined(FIXED_CONTROL_ENDPOINT_SIZE) || defined(__DOXYGEN__))
 120:lib/lufa/LUFA/Drivers/USB/Core/AVR8/../AVR8/../AVR8/Endpoint_AVR8.h **** 				/** Default size of the default control endpoint's bank, until altered by the control endpoint 
 121:lib/lufa/LUFA/Drivers/USB/Core/AVR8/../AVR8/../AVR8/Endpoint_AVR8.h **** 				 *  value in the device descriptor. Not available if the \c FIXED_CONTROL_ENDPOINT_SIZE token i
 122:lib/lufa/LUFA/Drivers/USB/Core/AVR8/../AVR8/../AVR8/Endpoint_AVR8.h **** 				 */
 123:lib/lufa/LUFA/Drivers/USB/Core/AVR8/../AVR8/../AVR8/Endpoint_AVR8.h **** 				#define ENDPOINT_CONTROLEP_DEFAULT_SIZE     8
 124:lib/lufa/LUFA/Drivers/USB/Core/AVR8/../AVR8/../AVR8/Endpoint_AVR8.h **** 			#endif
 125:lib/lufa/LUFA/Drivers/USB/Core/AVR8/../AVR8/../AVR8/Endpoint_AVR8.h **** 
 126:lib/lufa/LUFA/Drivers/USB/Core/AVR8/../AVR8/../AVR8/Endpoint_AVR8.h **** 			#if !defined(CONTROL_ONLY_DEVICE) || defined(__DOXYGEN__)
 127:lib/lufa/LUFA/Drivers/USB/Core/AVR8/../AVR8/../AVR8/Endpoint_AVR8.h **** 				#if defined(USB_SERIES_4_AVR) || defined(USB_SERIES_6_AVR) || defined(USB_SERIES_7_AVR) || defi
 128:lib/lufa/LUFA/Drivers/USB/Core/AVR8/../AVR8/../AVR8/Endpoint_AVR8.h **** 					/** Total number of endpoints (including the default control endpoint at address 0) which may
 129:lib/lufa/LUFA/Drivers/USB/Core/AVR8/../AVR8/../AVR8/Endpoint_AVR8.h **** 					 *  be used in the device. Different USB AVR models support different amounts of endpoints,
 130:lib/lufa/LUFA/Drivers/USB/Core/AVR8/../AVR8/../AVR8/Endpoint_AVR8.h **** 					 *  this value reflects the maximum number of endpoints for the currently selected AVR model.
 131:lib/lufa/LUFA/Drivers/USB/Core/AVR8/../AVR8/../AVR8/Endpoint_AVR8.h **** 					 */
 132:lib/lufa/LUFA/Drivers/USB/Core/AVR8/../AVR8/../AVR8/Endpoint_AVR8.h **** 					#define ENDPOINT_TOTAL_ENDPOINTS        7
 133:lib/lufa/LUFA/Drivers/USB/Core/AVR8/../AVR8/../AVR8/Endpoint_AVR8.h **** 				#else
 134:lib/lufa/LUFA/Drivers/USB/Core/AVR8/../AVR8/../AVR8/Endpoint_AVR8.h **** 					#define ENDPOINT_TOTAL_ENDPOINTS        5
 135:lib/lufa/LUFA/Drivers/USB/Core/AVR8/../AVR8/../AVR8/Endpoint_AVR8.h **** 				#endif
 136:lib/lufa/LUFA/Drivers/USB/Core/AVR8/../AVR8/../AVR8/Endpoint_AVR8.h **** 			#else
 137:lib/lufa/LUFA/Drivers/USB/Core/AVR8/../AVR8/../AVR8/Endpoint_AVR8.h **** 				#define ENDPOINT_TOTAL_ENDPOINTS            1
 138:lib/lufa/LUFA/Drivers/USB/Core/AVR8/../AVR8/../AVR8/Endpoint_AVR8.h **** 			#endif
 139:lib/lufa/LUFA/Drivers/USB/Core/AVR8/../AVR8/../AVR8/Endpoint_AVR8.h **** 
 140:lib/lufa/LUFA/Drivers/USB/Core/AVR8/../AVR8/../AVR8/Endpoint_AVR8.h **** 		/* Enums: */
 141:lib/lufa/LUFA/Drivers/USB/Core/AVR8/../AVR8/../AVR8/Endpoint_AVR8.h **** 			/** Enum for the possible error return codes of the \ref Endpoint_WaitUntilReady() function.
 142:lib/lufa/LUFA/Drivers/USB/Core/AVR8/../AVR8/../AVR8/Endpoint_AVR8.h **** 			 *
 143:lib/lufa/LUFA/Drivers/USB/Core/AVR8/../AVR8/../AVR8/Endpoint_AVR8.h **** 			 *  \ingroup Group_EndpointRW_AVR8
 144:lib/lufa/LUFA/Drivers/USB/Core/AVR8/../AVR8/../AVR8/Endpoint_AVR8.h **** 			 */
 145:lib/lufa/LUFA/Drivers/USB/Core/AVR8/../AVR8/../AVR8/Endpoint_AVR8.h **** 			enum Endpoint_WaitUntilReady_ErrorCodes_t
 146:lib/lufa/LUFA/Drivers/USB/Core/AVR8/../AVR8/../AVR8/Endpoint_AVR8.h **** 			{
 147:lib/lufa/LUFA/Drivers/USB/Core/AVR8/../AVR8/../AVR8/Endpoint_AVR8.h **** 				ENDPOINT_READYWAIT_NoError                 = 0, /**< Endpoint is ready for next packet, no erro
 148:lib/lufa/LUFA/Drivers/USB/Core/AVR8/../AVR8/../AVR8/Endpoint_AVR8.h **** 				ENDPOINT_READYWAIT_EndpointStalled         = 1, /**< The endpoint was stalled during the stream
 149:lib/lufa/LUFA/Drivers/USB/Core/AVR8/../AVR8/../AVR8/Endpoint_AVR8.h **** 				                                                 *   transfer by the host or device.
 150:lib/lufa/LUFA/Drivers/USB/Core/AVR8/../AVR8/../AVR8/Endpoint_AVR8.h **** 				                                                 */
 151:lib/lufa/LUFA/Drivers/USB/Core/AVR8/../AVR8/../AVR8/Endpoint_AVR8.h **** 				ENDPOINT_READYWAIT_DeviceDisconnected      = 2,	/**< Device was disconnected from the host whil
 152:lib/lufa/LUFA/Drivers/USB/Core/AVR8/../AVR8/../AVR8/Endpoint_AVR8.h **** 				                                                 *   waiting for the endpoint to become ready.
 153:lib/lufa/LUFA/Drivers/USB/Core/AVR8/../AVR8/../AVR8/Endpoint_AVR8.h **** 				                                                 */
 154:lib/lufa/LUFA/Drivers/USB/Core/AVR8/../AVR8/../AVR8/Endpoint_AVR8.h **** 				ENDPOINT_READYWAIT_BusSuspended            = 3, /**< The USB bus has been suspended by the host
 155:lib/lufa/LUFA/Drivers/USB/Core/AVR8/../AVR8/../AVR8/Endpoint_AVR8.h **** 				                                                 *   no USB endpoint traffic can occur until th
 156:lib/lufa/LUFA/Drivers/USB/Core/AVR8/../AVR8/../AVR8/Endpoint_AVR8.h **** 				                                                 *   has resumed.
 157:lib/lufa/LUFA/Drivers/USB/Core/AVR8/../AVR8/../AVR8/Endpoint_AVR8.h **** 				                                                 */
 158:lib/lufa/LUFA/Drivers/USB/Core/AVR8/../AVR8/../AVR8/Endpoint_AVR8.h **** 				ENDPOINT_READYWAIT_Timeout                 = 4, /**< The host failed to accept or send the next
 159:lib/lufa/LUFA/Drivers/USB/Core/AVR8/../AVR8/../AVR8/Endpoint_AVR8.h **** 				                                                 *   within the software timeout period set by 
 160:lib/lufa/LUFA/Drivers/USB/Core/AVR8/../AVR8/../AVR8/Endpoint_AVR8.h **** 				                                                 *   \ref USB_STREAM_TIMEOUT_MS macro.
 161:lib/lufa/LUFA/Drivers/USB/Core/AVR8/../AVR8/../AVR8/Endpoint_AVR8.h **** 				                                                 */
 162:lib/lufa/LUFA/Drivers/USB/Core/AVR8/../AVR8/../AVR8/Endpoint_AVR8.h **** 			};
 163:lib/lufa/LUFA/Drivers/USB/Core/AVR8/../AVR8/../AVR8/Endpoint_AVR8.h **** 
 164:lib/lufa/LUFA/Drivers/USB/Core/AVR8/../AVR8/../AVR8/Endpoint_AVR8.h **** 		/* Inline Functions: */
 165:lib/lufa/LUFA/Drivers/USB/Core/AVR8/../AVR8/../AVR8/Endpoint_AVR8.h **** 			/** Configures the specified endpoint address with the given endpoint type, bank size and number
 166:lib/lufa/LUFA/Drivers/USB/Core/AVR8/../AVR8/../AVR8/Endpoint_AVR8.h **** 			 *  banks. Once configured, the endpoint may be read from or written to, depending on its direct
 167:lib/lufa/LUFA/Drivers/USB/Core/AVR8/../AVR8/../AVR8/Endpoint_AVR8.h **** 			 *
 168:lib/lufa/LUFA/Drivers/USB/Core/AVR8/../AVR8/../AVR8/Endpoint_AVR8.h **** 			 *  \param[in] Address    Endpoint address to configure.
 169:lib/lufa/LUFA/Drivers/USB/Core/AVR8/../AVR8/../AVR8/Endpoint_AVR8.h **** 			 *
 170:lib/lufa/LUFA/Drivers/USB/Core/AVR8/../AVR8/../AVR8/Endpoint_AVR8.h **** 			 *  \param[in] Type       Type of endpoint to configure, a \c EP_TYPE_* mask. Not all endpoint t
 171:lib/lufa/LUFA/Drivers/USB/Core/AVR8/../AVR8/../AVR8/Endpoint_AVR8.h **** 			 *                        are available on Low Speed USB devices - refer to the USB 2.0 specific
 172:lib/lufa/LUFA/Drivers/USB/Core/AVR8/../AVR8/../AVR8/Endpoint_AVR8.h **** 			 *
 173:lib/lufa/LUFA/Drivers/USB/Core/AVR8/../AVR8/../AVR8/Endpoint_AVR8.h **** 			 *  \param[in] Size       Size of the endpoint's bank, where packets are stored before they are 
 174:lib/lufa/LUFA/Drivers/USB/Core/AVR8/../AVR8/../AVR8/Endpoint_AVR8.h **** 			 *                        to the USB host, or after they have been received from the USB host (d
 175:lib/lufa/LUFA/Drivers/USB/Core/AVR8/../AVR8/../AVR8/Endpoint_AVR8.h **** 			 *                        the endpoint's data direction). The bank size must indicate the maximu
 176:lib/lufa/LUFA/Drivers/USB/Core/AVR8/../AVR8/../AVR8/Endpoint_AVR8.h **** 			 *                        that the endpoint can handle.
 177:lib/lufa/LUFA/Drivers/USB/Core/AVR8/../AVR8/../AVR8/Endpoint_AVR8.h **** 			 *
 178:lib/lufa/LUFA/Drivers/USB/Core/AVR8/../AVR8/../AVR8/Endpoint_AVR8.h **** 			 *  \param[in] Banks      Number of banks to use for the endpoint being configured.
 179:lib/lufa/LUFA/Drivers/USB/Core/AVR8/../AVR8/../AVR8/Endpoint_AVR8.h **** 			 *
 180:lib/lufa/LUFA/Drivers/USB/Core/AVR8/../AVR8/../AVR8/Endpoint_AVR8.h **** 			 *  \attention When the \c ORDERED_EP_CONFIG compile time option is used, Endpoints <b>must</b> 
 181:lib/lufa/LUFA/Drivers/USB/Core/AVR8/../AVR8/../AVR8/Endpoint_AVR8.h **** 			 *             ascending order, or bank corruption will occur.
 182:lib/lufa/LUFA/Drivers/USB/Core/AVR8/../AVR8/../AVR8/Endpoint_AVR8.h **** 			 *
 183:lib/lufa/LUFA/Drivers/USB/Core/AVR8/../AVR8/../AVR8/Endpoint_AVR8.h **** 			 *  \note Different endpoints may have different maximum packet sizes based on the endpoint's in
 184:lib/lufa/LUFA/Drivers/USB/Core/AVR8/../AVR8/../AVR8/Endpoint_AVR8.h **** 			 *        refer to the chosen microcontroller model's datasheet to determine the maximum bank si
 185:lib/lufa/LUFA/Drivers/USB/Core/AVR8/../AVR8/../AVR8/Endpoint_AVR8.h **** 			 *        \n\n
 186:lib/lufa/LUFA/Drivers/USB/Core/AVR8/../AVR8/../AVR8/Endpoint_AVR8.h **** 			 *
 187:lib/lufa/LUFA/Drivers/USB/Core/AVR8/../AVR8/../AVR8/Endpoint_AVR8.h **** 			 *  \note The default control endpoint should not be manually configured by the user application
 188:lib/lufa/LUFA/Drivers/USB/Core/AVR8/../AVR8/../AVR8/Endpoint_AVR8.h **** 			 *        it is automatically configured by the library internally.
 189:lib/lufa/LUFA/Drivers/USB/Core/AVR8/../AVR8/../AVR8/Endpoint_AVR8.h **** 			 *        \n\n
 190:lib/lufa/LUFA/Drivers/USB/Core/AVR8/../AVR8/../AVR8/Endpoint_AVR8.h **** 			 *
 191:lib/lufa/LUFA/Drivers/USB/Core/AVR8/../AVR8/../AVR8/Endpoint_AVR8.h **** 			 *  \note This routine will automatically select the specified endpoint upon success. Upon failu
 192:lib/lufa/LUFA/Drivers/USB/Core/AVR8/../AVR8/../AVR8/Endpoint_AVR8.h **** 			 *        which failed to reconfigure correctly will be selected.
 193:lib/lufa/LUFA/Drivers/USB/Core/AVR8/../AVR8/../AVR8/Endpoint_AVR8.h **** 			 *
 194:lib/lufa/LUFA/Drivers/USB/Core/AVR8/../AVR8/../AVR8/Endpoint_AVR8.h **** 			 *  \return Boolean \c true if the configuration succeeded, \c false otherwise.
 195:lib/lufa/LUFA/Drivers/USB/Core/AVR8/../AVR8/../AVR8/Endpoint_AVR8.h **** 			 */
 196:lib/lufa/LUFA/Drivers/USB/Core/AVR8/../AVR8/../AVR8/Endpoint_AVR8.h **** 			static inline bool Endpoint_ConfigureEndpoint(const uint8_t Address,
 197:lib/lufa/LUFA/Drivers/USB/Core/AVR8/../AVR8/../AVR8/Endpoint_AVR8.h **** 			                                              const uint8_t Type,
 198:lib/lufa/LUFA/Drivers/USB/Core/AVR8/../AVR8/../AVR8/Endpoint_AVR8.h **** 			                                              const uint16_t Size,
 199:lib/lufa/LUFA/Drivers/USB/Core/AVR8/../AVR8/../AVR8/Endpoint_AVR8.h **** 			                                              const uint8_t Banks) ATTR_ALWAYS_INLINE;
 200:lib/lufa/LUFA/Drivers/USB/Core/AVR8/../AVR8/../AVR8/Endpoint_AVR8.h **** 			static inline bool Endpoint_ConfigureEndpoint(const uint8_t Address,
 201:lib/lufa/LUFA/Drivers/USB/Core/AVR8/../AVR8/../AVR8/Endpoint_AVR8.h **** 			                                              const uint8_t Type,
 202:lib/lufa/LUFA/Drivers/USB/Core/AVR8/../AVR8/../AVR8/Endpoint_AVR8.h **** 			                                              const uint16_t Size,
 203:lib/lufa/LUFA/Drivers/USB/Core/AVR8/../AVR8/../AVR8/Endpoint_AVR8.h **** 			                                              const uint8_t Banks)
 204:lib/lufa/LUFA/Drivers/USB/Core/AVR8/../AVR8/../AVR8/Endpoint_AVR8.h **** 			{
 205:lib/lufa/LUFA/Drivers/USB/Core/AVR8/../AVR8/../AVR8/Endpoint_AVR8.h **** 				uint8_t Number = (Address & ENDPOINT_EPNUM_MASK);
 206:lib/lufa/LUFA/Drivers/USB/Core/AVR8/../AVR8/../AVR8/Endpoint_AVR8.h **** 
 207:lib/lufa/LUFA/Drivers/USB/Core/AVR8/../AVR8/../AVR8/Endpoint_AVR8.h **** 				if (Number >= ENDPOINT_TOTAL_ENDPOINTS)
 208:lib/lufa/LUFA/Drivers/USB/Core/AVR8/../AVR8/../AVR8/Endpoint_AVR8.h **** 				  return false;
 209:lib/lufa/LUFA/Drivers/USB/Core/AVR8/../AVR8/../AVR8/Endpoint_AVR8.h **** 
 210:lib/lufa/LUFA/Drivers/USB/Core/AVR8/../AVR8/../AVR8/Endpoint_AVR8.h **** 				return Endpoint_ConfigureEndpoint_Prv(Number,
 211:lib/lufa/LUFA/Drivers/USB/Core/AVR8/../AVR8/../AVR8/Endpoint_AVR8.h **** 				                                      ((Type << EPTYPE0) | ((Address & ENDPOINT_DIR_IN) ? (1 <<
 212:lib/lufa/LUFA/Drivers/USB/Core/AVR8/../AVR8/../AVR8/Endpoint_AVR8.h **** 				                                      ((1 << ALLOC) | ((Banks > 1) ? (1 << EPBK0) : 0) | Endpoi
 213:lib/lufa/LUFA/Drivers/USB/Core/AVR8/../AVR8/../AVR8/Endpoint_AVR8.h **** 			}
 214:lib/lufa/LUFA/Drivers/USB/Core/AVR8/../AVR8/../AVR8/Endpoint_AVR8.h **** 
 215:lib/lufa/LUFA/Drivers/USB/Core/AVR8/../AVR8/../AVR8/Endpoint_AVR8.h **** 			/** Indicates the number of bytes currently stored in the current endpoint's selected bank.
 216:lib/lufa/LUFA/Drivers/USB/Core/AVR8/../AVR8/../AVR8/Endpoint_AVR8.h **** 			 *
 217:lib/lufa/LUFA/Drivers/USB/Core/AVR8/../AVR8/../AVR8/Endpoint_AVR8.h **** 			 *  \ingroup Group_EndpointRW_AVR8
 218:lib/lufa/LUFA/Drivers/USB/Core/AVR8/../AVR8/../AVR8/Endpoint_AVR8.h **** 			 *
 219:lib/lufa/LUFA/Drivers/USB/Core/AVR8/../AVR8/../AVR8/Endpoint_AVR8.h **** 			 *  \return Total number of bytes in the currently selected Endpoint's FIFO buffer.
 220:lib/lufa/LUFA/Drivers/USB/Core/AVR8/../AVR8/../AVR8/Endpoint_AVR8.h **** 			 */
 221:lib/lufa/LUFA/Drivers/USB/Core/AVR8/../AVR8/../AVR8/Endpoint_AVR8.h **** 			static inline uint16_t Endpoint_BytesInEndpoint(void) ATTR_WARN_UNUSED_RESULT ATTR_ALWAYS_INLINE
 222:lib/lufa/LUFA/Drivers/USB/Core/AVR8/../AVR8/../AVR8/Endpoint_AVR8.h **** 			static inline uint16_t Endpoint_BytesInEndpoint(void)
 223:lib/lufa/LUFA/Drivers/USB/Core/AVR8/../AVR8/../AVR8/Endpoint_AVR8.h **** 			{
 224:lib/lufa/LUFA/Drivers/USB/Core/AVR8/../AVR8/../AVR8/Endpoint_AVR8.h **** 				#if (defined(USB_SERIES_6_AVR) || defined(USB_SERIES_7_AVR))
 225:lib/lufa/LUFA/Drivers/USB/Core/AVR8/../AVR8/../AVR8/Endpoint_AVR8.h **** 					return UEBCX;
 226:lib/lufa/LUFA/Drivers/USB/Core/AVR8/../AVR8/../AVR8/Endpoint_AVR8.h **** 				#elif defined(USB_SERIES_4_AVR)
 227:lib/lufa/LUFA/Drivers/USB/Core/AVR8/../AVR8/../AVR8/Endpoint_AVR8.h **** 					return (((uint16_t)UEBCHX << 8) | UEBCLX);
 228:lib/lufa/LUFA/Drivers/USB/Core/AVR8/../AVR8/../AVR8/Endpoint_AVR8.h **** 				#elif defined(USB_SERIES_2_AVR)
 229:lib/lufa/LUFA/Drivers/USB/Core/AVR8/../AVR8/../AVR8/Endpoint_AVR8.h **** 					return UEBCLX;
 230:lib/lufa/LUFA/Drivers/USB/Core/AVR8/../AVR8/../AVR8/Endpoint_AVR8.h **** 				#endif
 231:lib/lufa/LUFA/Drivers/USB/Core/AVR8/../AVR8/../AVR8/Endpoint_AVR8.h **** 			}
 232:lib/lufa/LUFA/Drivers/USB/Core/AVR8/../AVR8/../AVR8/Endpoint_AVR8.h **** 
 233:lib/lufa/LUFA/Drivers/USB/Core/AVR8/../AVR8/../AVR8/Endpoint_AVR8.h **** 			/** Determines the currently selected endpoint's direction.
 234:lib/lufa/LUFA/Drivers/USB/Core/AVR8/../AVR8/../AVR8/Endpoint_AVR8.h **** 			 *
 235:lib/lufa/LUFA/Drivers/USB/Core/AVR8/../AVR8/../AVR8/Endpoint_AVR8.h **** 			 *  \return The currently selected endpoint's direction, as a \c ENDPOINT_DIR_* mask.
 236:lib/lufa/LUFA/Drivers/USB/Core/AVR8/../AVR8/../AVR8/Endpoint_AVR8.h **** 			 */
 237:lib/lufa/LUFA/Drivers/USB/Core/AVR8/../AVR8/../AVR8/Endpoint_AVR8.h **** 			static inline uint8_t Endpoint_GetEndpointDirection(void) ATTR_WARN_UNUSED_RESULT ATTR_ALWAYS_IN
 238:lib/lufa/LUFA/Drivers/USB/Core/AVR8/../AVR8/../AVR8/Endpoint_AVR8.h **** 			static inline uint8_t Endpoint_GetEndpointDirection(void)
 239:lib/lufa/LUFA/Drivers/USB/Core/AVR8/../AVR8/../AVR8/Endpoint_AVR8.h **** 			{
 240:lib/lufa/LUFA/Drivers/USB/Core/AVR8/../AVR8/../AVR8/Endpoint_AVR8.h **** 				return (UECFG0X & (1 << EPDIR)) ? ENDPOINT_DIR_IN : ENDPOINT_DIR_OUT;
 241:lib/lufa/LUFA/Drivers/USB/Core/AVR8/../AVR8/../AVR8/Endpoint_AVR8.h **** 			}
 242:lib/lufa/LUFA/Drivers/USB/Core/AVR8/../AVR8/../AVR8/Endpoint_AVR8.h **** 
 243:lib/lufa/LUFA/Drivers/USB/Core/AVR8/../AVR8/../AVR8/Endpoint_AVR8.h **** 			/** Get the endpoint address of the currently selected endpoint. This is typically used to save
 244:lib/lufa/LUFA/Drivers/USB/Core/AVR8/../AVR8/../AVR8/Endpoint_AVR8.h **** 			 *  the currently selected endpoint so that it can be restored after another endpoint has been
 245:lib/lufa/LUFA/Drivers/USB/Core/AVR8/../AVR8/../AVR8/Endpoint_AVR8.h **** 			 *  manipulated.
 246:lib/lufa/LUFA/Drivers/USB/Core/AVR8/../AVR8/../AVR8/Endpoint_AVR8.h **** 			 *
 247:lib/lufa/LUFA/Drivers/USB/Core/AVR8/../AVR8/../AVR8/Endpoint_AVR8.h **** 			 *  \return Index of the currently selected endpoint.
 248:lib/lufa/LUFA/Drivers/USB/Core/AVR8/../AVR8/../AVR8/Endpoint_AVR8.h **** 			 */
 249:lib/lufa/LUFA/Drivers/USB/Core/AVR8/../AVR8/../AVR8/Endpoint_AVR8.h **** 			static inline uint8_t Endpoint_GetCurrentEndpoint(void) ATTR_WARN_UNUSED_RESULT ATTR_ALWAYS_INLI
 250:lib/lufa/LUFA/Drivers/USB/Core/AVR8/../AVR8/../AVR8/Endpoint_AVR8.h **** 			static inline uint8_t Endpoint_GetCurrentEndpoint(void)
 251:lib/lufa/LUFA/Drivers/USB/Core/AVR8/../AVR8/../AVR8/Endpoint_AVR8.h **** 			{
 252:lib/lufa/LUFA/Drivers/USB/Core/AVR8/../AVR8/../AVR8/Endpoint_AVR8.h **** 				#if !defined(CONTROL_ONLY_DEVICE)
 253:lib/lufa/LUFA/Drivers/USB/Core/AVR8/../AVR8/../AVR8/Endpoint_AVR8.h **** 					return ((UENUM & ENDPOINT_EPNUM_MASK) | Endpoint_GetEndpointDirection());
 254:lib/lufa/LUFA/Drivers/USB/Core/AVR8/../AVR8/../AVR8/Endpoint_AVR8.h **** 				#else
 255:lib/lufa/LUFA/Drivers/USB/Core/AVR8/../AVR8/../AVR8/Endpoint_AVR8.h **** 					return ENDPOINT_CONTROLEP;
 256:lib/lufa/LUFA/Drivers/USB/Core/AVR8/../AVR8/../AVR8/Endpoint_AVR8.h **** 				#endif
 257:lib/lufa/LUFA/Drivers/USB/Core/AVR8/../AVR8/../AVR8/Endpoint_AVR8.h **** 			}
 258:lib/lufa/LUFA/Drivers/USB/Core/AVR8/../AVR8/../AVR8/Endpoint_AVR8.h **** 
 259:lib/lufa/LUFA/Drivers/USB/Core/AVR8/../AVR8/../AVR8/Endpoint_AVR8.h **** 			/** Selects the given endpoint address.
 260:lib/lufa/LUFA/Drivers/USB/Core/AVR8/../AVR8/../AVR8/Endpoint_AVR8.h **** 			 *
 261:lib/lufa/LUFA/Drivers/USB/Core/AVR8/../AVR8/../AVR8/Endpoint_AVR8.h **** 			 *  Any endpoint operations which do not require the endpoint address to be indicated will opera
 262:lib/lufa/LUFA/Drivers/USB/Core/AVR8/../AVR8/../AVR8/Endpoint_AVR8.h **** 			 *  the currently selected endpoint.
 263:lib/lufa/LUFA/Drivers/USB/Core/AVR8/../AVR8/../AVR8/Endpoint_AVR8.h **** 			 *
 264:lib/lufa/LUFA/Drivers/USB/Core/AVR8/../AVR8/../AVR8/Endpoint_AVR8.h **** 			 *  \param[in] Address Endpoint address to select.
 265:lib/lufa/LUFA/Drivers/USB/Core/AVR8/../AVR8/../AVR8/Endpoint_AVR8.h **** 			 */
 266:lib/lufa/LUFA/Drivers/USB/Core/AVR8/../AVR8/../AVR8/Endpoint_AVR8.h **** 			static inline void Endpoint_SelectEndpoint(const uint8_t Address) ATTR_ALWAYS_INLINE;
 267:lib/lufa/LUFA/Drivers/USB/Core/AVR8/../AVR8/../AVR8/Endpoint_AVR8.h **** 			static inline void Endpoint_SelectEndpoint(const uint8_t Address)
 268:lib/lufa/LUFA/Drivers/USB/Core/AVR8/../AVR8/../AVR8/Endpoint_AVR8.h **** 			{
 269:lib/lufa/LUFA/Drivers/USB/Core/AVR8/../AVR8/../AVR8/Endpoint_AVR8.h **** 				#if !defined(CONTROL_ONLY_DEVICE)
 270:lib/lufa/LUFA/Drivers/USB/Core/AVR8/../AVR8/../AVR8/Endpoint_AVR8.h **** 					UENUM = (Address & ENDPOINT_EPNUM_MASK);
 271:lib/lufa/LUFA/Drivers/USB/Core/AVR8/../AVR8/../AVR8/Endpoint_AVR8.h **** 				#endif
 272:lib/lufa/LUFA/Drivers/USB/Core/AVR8/../AVR8/../AVR8/Endpoint_AVR8.h **** 			}
 273:lib/lufa/LUFA/Drivers/USB/Core/AVR8/../AVR8/../AVR8/Endpoint_AVR8.h **** 
 274:lib/lufa/LUFA/Drivers/USB/Core/AVR8/../AVR8/../AVR8/Endpoint_AVR8.h **** 			/** Resets the endpoint bank FIFO. This clears all the endpoint banks and resets the USB control
 275:lib/lufa/LUFA/Drivers/USB/Core/AVR8/../AVR8/../AVR8/Endpoint_AVR8.h **** 			 *  data In and Out pointers to the bank's contents.
 276:lib/lufa/LUFA/Drivers/USB/Core/AVR8/../AVR8/../AVR8/Endpoint_AVR8.h **** 			 *
 277:lib/lufa/LUFA/Drivers/USB/Core/AVR8/../AVR8/../AVR8/Endpoint_AVR8.h **** 			 *  \param[in] Address  Endpoint address whose FIFO buffers are to be reset.
 278:lib/lufa/LUFA/Drivers/USB/Core/AVR8/../AVR8/../AVR8/Endpoint_AVR8.h **** 			 */
 279:lib/lufa/LUFA/Drivers/USB/Core/AVR8/../AVR8/../AVR8/Endpoint_AVR8.h **** 			static inline void Endpoint_ResetEndpoint(const uint8_t Address) ATTR_ALWAYS_INLINE;
 280:lib/lufa/LUFA/Drivers/USB/Core/AVR8/../AVR8/../AVR8/Endpoint_AVR8.h **** 			static inline void Endpoint_ResetEndpoint(const uint8_t Address)
 281:lib/lufa/LUFA/Drivers/USB/Core/AVR8/../AVR8/../AVR8/Endpoint_AVR8.h **** 			{
 282:lib/lufa/LUFA/Drivers/USB/Core/AVR8/../AVR8/../AVR8/Endpoint_AVR8.h **** 				UERST = (1 << (Address & ENDPOINT_EPNUM_MASK));
 283:lib/lufa/LUFA/Drivers/USB/Core/AVR8/../AVR8/../AVR8/Endpoint_AVR8.h **** 				UERST = 0;
 284:lib/lufa/LUFA/Drivers/USB/Core/AVR8/../AVR8/../AVR8/Endpoint_AVR8.h **** 			}
 285:lib/lufa/LUFA/Drivers/USB/Core/AVR8/../AVR8/../AVR8/Endpoint_AVR8.h **** 
 286:lib/lufa/LUFA/Drivers/USB/Core/AVR8/../AVR8/../AVR8/Endpoint_AVR8.h **** 			/** Enables the currently selected endpoint so that data can be sent and received through it to
 287:lib/lufa/LUFA/Drivers/USB/Core/AVR8/../AVR8/../AVR8/Endpoint_AVR8.h **** 			 *  and from a host.
 288:lib/lufa/LUFA/Drivers/USB/Core/AVR8/../AVR8/../AVR8/Endpoint_AVR8.h **** 			 *
 289:lib/lufa/LUFA/Drivers/USB/Core/AVR8/../AVR8/../AVR8/Endpoint_AVR8.h **** 			 *  \note Endpoints must first be configured properly via \ref Endpoint_ConfigureEndpoint().
 290:lib/lufa/LUFA/Drivers/USB/Core/AVR8/../AVR8/../AVR8/Endpoint_AVR8.h **** 			 */
 291:lib/lufa/LUFA/Drivers/USB/Core/AVR8/../AVR8/../AVR8/Endpoint_AVR8.h **** 			static inline void Endpoint_EnableEndpoint(void) ATTR_ALWAYS_INLINE;
 292:lib/lufa/LUFA/Drivers/USB/Core/AVR8/../AVR8/../AVR8/Endpoint_AVR8.h **** 			static inline void Endpoint_EnableEndpoint(void)
 293:lib/lufa/LUFA/Drivers/USB/Core/AVR8/../AVR8/../AVR8/Endpoint_AVR8.h **** 			{
 294:lib/lufa/LUFA/Drivers/USB/Core/AVR8/../AVR8/../AVR8/Endpoint_AVR8.h **** 				UECONX |= (1 << EPEN);
 295:lib/lufa/LUFA/Drivers/USB/Core/AVR8/../AVR8/../AVR8/Endpoint_AVR8.h **** 			}
 296:lib/lufa/LUFA/Drivers/USB/Core/AVR8/../AVR8/../AVR8/Endpoint_AVR8.h **** 
 297:lib/lufa/LUFA/Drivers/USB/Core/AVR8/../AVR8/../AVR8/Endpoint_AVR8.h **** 			/** Disables the currently selected endpoint so that data cannot be sent and received through it
 298:lib/lufa/LUFA/Drivers/USB/Core/AVR8/../AVR8/../AVR8/Endpoint_AVR8.h **** 			 *  to and from a host.
 299:lib/lufa/LUFA/Drivers/USB/Core/AVR8/../AVR8/../AVR8/Endpoint_AVR8.h **** 			 */
 300:lib/lufa/LUFA/Drivers/USB/Core/AVR8/../AVR8/../AVR8/Endpoint_AVR8.h **** 			static inline void Endpoint_DisableEndpoint(void) ATTR_ALWAYS_INLINE;
 301:lib/lufa/LUFA/Drivers/USB/Core/AVR8/../AVR8/../AVR8/Endpoint_AVR8.h **** 			static inline void Endpoint_DisableEndpoint(void)
 302:lib/lufa/LUFA/Drivers/USB/Core/AVR8/../AVR8/../AVR8/Endpoint_AVR8.h **** 			{
 303:lib/lufa/LUFA/Drivers/USB/Core/AVR8/../AVR8/../AVR8/Endpoint_AVR8.h **** 				UECONX &= ~(1 << EPEN);
 304:lib/lufa/LUFA/Drivers/USB/Core/AVR8/../AVR8/../AVR8/Endpoint_AVR8.h **** 			}
 305:lib/lufa/LUFA/Drivers/USB/Core/AVR8/../AVR8/../AVR8/Endpoint_AVR8.h **** 
 306:lib/lufa/LUFA/Drivers/USB/Core/AVR8/../AVR8/../AVR8/Endpoint_AVR8.h **** 			/** Determines if the currently selected endpoint is enabled, but not necessarily configured.
 307:lib/lufa/LUFA/Drivers/USB/Core/AVR8/../AVR8/../AVR8/Endpoint_AVR8.h **** 			 *
 308:lib/lufa/LUFA/Drivers/USB/Core/AVR8/../AVR8/../AVR8/Endpoint_AVR8.h **** 			 * \return Boolean \c true if the currently selected endpoint is enabled, \c false otherwise.
 309:lib/lufa/LUFA/Drivers/USB/Core/AVR8/../AVR8/../AVR8/Endpoint_AVR8.h **** 			 */
 310:lib/lufa/LUFA/Drivers/USB/Core/AVR8/../AVR8/../AVR8/Endpoint_AVR8.h **** 			static inline bool Endpoint_IsEnabled(void) ATTR_WARN_UNUSED_RESULT ATTR_ALWAYS_INLINE;
 311:lib/lufa/LUFA/Drivers/USB/Core/AVR8/../AVR8/../AVR8/Endpoint_AVR8.h **** 			static inline bool Endpoint_IsEnabled(void)
 312:lib/lufa/LUFA/Drivers/USB/Core/AVR8/../AVR8/../AVR8/Endpoint_AVR8.h **** 			{
 313:lib/lufa/LUFA/Drivers/USB/Core/AVR8/../AVR8/../AVR8/Endpoint_AVR8.h **** 				return ((UECONX & (1 << EPEN)) ? true : false);
 314:lib/lufa/LUFA/Drivers/USB/Core/AVR8/../AVR8/../AVR8/Endpoint_AVR8.h **** 			}
 315:lib/lufa/LUFA/Drivers/USB/Core/AVR8/../AVR8/../AVR8/Endpoint_AVR8.h **** 
 316:lib/lufa/LUFA/Drivers/USB/Core/AVR8/../AVR8/../AVR8/Endpoint_AVR8.h **** 			/** Retrieves the number of busy banks in the currently selected endpoint, which have been queue
 317:lib/lufa/LUFA/Drivers/USB/Core/AVR8/../AVR8/../AVR8/Endpoint_AVR8.h **** 			 *  transmission via the \ref Endpoint_ClearIN() command, or are awaiting acknowledgment via the
 318:lib/lufa/LUFA/Drivers/USB/Core/AVR8/../AVR8/../AVR8/Endpoint_AVR8.h **** 			 *  \ref Endpoint_ClearOUT() command.
 319:lib/lufa/LUFA/Drivers/USB/Core/AVR8/../AVR8/../AVR8/Endpoint_AVR8.h **** 			 *
 320:lib/lufa/LUFA/Drivers/USB/Core/AVR8/../AVR8/../AVR8/Endpoint_AVR8.h **** 			 *  \ingroup Group_EndpointPacketManagement_AVR8
 321:lib/lufa/LUFA/Drivers/USB/Core/AVR8/../AVR8/../AVR8/Endpoint_AVR8.h **** 			 *
 322:lib/lufa/LUFA/Drivers/USB/Core/AVR8/../AVR8/../AVR8/Endpoint_AVR8.h **** 			 *  \return Total number of busy banks in the selected endpoint.
 323:lib/lufa/LUFA/Drivers/USB/Core/AVR8/../AVR8/../AVR8/Endpoint_AVR8.h **** 			 */
 324:lib/lufa/LUFA/Drivers/USB/Core/AVR8/../AVR8/../AVR8/Endpoint_AVR8.h **** 			static inline uint8_t Endpoint_GetBusyBanks(void) ATTR_ALWAYS_INLINE ATTR_WARN_UNUSED_RESULT;
 325:lib/lufa/LUFA/Drivers/USB/Core/AVR8/../AVR8/../AVR8/Endpoint_AVR8.h **** 			static inline uint8_t Endpoint_GetBusyBanks(void)
 326:lib/lufa/LUFA/Drivers/USB/Core/AVR8/../AVR8/../AVR8/Endpoint_AVR8.h **** 			{
 327:lib/lufa/LUFA/Drivers/USB/Core/AVR8/../AVR8/../AVR8/Endpoint_AVR8.h **** 				return (UESTA0X & (0x03 << NBUSYBK0));
 328:lib/lufa/LUFA/Drivers/USB/Core/AVR8/../AVR8/../AVR8/Endpoint_AVR8.h **** 			}
 329:lib/lufa/LUFA/Drivers/USB/Core/AVR8/../AVR8/../AVR8/Endpoint_AVR8.h **** 
 330:lib/lufa/LUFA/Drivers/USB/Core/AVR8/../AVR8/../AVR8/Endpoint_AVR8.h **** 			/** Aborts all pending IN transactions on the currently selected endpoint, once the bank
 331:lib/lufa/LUFA/Drivers/USB/Core/AVR8/../AVR8/../AVR8/Endpoint_AVR8.h **** 			 *  has been queued for transmission to the host via \ref Endpoint_ClearIN(). This function
 332:lib/lufa/LUFA/Drivers/USB/Core/AVR8/../AVR8/../AVR8/Endpoint_AVR8.h **** 			 *  will terminate all queued transactions, resetting the endpoint banks ready for a new
 333:lib/lufa/LUFA/Drivers/USB/Core/AVR8/../AVR8/../AVR8/Endpoint_AVR8.h **** 			 *  packet.
 334:lib/lufa/LUFA/Drivers/USB/Core/AVR8/../AVR8/../AVR8/Endpoint_AVR8.h **** 			 *
 335:lib/lufa/LUFA/Drivers/USB/Core/AVR8/../AVR8/../AVR8/Endpoint_AVR8.h **** 			 *  \ingroup Group_EndpointPacketManagement_AVR8
 336:lib/lufa/LUFA/Drivers/USB/Core/AVR8/../AVR8/../AVR8/Endpoint_AVR8.h **** 			 */
 337:lib/lufa/LUFA/Drivers/USB/Core/AVR8/../AVR8/../AVR8/Endpoint_AVR8.h **** 			static inline void Endpoint_AbortPendingIN(void)
 338:lib/lufa/LUFA/Drivers/USB/Core/AVR8/../AVR8/../AVR8/Endpoint_AVR8.h **** 			{
 339:lib/lufa/LUFA/Drivers/USB/Core/AVR8/../AVR8/../AVR8/Endpoint_AVR8.h **** 				while (Endpoint_GetBusyBanks() != 0)
 340:lib/lufa/LUFA/Drivers/USB/Core/AVR8/../AVR8/../AVR8/Endpoint_AVR8.h **** 				{
 341:lib/lufa/LUFA/Drivers/USB/Core/AVR8/../AVR8/../AVR8/Endpoint_AVR8.h **** 					UEINTX |= (1 << RXOUTI);
 342:lib/lufa/LUFA/Drivers/USB/Core/AVR8/../AVR8/../AVR8/Endpoint_AVR8.h **** 					while (UEINTX & (1 << RXOUTI));
 343:lib/lufa/LUFA/Drivers/USB/Core/AVR8/../AVR8/../AVR8/Endpoint_AVR8.h **** 				}
 344:lib/lufa/LUFA/Drivers/USB/Core/AVR8/../AVR8/../AVR8/Endpoint_AVR8.h **** 			}
 345:lib/lufa/LUFA/Drivers/USB/Core/AVR8/../AVR8/../AVR8/Endpoint_AVR8.h **** 
 346:lib/lufa/LUFA/Drivers/USB/Core/AVR8/../AVR8/../AVR8/Endpoint_AVR8.h **** 			/** Determines if the currently selected endpoint may be read from (if data is waiting in the en
 347:lib/lufa/LUFA/Drivers/USB/Core/AVR8/../AVR8/../AVR8/Endpoint_AVR8.h **** 			 *  bank and the endpoint is an OUT direction, or if the bank is not yet full if the endpoint is
 348:lib/lufa/LUFA/Drivers/USB/Core/AVR8/../AVR8/../AVR8/Endpoint_AVR8.h **** 			 *  direction). This function will return false if an error has occurred in the endpoint, if the
 349:lib/lufa/LUFA/Drivers/USB/Core/AVR8/../AVR8/../AVR8/Endpoint_AVR8.h **** 			 *  is an OUT direction and no packet (or an empty packet) has been received, or if the endpoint
 350:lib/lufa/LUFA/Drivers/USB/Core/AVR8/../AVR8/../AVR8/Endpoint_AVR8.h **** 			 *  direction and the endpoint bank is full.
 351:lib/lufa/LUFA/Drivers/USB/Core/AVR8/../AVR8/../AVR8/Endpoint_AVR8.h **** 			 *
 352:lib/lufa/LUFA/Drivers/USB/Core/AVR8/../AVR8/../AVR8/Endpoint_AVR8.h **** 			 *  \ingroup Group_EndpointPacketManagement_AVR8
 353:lib/lufa/LUFA/Drivers/USB/Core/AVR8/../AVR8/../AVR8/Endpoint_AVR8.h **** 			 *
 354:lib/lufa/LUFA/Drivers/USB/Core/AVR8/../AVR8/../AVR8/Endpoint_AVR8.h **** 			 *  \return Boolean \c true if the currently selected endpoint may be read from or written to, d
 355:lib/lufa/LUFA/Drivers/USB/Core/AVR8/../AVR8/../AVR8/Endpoint_AVR8.h **** 			 *          on its direction.
 356:lib/lufa/LUFA/Drivers/USB/Core/AVR8/../AVR8/../AVR8/Endpoint_AVR8.h **** 			 */
 357:lib/lufa/LUFA/Drivers/USB/Core/AVR8/../AVR8/../AVR8/Endpoint_AVR8.h **** 			static inline bool Endpoint_IsReadWriteAllowed(void) ATTR_WARN_UNUSED_RESULT ATTR_ALWAYS_INLINE;
 358:lib/lufa/LUFA/Drivers/USB/Core/AVR8/../AVR8/../AVR8/Endpoint_AVR8.h **** 			static inline bool Endpoint_IsReadWriteAllowed(void)
 359:lib/lufa/LUFA/Drivers/USB/Core/AVR8/../AVR8/../AVR8/Endpoint_AVR8.h **** 			{
 360:lib/lufa/LUFA/Drivers/USB/Core/AVR8/../AVR8/../AVR8/Endpoint_AVR8.h **** 				return ((UEINTX & (1 << RWAL)) ? true : false);
  79               		.loc 2 360 0
  80 0030 8091 E800 		lds r24,232
  81               	.LBE269:
  82               	.LBE268:
  55:lib/lufa/LUFA/Drivers/USB/Core/AVR8/EndpointStream_AVR8.c **** 	{
  56:lib/lufa/LUFA/Drivers/USB/Core/AVR8/EndpointStream_AVR8.c **** 		if (!(Endpoint_IsReadWriteAllowed()))
  83               		.loc 1 56 0
  84 0034 85FD      		sbrc r24,5
  85 0036 00C0      		rjmp .L5
  86               	.LBB270:
  87               	.LBB271:
 361:lib/lufa/LUFA/Drivers/USB/Core/AVR8/../AVR8/../AVR8/Endpoint_AVR8.h **** 			}
 362:lib/lufa/LUFA/Drivers/USB/Core/AVR8/../AVR8/../AVR8/Endpoint_AVR8.h **** 
 363:lib/lufa/LUFA/Drivers/USB/Core/AVR8/../AVR8/../AVR8/Endpoint_AVR8.h **** 			/** Determines if the currently selected endpoint is configured.
 364:lib/lufa/LUFA/Drivers/USB/Core/AVR8/../AVR8/../AVR8/Endpoint_AVR8.h **** 			 *
 365:lib/lufa/LUFA/Drivers/USB/Core/AVR8/../AVR8/../AVR8/Endpoint_AVR8.h **** 			 *  \return Boolean \c true if the currently selected endpoint has been configured, \c false oth
 366:lib/lufa/LUFA/Drivers/USB/Core/AVR8/../AVR8/../AVR8/Endpoint_AVR8.h **** 			 */
 367:lib/lufa/LUFA/Drivers/USB/Core/AVR8/../AVR8/../AVR8/Endpoint_AVR8.h **** 			static inline bool Endpoint_IsConfigured(void) ATTR_WARN_UNUSED_RESULT ATTR_ALWAYS_INLINE;
 368:lib/lufa/LUFA/Drivers/USB/Core/AVR8/../AVR8/../AVR8/Endpoint_AVR8.h **** 			static inline bool Endpoint_IsConfigured(void)
 369:lib/lufa/LUFA/Drivers/USB/Core/AVR8/../AVR8/../AVR8/Endpoint_AVR8.h **** 			{
 370:lib/lufa/LUFA/Drivers/USB/Core/AVR8/../AVR8/../AVR8/Endpoint_AVR8.h **** 				return ((UESTA0X & (1 << CFGOK)) ? true : false);
 371:lib/lufa/LUFA/Drivers/USB/Core/AVR8/../AVR8/../AVR8/Endpoint_AVR8.h **** 			}
 372:lib/lufa/LUFA/Drivers/USB/Core/AVR8/../AVR8/../AVR8/Endpoint_AVR8.h **** 
 373:lib/lufa/LUFA/Drivers/USB/Core/AVR8/../AVR8/../AVR8/Endpoint_AVR8.h **** 			/** Returns a mask indicating which INTERRUPT type endpoints have interrupted - i.e. their
 374:lib/lufa/LUFA/Drivers/USB/Core/AVR8/../AVR8/../AVR8/Endpoint_AVR8.h **** 			 *  interrupt duration has elapsed. Which endpoints have interrupted can be determined by
 375:lib/lufa/LUFA/Drivers/USB/Core/AVR8/../AVR8/../AVR8/Endpoint_AVR8.h **** 			 *  masking the return value against <tt>(1 << <i>{Endpoint Number}</i>)</tt>.
 376:lib/lufa/LUFA/Drivers/USB/Core/AVR8/../AVR8/../AVR8/Endpoint_AVR8.h **** 			 *
 377:lib/lufa/LUFA/Drivers/USB/Core/AVR8/../AVR8/../AVR8/Endpoint_AVR8.h **** 			 *  \return Mask whose bits indicate which endpoints have interrupted.
 378:lib/lufa/LUFA/Drivers/USB/Core/AVR8/../AVR8/../AVR8/Endpoint_AVR8.h **** 			 */
 379:lib/lufa/LUFA/Drivers/USB/Core/AVR8/../AVR8/../AVR8/Endpoint_AVR8.h **** 			static inline uint8_t Endpoint_GetEndpointInterrupts(void) ATTR_WARN_UNUSED_RESULT ATTR_ALWAYS_I
 380:lib/lufa/LUFA/Drivers/USB/Core/AVR8/../AVR8/../AVR8/Endpoint_AVR8.h **** 			static inline uint8_t Endpoint_GetEndpointInterrupts(void)
 381:lib/lufa/LUFA/Drivers/USB/Core/AVR8/../AVR8/../AVR8/Endpoint_AVR8.h **** 			{
 382:lib/lufa/LUFA/Drivers/USB/Core/AVR8/../AVR8/../AVR8/Endpoint_AVR8.h **** 				return UEINT;
 383:lib/lufa/LUFA/Drivers/USB/Core/AVR8/../AVR8/../AVR8/Endpoint_AVR8.h **** 			}
 384:lib/lufa/LUFA/Drivers/USB/Core/AVR8/../AVR8/../AVR8/Endpoint_AVR8.h **** 
 385:lib/lufa/LUFA/Drivers/USB/Core/AVR8/../AVR8/../AVR8/Endpoint_AVR8.h **** 			/** Determines if the specified endpoint number has interrupted (valid only for INTERRUPT type
 386:lib/lufa/LUFA/Drivers/USB/Core/AVR8/../AVR8/../AVR8/Endpoint_AVR8.h **** 			 *  endpoints).
 387:lib/lufa/LUFA/Drivers/USB/Core/AVR8/../AVR8/../AVR8/Endpoint_AVR8.h **** 			 *
 388:lib/lufa/LUFA/Drivers/USB/Core/AVR8/../AVR8/../AVR8/Endpoint_AVR8.h **** 			 *  \param[in] Address  Address of the endpoint whose interrupt flag should be tested.
 389:lib/lufa/LUFA/Drivers/USB/Core/AVR8/../AVR8/../AVR8/Endpoint_AVR8.h **** 			 *
 390:lib/lufa/LUFA/Drivers/USB/Core/AVR8/../AVR8/../AVR8/Endpoint_AVR8.h **** 			 *  \return Boolean \c true if the specified endpoint has interrupted, \c false otherwise.
 391:lib/lufa/LUFA/Drivers/USB/Core/AVR8/../AVR8/../AVR8/Endpoint_AVR8.h **** 			 */
 392:lib/lufa/LUFA/Drivers/USB/Core/AVR8/../AVR8/../AVR8/Endpoint_AVR8.h **** 			static inline bool Endpoint_HasEndpointInterrupted(const uint8_t Address) ATTR_WARN_UNUSED_RESUL
 393:lib/lufa/LUFA/Drivers/USB/Core/AVR8/../AVR8/../AVR8/Endpoint_AVR8.h **** 			static inline bool Endpoint_HasEndpointInterrupted(const uint8_t Address)
 394:lib/lufa/LUFA/Drivers/USB/Core/AVR8/../AVR8/../AVR8/Endpoint_AVR8.h **** 			{
 395:lib/lufa/LUFA/Drivers/USB/Core/AVR8/../AVR8/../AVR8/Endpoint_AVR8.h **** 				return ((Endpoint_GetEndpointInterrupts() & (1 << (Address & ENDPOINT_EPNUM_MASK))) ? true : fa
 396:lib/lufa/LUFA/Drivers/USB/Core/AVR8/../AVR8/../AVR8/Endpoint_AVR8.h **** 			}
 397:lib/lufa/LUFA/Drivers/USB/Core/AVR8/../AVR8/../AVR8/Endpoint_AVR8.h **** 
 398:lib/lufa/LUFA/Drivers/USB/Core/AVR8/../AVR8/../AVR8/Endpoint_AVR8.h **** 			/** Determines if the selected IN endpoint is ready for a new packet to be sent to the host.
 399:lib/lufa/LUFA/Drivers/USB/Core/AVR8/../AVR8/../AVR8/Endpoint_AVR8.h **** 			 *
 400:lib/lufa/LUFA/Drivers/USB/Core/AVR8/../AVR8/../AVR8/Endpoint_AVR8.h **** 			 *  \ingroup Group_EndpointPacketManagement_AVR8
 401:lib/lufa/LUFA/Drivers/USB/Core/AVR8/../AVR8/../AVR8/Endpoint_AVR8.h **** 			 *
 402:lib/lufa/LUFA/Drivers/USB/Core/AVR8/../AVR8/../AVR8/Endpoint_AVR8.h **** 			 *  \return Boolean \c true if the current endpoint is ready for an IN packet, \c false otherwis
 403:lib/lufa/LUFA/Drivers/USB/Core/AVR8/../AVR8/../AVR8/Endpoint_AVR8.h **** 			 */
 404:lib/lufa/LUFA/Drivers/USB/Core/AVR8/../AVR8/../AVR8/Endpoint_AVR8.h **** 			static inline bool Endpoint_IsINReady(void) ATTR_WARN_UNUSED_RESULT ATTR_ALWAYS_INLINE;
 405:lib/lufa/LUFA/Drivers/USB/Core/AVR8/../AVR8/../AVR8/Endpoint_AVR8.h **** 			static inline bool Endpoint_IsINReady(void)
 406:lib/lufa/LUFA/Drivers/USB/Core/AVR8/../AVR8/../AVR8/Endpoint_AVR8.h **** 			{
 407:lib/lufa/LUFA/Drivers/USB/Core/AVR8/../AVR8/../AVR8/Endpoint_AVR8.h **** 				return ((UEINTX & (1 << TXINI)) ? true : false);
 408:lib/lufa/LUFA/Drivers/USB/Core/AVR8/../AVR8/../AVR8/Endpoint_AVR8.h **** 			}
 409:lib/lufa/LUFA/Drivers/USB/Core/AVR8/../AVR8/../AVR8/Endpoint_AVR8.h **** 
 410:lib/lufa/LUFA/Drivers/USB/Core/AVR8/../AVR8/../AVR8/Endpoint_AVR8.h **** 			/** Determines if the selected OUT endpoint has received new packet from the host.
 411:lib/lufa/LUFA/Drivers/USB/Core/AVR8/../AVR8/../AVR8/Endpoint_AVR8.h **** 			 *
 412:lib/lufa/LUFA/Drivers/USB/Core/AVR8/../AVR8/../AVR8/Endpoint_AVR8.h **** 			 *  \ingroup Group_EndpointPacketManagement_AVR8
 413:lib/lufa/LUFA/Drivers/USB/Core/AVR8/../AVR8/../AVR8/Endpoint_AVR8.h **** 			 *
 414:lib/lufa/LUFA/Drivers/USB/Core/AVR8/../AVR8/../AVR8/Endpoint_AVR8.h **** 			 *  \return Boolean \c true if current endpoint is has received an OUT packet, \c false otherwis
 415:lib/lufa/LUFA/Drivers/USB/Core/AVR8/../AVR8/../AVR8/Endpoint_AVR8.h **** 			 */
 416:lib/lufa/LUFA/Drivers/USB/Core/AVR8/../AVR8/../AVR8/Endpoint_AVR8.h **** 			static inline bool Endpoint_IsOUTReceived(void) ATTR_WARN_UNUSED_RESULT ATTR_ALWAYS_INLINE;
 417:lib/lufa/LUFA/Drivers/USB/Core/AVR8/../AVR8/../AVR8/Endpoint_AVR8.h **** 			static inline bool Endpoint_IsOUTReceived(void)
 418:lib/lufa/LUFA/Drivers/USB/Core/AVR8/../AVR8/../AVR8/Endpoint_AVR8.h **** 			{
 419:lib/lufa/LUFA/Drivers/USB/Core/AVR8/../AVR8/../AVR8/Endpoint_AVR8.h **** 				return ((UEINTX & (1 << RXOUTI)) ? true : false);
 420:lib/lufa/LUFA/Drivers/USB/Core/AVR8/../AVR8/../AVR8/Endpoint_AVR8.h **** 			}
 421:lib/lufa/LUFA/Drivers/USB/Core/AVR8/../AVR8/../AVR8/Endpoint_AVR8.h **** 
 422:lib/lufa/LUFA/Drivers/USB/Core/AVR8/../AVR8/../AVR8/Endpoint_AVR8.h **** 			/** Determines if the current CONTROL type endpoint has received a SETUP packet.
 423:lib/lufa/LUFA/Drivers/USB/Core/AVR8/../AVR8/../AVR8/Endpoint_AVR8.h **** 			 *
 424:lib/lufa/LUFA/Drivers/USB/Core/AVR8/../AVR8/../AVR8/Endpoint_AVR8.h **** 			 *  \ingroup Group_EndpointPacketManagement_AVR8
 425:lib/lufa/LUFA/Drivers/USB/Core/AVR8/../AVR8/../AVR8/Endpoint_AVR8.h **** 			 *
 426:lib/lufa/LUFA/Drivers/USB/Core/AVR8/../AVR8/../AVR8/Endpoint_AVR8.h **** 			 *  \return Boolean \c true if the selected endpoint has received a SETUP packet, \c false other
 427:lib/lufa/LUFA/Drivers/USB/Core/AVR8/../AVR8/../AVR8/Endpoint_AVR8.h **** 			 */
 428:lib/lufa/LUFA/Drivers/USB/Core/AVR8/../AVR8/../AVR8/Endpoint_AVR8.h **** 			static inline bool Endpoint_IsSETUPReceived(void) ATTR_WARN_UNUSED_RESULT ATTR_ALWAYS_INLINE;
 429:lib/lufa/LUFA/Drivers/USB/Core/AVR8/../AVR8/../AVR8/Endpoint_AVR8.h **** 			static inline bool Endpoint_IsSETUPReceived(void)
 430:lib/lufa/LUFA/Drivers/USB/Core/AVR8/../AVR8/../AVR8/Endpoint_AVR8.h **** 			{
 431:lib/lufa/LUFA/Drivers/USB/Core/AVR8/../AVR8/../AVR8/Endpoint_AVR8.h **** 				return ((UEINTX & (1 << RXSTPI)) ? true : false);
 432:lib/lufa/LUFA/Drivers/USB/Core/AVR8/../AVR8/../AVR8/Endpoint_AVR8.h **** 			}
 433:lib/lufa/LUFA/Drivers/USB/Core/AVR8/../AVR8/../AVR8/Endpoint_AVR8.h **** 
 434:lib/lufa/LUFA/Drivers/USB/Core/AVR8/../AVR8/../AVR8/Endpoint_AVR8.h **** 			/** Clears a received SETUP packet on the currently selected CONTROL type endpoint, freeing up t
 435:lib/lufa/LUFA/Drivers/USB/Core/AVR8/../AVR8/../AVR8/Endpoint_AVR8.h **** 			 *  endpoint for the next packet.
 436:lib/lufa/LUFA/Drivers/USB/Core/AVR8/../AVR8/../AVR8/Endpoint_AVR8.h **** 			 *
 437:lib/lufa/LUFA/Drivers/USB/Core/AVR8/../AVR8/../AVR8/Endpoint_AVR8.h **** 			 *  \ingroup Group_EndpointPacketManagement_AVR8
 438:lib/lufa/LUFA/Drivers/USB/Core/AVR8/../AVR8/../AVR8/Endpoint_AVR8.h **** 			 *
 439:lib/lufa/LUFA/Drivers/USB/Core/AVR8/../AVR8/../AVR8/Endpoint_AVR8.h **** 			 *  \note This is not applicable for non CONTROL type endpoints.
 440:lib/lufa/LUFA/Drivers/USB/Core/AVR8/../AVR8/../AVR8/Endpoint_AVR8.h **** 			 */
 441:lib/lufa/LUFA/Drivers/USB/Core/AVR8/../AVR8/../AVR8/Endpoint_AVR8.h **** 			static inline void Endpoint_ClearSETUP(void) ATTR_ALWAYS_INLINE;
 442:lib/lufa/LUFA/Drivers/USB/Core/AVR8/../AVR8/../AVR8/Endpoint_AVR8.h **** 			static inline void Endpoint_ClearSETUP(void)
 443:lib/lufa/LUFA/Drivers/USB/Core/AVR8/../AVR8/../AVR8/Endpoint_AVR8.h **** 			{
 444:lib/lufa/LUFA/Drivers/USB/Core/AVR8/../AVR8/../AVR8/Endpoint_AVR8.h **** 				UEINTX &= ~(1 << RXSTPI);
 445:lib/lufa/LUFA/Drivers/USB/Core/AVR8/../AVR8/../AVR8/Endpoint_AVR8.h **** 			}
 446:lib/lufa/LUFA/Drivers/USB/Core/AVR8/../AVR8/../AVR8/Endpoint_AVR8.h **** 
 447:lib/lufa/LUFA/Drivers/USB/Core/AVR8/../AVR8/../AVR8/Endpoint_AVR8.h **** 			/** Sends an IN packet to the host on the currently selected endpoint, freeing up the endpoint f
 448:lib/lufa/LUFA/Drivers/USB/Core/AVR8/../AVR8/../AVR8/Endpoint_AVR8.h **** 			 *  next packet and switching to the alternative endpoint bank if double banked.
 449:lib/lufa/LUFA/Drivers/USB/Core/AVR8/../AVR8/../AVR8/Endpoint_AVR8.h **** 			 *
 450:lib/lufa/LUFA/Drivers/USB/Core/AVR8/../AVR8/../AVR8/Endpoint_AVR8.h **** 			 *  \ingroup Group_EndpointPacketManagement_AVR8
 451:lib/lufa/LUFA/Drivers/USB/Core/AVR8/../AVR8/../AVR8/Endpoint_AVR8.h **** 			 */
 452:lib/lufa/LUFA/Drivers/USB/Core/AVR8/../AVR8/../AVR8/Endpoint_AVR8.h **** 			static inline void Endpoint_ClearIN(void) ATTR_ALWAYS_INLINE;
 453:lib/lufa/LUFA/Drivers/USB/Core/AVR8/../AVR8/../AVR8/Endpoint_AVR8.h **** 			static inline void Endpoint_ClearIN(void)
 454:lib/lufa/LUFA/Drivers/USB/Core/AVR8/../AVR8/../AVR8/Endpoint_AVR8.h **** 			{
 455:lib/lufa/LUFA/Drivers/USB/Core/AVR8/../AVR8/../AVR8/Endpoint_AVR8.h **** 				#if !defined(CONTROL_ONLY_DEVICE)
 456:lib/lufa/LUFA/Drivers/USB/Core/AVR8/../AVR8/../AVR8/Endpoint_AVR8.h **** 					UEINTX &= ~((1 << TXINI) | (1 << FIFOCON));
 457:lib/lufa/LUFA/Drivers/USB/Core/AVR8/../AVR8/../AVR8/Endpoint_AVR8.h **** 				#else
 458:lib/lufa/LUFA/Drivers/USB/Core/AVR8/../AVR8/../AVR8/Endpoint_AVR8.h **** 					UEINTX &= ~(1 << TXINI);
 459:lib/lufa/LUFA/Drivers/USB/Core/AVR8/../AVR8/../AVR8/Endpoint_AVR8.h **** 				#endif
 460:lib/lufa/LUFA/Drivers/USB/Core/AVR8/../AVR8/../AVR8/Endpoint_AVR8.h **** 			}
 461:lib/lufa/LUFA/Drivers/USB/Core/AVR8/../AVR8/../AVR8/Endpoint_AVR8.h **** 
 462:lib/lufa/LUFA/Drivers/USB/Core/AVR8/../AVR8/../AVR8/Endpoint_AVR8.h **** 			/** Acknowledges an OUT packet to the host on the currently selected endpoint, freeing up the en
 463:lib/lufa/LUFA/Drivers/USB/Core/AVR8/../AVR8/../AVR8/Endpoint_AVR8.h **** 			 *  for the next packet and switching to the alternative endpoint bank if double banked.
 464:lib/lufa/LUFA/Drivers/USB/Core/AVR8/../AVR8/../AVR8/Endpoint_AVR8.h **** 			 *
 465:lib/lufa/LUFA/Drivers/USB/Core/AVR8/../AVR8/../AVR8/Endpoint_AVR8.h **** 			 *  \ingroup Group_EndpointPacketManagement_AVR8
 466:lib/lufa/LUFA/Drivers/USB/Core/AVR8/../AVR8/../AVR8/Endpoint_AVR8.h **** 			 */
 467:lib/lufa/LUFA/Drivers/USB/Core/AVR8/../AVR8/../AVR8/Endpoint_AVR8.h **** 			static inline void Endpoint_ClearOUT(void) ATTR_ALWAYS_INLINE;
 468:lib/lufa/LUFA/Drivers/USB/Core/AVR8/../AVR8/../AVR8/Endpoint_AVR8.h **** 			static inline void Endpoint_ClearOUT(void)
 469:lib/lufa/LUFA/Drivers/USB/Core/AVR8/../AVR8/../AVR8/Endpoint_AVR8.h **** 			{
 470:lib/lufa/LUFA/Drivers/USB/Core/AVR8/../AVR8/../AVR8/Endpoint_AVR8.h **** 				#if !defined(CONTROL_ONLY_DEVICE)
 471:lib/lufa/LUFA/Drivers/USB/Core/AVR8/../AVR8/../AVR8/Endpoint_AVR8.h **** 					UEINTX &= ~((1 << RXOUTI) | (1 << FIFOCON));
  88               		.loc 2 471 0
  89 0038 8091 E800 		lds r24,232
  90 003c 8B77      		andi r24,lo8(123)
  91 003e 8093 E800 		sts 232,r24
  92               	.LBE271:
  93               	.LBE270:
  57:lib/lufa/LUFA/Drivers/USB/Core/AVR8/EndpointStream_AVR8.c **** 		{
  58:lib/lufa/LUFA/Drivers/USB/Core/AVR8/EndpointStream_AVR8.c **** 			Endpoint_ClearOUT();
  59:lib/lufa/LUFA/Drivers/USB/Core/AVR8/EndpointStream_AVR8.c **** 
  60:lib/lufa/LUFA/Drivers/USB/Core/AVR8/EndpointStream_AVR8.c **** 			if (BytesProcessed != NULL)
  94               		.loc 1 60 0
  95 0042 0115      		cp r16,__zero_reg__
  96 0044 1105      		cpc r17,__zero_reg__
  97 0046 01F0      		breq .L6
  61:lib/lufa/LUFA/Drivers/USB/Core/AVR8/EndpointStream_AVR8.c **** 			{
  62:lib/lufa/LUFA/Drivers/USB/Core/AVR8/EndpointStream_AVR8.c **** 				*BytesProcessed += BytesInTransfer;
  98               		.loc 1 62 0
  99 0048 F801      		movw r30,r16
 100 004a 8081      		ld r24,Z
 101 004c 9181      		ldd r25,Z+1
 102 004e E80E      		add r14,r24
 103 0050 F91E      		adc r15,r25
 104               	.LVL6:
 105 0052 F182      		std Z+1,r15
 106 0054 E082      		st Z,r14
  63:lib/lufa/LUFA/Drivers/USB/Core/AVR8/EndpointStream_AVR8.c **** 				return ENDPOINT_RWSTREAM_IncompleteTransfer;
 107               		.loc 1 63 0
 108 0056 85E0      		ldi r24,lo8(5)
 109 0058 00C0      		rjmp .L2
 110               	.LVL7:
 111               	.L6:
  64:lib/lufa/LUFA/Drivers/USB/Core/AVR8/EndpointStream_AVR8.c **** 			}
  65:lib/lufa/LUFA/Drivers/USB/Core/AVR8/EndpointStream_AVR8.c **** 
  66:lib/lufa/LUFA/Drivers/USB/Core/AVR8/EndpointStream_AVR8.c **** 			if ((ErrorCode = Endpoint_WaitUntilReady()))
 112               		.loc 1 66 0
 113 005a 0E94 0000 		call Endpoint_WaitUntilReady
 114               	.LVL8:
 115 005e 8823      		tst r24
 116 0060 01F0      		breq .L4
 117 0062 00C0      		rjmp .L2
 118               	.LVL9:
 119               	.L5:
 120               	.LBB272:
 121               	.LBB273:
 472:lib/lufa/LUFA/Drivers/USB/Core/AVR8/../AVR8/../AVR8/Endpoint_AVR8.h **** 				#else
 473:lib/lufa/LUFA/Drivers/USB/Core/AVR8/../AVR8/../AVR8/Endpoint_AVR8.h **** 					UEINTX &= ~(1 << RXOUTI);
 474:lib/lufa/LUFA/Drivers/USB/Core/AVR8/../AVR8/../AVR8/Endpoint_AVR8.h **** 				#endif
 475:lib/lufa/LUFA/Drivers/USB/Core/AVR8/../AVR8/../AVR8/Endpoint_AVR8.h **** 			}
 476:lib/lufa/LUFA/Drivers/USB/Core/AVR8/../AVR8/../AVR8/Endpoint_AVR8.h **** 
 477:lib/lufa/LUFA/Drivers/USB/Core/AVR8/../AVR8/../AVR8/Endpoint_AVR8.h **** 			/** Stalls the current endpoint, indicating to the host that a logical problem occurred with the
 478:lib/lufa/LUFA/Drivers/USB/Core/AVR8/../AVR8/../AVR8/Endpoint_AVR8.h **** 			 *  indicated endpoint and that the current transfer sequence should be aborted. This provides a
 479:lib/lufa/LUFA/Drivers/USB/Core/AVR8/../AVR8/../AVR8/Endpoint_AVR8.h **** 			 *  way for devices to indicate invalid commands to the host so that the current transfer can be
 480:lib/lufa/LUFA/Drivers/USB/Core/AVR8/../AVR8/../AVR8/Endpoint_AVR8.h **** 			 *  aborted and the host can begin its own recovery sequence.
 481:lib/lufa/LUFA/Drivers/USB/Core/AVR8/../AVR8/../AVR8/Endpoint_AVR8.h **** 			 *
 482:lib/lufa/LUFA/Drivers/USB/Core/AVR8/../AVR8/../AVR8/Endpoint_AVR8.h **** 			 *  The currently selected endpoint remains stalled until either the \ref Endpoint_ClearStall() 
 483:lib/lufa/LUFA/Drivers/USB/Core/AVR8/../AVR8/../AVR8/Endpoint_AVR8.h **** 			 *  is called, or the host issues a CLEAR FEATURE request to the device for the currently select
 484:lib/lufa/LUFA/Drivers/USB/Core/AVR8/../AVR8/../AVR8/Endpoint_AVR8.h **** 			 *  endpoint.
 485:lib/lufa/LUFA/Drivers/USB/Core/AVR8/../AVR8/../AVR8/Endpoint_AVR8.h **** 			 *
 486:lib/lufa/LUFA/Drivers/USB/Core/AVR8/../AVR8/../AVR8/Endpoint_AVR8.h **** 			 *  \ingroup Group_EndpointPacketManagement_AVR8
 487:lib/lufa/LUFA/Drivers/USB/Core/AVR8/../AVR8/../AVR8/Endpoint_AVR8.h **** 			 */
 488:lib/lufa/LUFA/Drivers/USB/Core/AVR8/../AVR8/../AVR8/Endpoint_AVR8.h **** 			static inline void Endpoint_StallTransaction(void) ATTR_ALWAYS_INLINE;
 489:lib/lufa/LUFA/Drivers/USB/Core/AVR8/../AVR8/../AVR8/Endpoint_AVR8.h **** 			static inline void Endpoint_StallTransaction(void)
 490:lib/lufa/LUFA/Drivers/USB/Core/AVR8/../AVR8/../AVR8/Endpoint_AVR8.h **** 			{
 491:lib/lufa/LUFA/Drivers/USB/Core/AVR8/../AVR8/../AVR8/Endpoint_AVR8.h **** 				UECONX |= (1 << STALLRQ);
 492:lib/lufa/LUFA/Drivers/USB/Core/AVR8/../AVR8/../AVR8/Endpoint_AVR8.h **** 			}
 493:lib/lufa/LUFA/Drivers/USB/Core/AVR8/../AVR8/../AVR8/Endpoint_AVR8.h **** 
 494:lib/lufa/LUFA/Drivers/USB/Core/AVR8/../AVR8/../AVR8/Endpoint_AVR8.h **** 			/** Clears the STALL condition on the currently selected endpoint.
 495:lib/lufa/LUFA/Drivers/USB/Core/AVR8/../AVR8/../AVR8/Endpoint_AVR8.h **** 			 *
 496:lib/lufa/LUFA/Drivers/USB/Core/AVR8/../AVR8/../AVR8/Endpoint_AVR8.h **** 			 *  \ingroup Group_EndpointPacketManagement_AVR8
 497:lib/lufa/LUFA/Drivers/USB/Core/AVR8/../AVR8/../AVR8/Endpoint_AVR8.h **** 			 */
 498:lib/lufa/LUFA/Drivers/USB/Core/AVR8/../AVR8/../AVR8/Endpoint_AVR8.h **** 			static inline void Endpoint_ClearStall(void) ATTR_ALWAYS_INLINE;
 499:lib/lufa/LUFA/Drivers/USB/Core/AVR8/../AVR8/../AVR8/Endpoint_AVR8.h **** 			static inline void Endpoint_ClearStall(void)
 500:lib/lufa/LUFA/Drivers/USB/Core/AVR8/../AVR8/../AVR8/Endpoint_AVR8.h **** 			{
 501:lib/lufa/LUFA/Drivers/USB/Core/AVR8/../AVR8/../AVR8/Endpoint_AVR8.h **** 				UECONX |= (1 << STALLRQC);
 502:lib/lufa/LUFA/Drivers/USB/Core/AVR8/../AVR8/../AVR8/Endpoint_AVR8.h **** 			}
 503:lib/lufa/LUFA/Drivers/USB/Core/AVR8/../AVR8/../AVR8/Endpoint_AVR8.h **** 
 504:lib/lufa/LUFA/Drivers/USB/Core/AVR8/../AVR8/../AVR8/Endpoint_AVR8.h **** 			/** Determines if the currently selected endpoint is stalled, \c false otherwise.
 505:lib/lufa/LUFA/Drivers/USB/Core/AVR8/../AVR8/../AVR8/Endpoint_AVR8.h **** 			 *
 506:lib/lufa/LUFA/Drivers/USB/Core/AVR8/../AVR8/../AVR8/Endpoint_AVR8.h **** 			 *  \ingroup Group_EndpointPacketManagement_AVR8
 507:lib/lufa/LUFA/Drivers/USB/Core/AVR8/../AVR8/../AVR8/Endpoint_AVR8.h **** 			 *
 508:lib/lufa/LUFA/Drivers/USB/Core/AVR8/../AVR8/../AVR8/Endpoint_AVR8.h **** 			 *  \return Boolean \c true if the currently selected endpoint is stalled, \c false otherwise.
 509:lib/lufa/LUFA/Drivers/USB/Core/AVR8/../AVR8/../AVR8/Endpoint_AVR8.h **** 			 */
 510:lib/lufa/LUFA/Drivers/USB/Core/AVR8/../AVR8/../AVR8/Endpoint_AVR8.h **** 			static inline bool Endpoint_IsStalled(void) ATTR_WARN_UNUSED_RESULT ATTR_ALWAYS_INLINE;
 511:lib/lufa/LUFA/Drivers/USB/Core/AVR8/../AVR8/../AVR8/Endpoint_AVR8.h **** 			static inline bool Endpoint_IsStalled(void)
 512:lib/lufa/LUFA/Drivers/USB/Core/AVR8/../AVR8/../AVR8/Endpoint_AVR8.h **** 			{
 513:lib/lufa/LUFA/Drivers/USB/Core/AVR8/../AVR8/../AVR8/Endpoint_AVR8.h **** 				return ((UECONX & (1 << STALLRQ)) ? true : false);
 514:lib/lufa/LUFA/Drivers/USB/Core/AVR8/../AVR8/../AVR8/Endpoint_AVR8.h **** 			}
 515:lib/lufa/LUFA/Drivers/USB/Core/AVR8/../AVR8/../AVR8/Endpoint_AVR8.h **** 
 516:lib/lufa/LUFA/Drivers/USB/Core/AVR8/../AVR8/../AVR8/Endpoint_AVR8.h **** 			/** Resets the data toggle of the currently selected endpoint. */
 517:lib/lufa/LUFA/Drivers/USB/Core/AVR8/../AVR8/../AVR8/Endpoint_AVR8.h **** 			static inline void Endpoint_ResetDataToggle(void) ATTR_ALWAYS_INLINE;
 518:lib/lufa/LUFA/Drivers/USB/Core/AVR8/../AVR8/../AVR8/Endpoint_AVR8.h **** 			static inline void Endpoint_ResetDataToggle(void)
 519:lib/lufa/LUFA/Drivers/USB/Core/AVR8/../AVR8/../AVR8/Endpoint_AVR8.h **** 			{
 520:lib/lufa/LUFA/Drivers/USB/Core/AVR8/../AVR8/../AVR8/Endpoint_AVR8.h **** 				UECONX |= (1 << RSTDT);
 521:lib/lufa/LUFA/Drivers/USB/Core/AVR8/../AVR8/../AVR8/Endpoint_AVR8.h **** 			}
 522:lib/lufa/LUFA/Drivers/USB/Core/AVR8/../AVR8/../AVR8/Endpoint_AVR8.h **** 
 523:lib/lufa/LUFA/Drivers/USB/Core/AVR8/../AVR8/../AVR8/Endpoint_AVR8.h **** 			/** Sets the direction of the currently selected endpoint.
 524:lib/lufa/LUFA/Drivers/USB/Core/AVR8/../AVR8/../AVR8/Endpoint_AVR8.h **** 			 *
 525:lib/lufa/LUFA/Drivers/USB/Core/AVR8/../AVR8/../AVR8/Endpoint_AVR8.h **** 			 *  \param[in] DirectionMask  New endpoint direction, as a \c ENDPOINT_DIR_* mask.
 526:lib/lufa/LUFA/Drivers/USB/Core/AVR8/../AVR8/../AVR8/Endpoint_AVR8.h **** 			 */
 527:lib/lufa/LUFA/Drivers/USB/Core/AVR8/../AVR8/../AVR8/Endpoint_AVR8.h **** 			static inline void Endpoint_SetEndpointDirection(const uint8_t DirectionMask) ATTR_ALWAYS_INLINE
 528:lib/lufa/LUFA/Drivers/USB/Core/AVR8/../AVR8/../AVR8/Endpoint_AVR8.h **** 			static inline void Endpoint_SetEndpointDirection(const uint8_t DirectionMask)
 529:lib/lufa/LUFA/Drivers/USB/Core/AVR8/../AVR8/../AVR8/Endpoint_AVR8.h **** 			{
 530:lib/lufa/LUFA/Drivers/USB/Core/AVR8/../AVR8/../AVR8/Endpoint_AVR8.h **** 				UECFG0X = ((UECFG0X & ~(1 << EPDIR)) | (DirectionMask ? (1 << EPDIR) : 0));
 531:lib/lufa/LUFA/Drivers/USB/Core/AVR8/../AVR8/../AVR8/Endpoint_AVR8.h **** 			}
 532:lib/lufa/LUFA/Drivers/USB/Core/AVR8/../AVR8/../AVR8/Endpoint_AVR8.h **** 
 533:lib/lufa/LUFA/Drivers/USB/Core/AVR8/../AVR8/../AVR8/Endpoint_AVR8.h **** 			/** Reads one byte from the currently selected endpoint's bank, for OUT direction endpoints.
 534:lib/lufa/LUFA/Drivers/USB/Core/AVR8/../AVR8/../AVR8/Endpoint_AVR8.h **** 			 *
 535:lib/lufa/LUFA/Drivers/USB/Core/AVR8/../AVR8/../AVR8/Endpoint_AVR8.h **** 			 *  \ingroup Group_EndpointPrimitiveRW_AVR8
 536:lib/lufa/LUFA/Drivers/USB/Core/AVR8/../AVR8/../AVR8/Endpoint_AVR8.h **** 			 *
 537:lib/lufa/LUFA/Drivers/USB/Core/AVR8/../AVR8/../AVR8/Endpoint_AVR8.h **** 			 *  \return Next byte in the currently selected endpoint's FIFO buffer.
 538:lib/lufa/LUFA/Drivers/USB/Core/AVR8/../AVR8/../AVR8/Endpoint_AVR8.h **** 			 */
 539:lib/lufa/LUFA/Drivers/USB/Core/AVR8/../AVR8/../AVR8/Endpoint_AVR8.h **** 			static inline uint8_t Endpoint_Read_8(void) ATTR_WARN_UNUSED_RESULT ATTR_ALWAYS_INLINE;
 540:lib/lufa/LUFA/Drivers/USB/Core/AVR8/../AVR8/../AVR8/Endpoint_AVR8.h **** 			static inline uint8_t Endpoint_Read_8(void)
 541:lib/lufa/LUFA/Drivers/USB/Core/AVR8/../AVR8/../AVR8/Endpoint_AVR8.h **** 			{
 542:lib/lufa/LUFA/Drivers/USB/Core/AVR8/../AVR8/../AVR8/Endpoint_AVR8.h **** 				return UEDATX;
 543:lib/lufa/LUFA/Drivers/USB/Core/AVR8/../AVR8/../AVR8/Endpoint_AVR8.h **** 			}
 544:lib/lufa/LUFA/Drivers/USB/Core/AVR8/../AVR8/../AVR8/Endpoint_AVR8.h **** 
 545:lib/lufa/LUFA/Drivers/USB/Core/AVR8/../AVR8/../AVR8/Endpoint_AVR8.h **** 			/** Writes one byte to the currently selected endpoint's bank, for IN direction endpoints.
 546:lib/lufa/LUFA/Drivers/USB/Core/AVR8/../AVR8/../AVR8/Endpoint_AVR8.h **** 			 *
 547:lib/lufa/LUFA/Drivers/USB/Core/AVR8/../AVR8/../AVR8/Endpoint_AVR8.h **** 			 *  \ingroup Group_EndpointPrimitiveRW_AVR8
 548:lib/lufa/LUFA/Drivers/USB/Core/AVR8/../AVR8/../AVR8/Endpoint_AVR8.h **** 			 *
 549:lib/lufa/LUFA/Drivers/USB/Core/AVR8/../AVR8/../AVR8/Endpoint_AVR8.h **** 			 *  \param[in] Data  Data to write into the the currently selected endpoint's FIFO buffer.
 550:lib/lufa/LUFA/Drivers/USB/Core/AVR8/../AVR8/../AVR8/Endpoint_AVR8.h **** 			 */
 551:lib/lufa/LUFA/Drivers/USB/Core/AVR8/../AVR8/../AVR8/Endpoint_AVR8.h **** 			static inline void Endpoint_Write_8(const uint8_t Data) ATTR_ALWAYS_INLINE;
 552:lib/lufa/LUFA/Drivers/USB/Core/AVR8/../AVR8/../AVR8/Endpoint_AVR8.h **** 			static inline void Endpoint_Write_8(const uint8_t Data)
 553:lib/lufa/LUFA/Drivers/USB/Core/AVR8/../AVR8/../AVR8/Endpoint_AVR8.h **** 			{
 554:lib/lufa/LUFA/Drivers/USB/Core/AVR8/../AVR8/../AVR8/Endpoint_AVR8.h **** 				UEDATX = Data;
 555:lib/lufa/LUFA/Drivers/USB/Core/AVR8/../AVR8/../AVR8/Endpoint_AVR8.h **** 			}
 556:lib/lufa/LUFA/Drivers/USB/Core/AVR8/../AVR8/../AVR8/Endpoint_AVR8.h **** 
 557:lib/lufa/LUFA/Drivers/USB/Core/AVR8/../AVR8/../AVR8/Endpoint_AVR8.h **** 			/** Discards one byte from the currently selected endpoint's bank, for OUT direction endpoints.
 558:lib/lufa/LUFA/Drivers/USB/Core/AVR8/../AVR8/../AVR8/Endpoint_AVR8.h **** 			 *
 559:lib/lufa/LUFA/Drivers/USB/Core/AVR8/../AVR8/../AVR8/Endpoint_AVR8.h **** 			 *  \ingroup Group_EndpointPrimitiveRW_AVR8
 560:lib/lufa/LUFA/Drivers/USB/Core/AVR8/../AVR8/../AVR8/Endpoint_AVR8.h **** 			 */
 561:lib/lufa/LUFA/Drivers/USB/Core/AVR8/../AVR8/../AVR8/Endpoint_AVR8.h **** 			static inline void Endpoint_Discard_8(void) ATTR_ALWAYS_INLINE;
 562:lib/lufa/LUFA/Drivers/USB/Core/AVR8/../AVR8/../AVR8/Endpoint_AVR8.h **** 			static inline void Endpoint_Discard_8(void)
 563:lib/lufa/LUFA/Drivers/USB/Core/AVR8/../AVR8/../AVR8/Endpoint_AVR8.h **** 			{
 564:lib/lufa/LUFA/Drivers/USB/Core/AVR8/../AVR8/../AVR8/Endpoint_AVR8.h **** 				uint8_t Dummy;
 565:lib/lufa/LUFA/Drivers/USB/Core/AVR8/../AVR8/../AVR8/Endpoint_AVR8.h **** 
 566:lib/lufa/LUFA/Drivers/USB/Core/AVR8/../AVR8/../AVR8/Endpoint_AVR8.h **** 				Dummy = UEDATX;
 122               		.loc 2 566 0
 123 0064 8091 F100 		lds r24,241
 124               	.LBE273:
 125               	.LBE272:
  67:lib/lufa/LUFA/Drivers/USB/Core/AVR8/EndpointStream_AVR8.c **** 			  return ErrorCode;
  68:lib/lufa/LUFA/Drivers/USB/Core/AVR8/EndpointStream_AVR8.c **** 		}
  69:lib/lufa/LUFA/Drivers/USB/Core/AVR8/EndpointStream_AVR8.c **** 		else
  70:lib/lufa/LUFA/Drivers/USB/Core/AVR8/EndpointStream_AVR8.c **** 		{
  71:lib/lufa/LUFA/Drivers/USB/Core/AVR8/EndpointStream_AVR8.c **** 			Endpoint_Discard_8();
  72:lib/lufa/LUFA/Drivers/USB/Core/AVR8/EndpointStream_AVR8.c **** 
  73:lib/lufa/LUFA/Drivers/USB/Core/AVR8/EndpointStream_AVR8.c **** 			Length--;
 126               		.loc 1 73 0
 127 0068 2197      		sbiw r28,1
 128               	.LVL10:
  74:lib/lufa/LUFA/Drivers/USB/Core/AVR8/EndpointStream_AVR8.c **** 			BytesInTransfer++;
 129               		.loc 1 74 0
 130 006a FFEF      		ldi r31,-1
 131 006c EF1A      		sub r14,r31
 132 006e FF0A      		sbc r15,r31
 133               	.LVL11:
 134 0070 00C0      		rjmp .L4
 135               	.L15:
  75:lib/lufa/LUFA/Drivers/USB/Core/AVR8/EndpointStream_AVR8.c **** 		}
  76:lib/lufa/LUFA/Drivers/USB/Core/AVR8/EndpointStream_AVR8.c **** 	}
  77:lib/lufa/LUFA/Drivers/USB/Core/AVR8/EndpointStream_AVR8.c **** 
  78:lib/lufa/LUFA/Drivers/USB/Core/AVR8/EndpointStream_AVR8.c **** 	return ENDPOINT_RWSTREAM_NoError;
 136               		.loc 1 78 0
 137 0072 80E0      		ldi r24,0
 138               	.LVL12:
 139               	.L2:
 140               	/* epilogue start */
  79:lib/lufa/LUFA/Drivers/USB/Core/AVR8/EndpointStream_AVR8.c **** }
 141               		.loc 1 79 0
 142 0074 DF91      		pop r29
 143 0076 CF91      		pop r28
 144               	.LVL13:
 145 0078 1F91      		pop r17
 146 007a 0F91      		pop r16
 147               	.LVL14:
 148 007c FF90      		pop r15
 149 007e EF90      		pop r14
 150 0080 0895      		ret
 151               		.cfi_endproc
 152               	.LFE85:
 154               		.section	.text.Endpoint_Null_Stream,"ax",@progbits
 155               	.global	Endpoint_Null_Stream
 157               	Endpoint_Null_Stream:
 158               	.LFB86:
  80:lib/lufa/LUFA/Drivers/USB/Core/AVR8/EndpointStream_AVR8.c **** 
  81:lib/lufa/LUFA/Drivers/USB/Core/AVR8/EndpointStream_AVR8.c **** uint8_t Endpoint_Null_Stream(uint16_t Length,
  82:lib/lufa/LUFA/Drivers/USB/Core/AVR8/EndpointStream_AVR8.c ****                              uint16_t* const BytesProcessed)
  83:lib/lufa/LUFA/Drivers/USB/Core/AVR8/EndpointStream_AVR8.c **** {
 159               		.loc 1 83 0
 160               		.cfi_startproc
 161               	.LVL15:
 162 0000 EF92      		push r14
 163               	.LCFI6:
 164               		.cfi_def_cfa_offset 3
 165               		.cfi_offset 14, -2
 166 0002 FF92      		push r15
 167               	.LCFI7:
 168               		.cfi_def_cfa_offset 4
 169               		.cfi_offset 15, -3
 170 0004 0F93      		push r16
 171               	.LCFI8:
 172               		.cfi_def_cfa_offset 5
 173               		.cfi_offset 16, -4
 174 0006 1F93      		push r17
 175               	.LCFI9:
 176               		.cfi_def_cfa_offset 6
 177               		.cfi_offset 17, -5
 178 0008 CF93      		push r28
 179               	.LCFI10:
 180               		.cfi_def_cfa_offset 7
 181               		.cfi_offset 28, -6
 182 000a DF93      		push r29
 183               	.LCFI11:
 184               		.cfi_def_cfa_offset 8
 185               		.cfi_offset 29, -7
 186               	/* prologue: function */
 187               	/* frame size = 0 */
 188               	/* stack size = 6 */
 189               	.L__stack_usage = 6
 190 000c EC01      		movw r28,r24
 191 000e 8B01      		movw r16,r22
 192               	.LVL16:
  84:lib/lufa/LUFA/Drivers/USB/Core/AVR8/EndpointStream_AVR8.c **** 	uint8_t  ErrorCode;
  85:lib/lufa/LUFA/Drivers/USB/Core/AVR8/EndpointStream_AVR8.c **** 	uint16_t BytesInTransfer = 0;
  86:lib/lufa/LUFA/Drivers/USB/Core/AVR8/EndpointStream_AVR8.c **** 
  87:lib/lufa/LUFA/Drivers/USB/Core/AVR8/EndpointStream_AVR8.c **** 	if ((ErrorCode = Endpoint_WaitUntilReady()))
 193               		.loc 1 87 0
 194 0010 0E94 0000 		call Endpoint_WaitUntilReady
 195               	.LVL17:
 196 0014 8111      		cpse r24,__zero_reg__
 197 0016 00C0      		rjmp .L17
  88:lib/lufa/LUFA/Drivers/USB/Core/AVR8/EndpointStream_AVR8.c **** 	  return ErrorCode;
  89:lib/lufa/LUFA/Drivers/USB/Core/AVR8/EndpointStream_AVR8.c **** 
  90:lib/lufa/LUFA/Drivers/USB/Core/AVR8/EndpointStream_AVR8.c **** 	if (BytesProcessed != NULL)
 198               		.loc 1 90 0
 199 0018 0115      		cp r16,__zero_reg__
 200 001a 1105      		cpc r17,__zero_reg__
 201 001c 01F0      		breq .L18
  91:lib/lufa/LUFA/Drivers/USB/Core/AVR8/EndpointStream_AVR8.c **** 	  Length -= *BytesProcessed;
 202               		.loc 1 91 0
 203 001e F801      		movw r30,r16
 204 0020 8081      		ld r24,Z
 205 0022 9181      		ldd r25,Z+1
 206               	.LVL18:
 207 0024 C81B      		sub r28,r24
 208 0026 D90B      		sbc r29,r25
 209               	.LVL19:
 210               	.L18:
  83:lib/lufa/LUFA/Drivers/USB/Core/AVR8/EndpointStream_AVR8.c **** 	uint8_t  ErrorCode;
 211               		.loc 1 83 0
 212 0028 E12C      		mov r14,__zero_reg__
 213 002a F12C      		mov r15,__zero_reg__
 214               	.LVL20:
 215               	.L19:
  92:lib/lufa/LUFA/Drivers/USB/Core/AVR8/EndpointStream_AVR8.c **** 
  93:lib/lufa/LUFA/Drivers/USB/Core/AVR8/EndpointStream_AVR8.c **** 	while (Length)
 216               		.loc 1 93 0
 217 002c 2097      		sbiw r28,0
 218 002e 01F0      		breq .L29
 219               	.LBB274:
 220               	.LBB275:
 360:lib/lufa/LUFA/Drivers/USB/Core/AVR8/../AVR8/../AVR8/Endpoint_AVR8.h **** 			}
 221               		.loc 2 360 0
 222 0030 8091 E800 		lds r24,232
 223               	.LBE275:
 224               	.LBE274:
  94:lib/lufa/LUFA/Drivers/USB/Core/AVR8/EndpointStream_AVR8.c **** 	{
  95:lib/lufa/LUFA/Drivers/USB/Core/AVR8/EndpointStream_AVR8.c **** 		if (!(Endpoint_IsReadWriteAllowed()))
 225               		.loc 1 95 0
 226 0034 85FD      		sbrc r24,5
 227 0036 00C0      		rjmp .L20
 228               	.LBB276:
 229               	.LBB277:
 456:lib/lufa/LUFA/Drivers/USB/Core/AVR8/../AVR8/../AVR8/Endpoint_AVR8.h **** 				#else
 230               		.loc 2 456 0
 231 0038 8091 E800 		lds r24,232
 232 003c 8E77      		andi r24,lo8(126)
 233 003e 8093 E800 		sts 232,r24
 234               	.LBE277:
 235               	.LBE276:
  96:lib/lufa/LUFA/Drivers/USB/Core/AVR8/EndpointStream_AVR8.c **** 		{
  97:lib/lufa/LUFA/Drivers/USB/Core/AVR8/EndpointStream_AVR8.c **** 			Endpoint_ClearIN();
  98:lib/lufa/LUFA/Drivers/USB/Core/AVR8/EndpointStream_AVR8.c **** 
  99:lib/lufa/LUFA/Drivers/USB/Core/AVR8/EndpointStream_AVR8.c **** 			if (BytesProcessed != NULL)
 236               		.loc 1 99 0
 237 0042 0115      		cp r16,__zero_reg__
 238 0044 1105      		cpc r17,__zero_reg__
 239 0046 01F0      		breq .L21
 100:lib/lufa/LUFA/Drivers/USB/Core/AVR8/EndpointStream_AVR8.c **** 			{
 101:lib/lufa/LUFA/Drivers/USB/Core/AVR8/EndpointStream_AVR8.c **** 				*BytesProcessed += BytesInTransfer;
 240               		.loc 1 101 0
 241 0048 F801      		movw r30,r16
 242 004a 8081      		ld r24,Z
 243 004c 9181      		ldd r25,Z+1
 244 004e E80E      		add r14,r24
 245 0050 F91E      		adc r15,r25
 246               	.LVL21:
 247 0052 F182      		std Z+1,r15
 248 0054 E082      		st Z,r14
 102:lib/lufa/LUFA/Drivers/USB/Core/AVR8/EndpointStream_AVR8.c **** 				return ENDPOINT_RWSTREAM_IncompleteTransfer;
 249               		.loc 1 102 0
 250 0056 85E0      		ldi r24,lo8(5)
 251 0058 00C0      		rjmp .L17
 252               	.LVL22:
 253               	.L21:
 103:lib/lufa/LUFA/Drivers/USB/Core/AVR8/EndpointStream_AVR8.c **** 			}
 104:lib/lufa/LUFA/Drivers/USB/Core/AVR8/EndpointStream_AVR8.c **** 
 105:lib/lufa/LUFA/Drivers/USB/Core/AVR8/EndpointStream_AVR8.c **** 			if ((ErrorCode = Endpoint_WaitUntilReady()))
 254               		.loc 1 105 0
 255 005a 0E94 0000 		call Endpoint_WaitUntilReady
 256               	.LVL23:
 257 005e 8823      		tst r24
 258 0060 01F0      		breq .L19
 259 0062 00C0      		rjmp .L17
 260               	.LVL24:
 261               	.L20:
 262               	.LBB278:
 263               	.LBB279:
 554:lib/lufa/LUFA/Drivers/USB/Core/AVR8/../AVR8/../AVR8/Endpoint_AVR8.h **** 			}
 264               		.loc 2 554 0
 265 0064 1092 F100 		sts 241,__zero_reg__
 266               	.LVL25:
 267               	.LBE279:
 268               	.LBE278:
 106:lib/lufa/LUFA/Drivers/USB/Core/AVR8/EndpointStream_AVR8.c **** 			  return ErrorCode;
 107:lib/lufa/LUFA/Drivers/USB/Core/AVR8/EndpointStream_AVR8.c **** 		}
 108:lib/lufa/LUFA/Drivers/USB/Core/AVR8/EndpointStream_AVR8.c **** 		else
 109:lib/lufa/LUFA/Drivers/USB/Core/AVR8/EndpointStream_AVR8.c **** 		{
 110:lib/lufa/LUFA/Drivers/USB/Core/AVR8/EndpointStream_AVR8.c **** 			Endpoint_Write_8(0);
 111:lib/lufa/LUFA/Drivers/USB/Core/AVR8/EndpointStream_AVR8.c **** 
 112:lib/lufa/LUFA/Drivers/USB/Core/AVR8/EndpointStream_AVR8.c **** 			Length--;
 269               		.loc 1 112 0
 270 0068 2197      		sbiw r28,1
 271               	.LVL26:
 113:lib/lufa/LUFA/Drivers/USB/Core/AVR8/EndpointStream_AVR8.c **** 			BytesInTransfer++;
 272               		.loc 1 113 0
 273 006a FFEF      		ldi r31,-1
 274 006c EF1A      		sub r14,r31
 275 006e FF0A      		sbc r15,r31
 276               	.LVL27:
 277 0070 00C0      		rjmp .L19
 278               	.L29:
 114:lib/lufa/LUFA/Drivers/USB/Core/AVR8/EndpointStream_AVR8.c **** 		}
 115:lib/lufa/LUFA/Drivers/USB/Core/AVR8/EndpointStream_AVR8.c **** 	}
 116:lib/lufa/LUFA/Drivers/USB/Core/AVR8/EndpointStream_AVR8.c **** 
 117:lib/lufa/LUFA/Drivers/USB/Core/AVR8/EndpointStream_AVR8.c **** 	return ENDPOINT_RWSTREAM_NoError;
 279               		.loc 1 117 0
 280 0072 80E0      		ldi r24,0
 281               	.LVL28:
 282               	.L17:
 283               	/* epilogue start */
 118:lib/lufa/LUFA/Drivers/USB/Core/AVR8/EndpointStream_AVR8.c **** }
 284               		.loc 1 118 0
 285 0074 DF91      		pop r29
 286 0076 CF91      		pop r28
 287               	.LVL29:
 288 0078 1F91      		pop r17
 289 007a 0F91      		pop r16
 290               	.LVL30:
 291 007c FF90      		pop r15
 292 007e EF90      		pop r14
 293 0080 0895      		ret
 294               		.cfi_endproc
 295               	.LFE86:
 297               		.section	.text.Endpoint_Write_Stream_LE,"ax",@progbits
 298               	.global	Endpoint_Write_Stream_LE
 300               	Endpoint_Write_Stream_LE:
 301               	.LFB87:
 302               		.file 3 "lib/lufa/LUFA/Drivers/USB/Core/AVR8/Template/Template_Endpoint_RW.c"
   1:lib/lufa/LUFA/Drivers/USB/Core/AVR8/Template/Template_Endpoint_RW.c **** /*
   2:lib/lufa/LUFA/Drivers/USB/Core/AVR8/Template/Template_Endpoint_RW.c ****              LUFA Library
   3:lib/lufa/LUFA/Drivers/USB/Core/AVR8/Template/Template_Endpoint_RW.c ****      Copyright (C) Dean Camera, 2017.
   4:lib/lufa/LUFA/Drivers/USB/Core/AVR8/Template/Template_Endpoint_RW.c **** 
   5:lib/lufa/LUFA/Drivers/USB/Core/AVR8/Template/Template_Endpoint_RW.c ****   dean [at] fourwalledcubicle [dot] com
   6:lib/lufa/LUFA/Drivers/USB/Core/AVR8/Template/Template_Endpoint_RW.c ****            www.lufa-lib.org
   7:lib/lufa/LUFA/Drivers/USB/Core/AVR8/Template/Template_Endpoint_RW.c **** */
   8:lib/lufa/LUFA/Drivers/USB/Core/AVR8/Template/Template_Endpoint_RW.c **** 
   9:lib/lufa/LUFA/Drivers/USB/Core/AVR8/Template/Template_Endpoint_RW.c **** /*
  10:lib/lufa/LUFA/Drivers/USB/Core/AVR8/Template/Template_Endpoint_RW.c ****   Copyright 2017  Dean Camera (dean [at] fourwalledcubicle [dot] com)
  11:lib/lufa/LUFA/Drivers/USB/Core/AVR8/Template/Template_Endpoint_RW.c **** 
  12:lib/lufa/LUFA/Drivers/USB/Core/AVR8/Template/Template_Endpoint_RW.c ****   Permission to use, copy, modify, distribute, and sell this
  13:lib/lufa/LUFA/Drivers/USB/Core/AVR8/Template/Template_Endpoint_RW.c ****   software and its documentation for any purpose is hereby granted
  14:lib/lufa/LUFA/Drivers/USB/Core/AVR8/Template/Template_Endpoint_RW.c ****   without fee, provided that the above copyright notice appear in
  15:lib/lufa/LUFA/Drivers/USB/Core/AVR8/Template/Template_Endpoint_RW.c ****   all copies and that both that the copyright notice and this
  16:lib/lufa/LUFA/Drivers/USB/Core/AVR8/Template/Template_Endpoint_RW.c ****   permission notice and warranty disclaimer appear in supporting
  17:lib/lufa/LUFA/Drivers/USB/Core/AVR8/Template/Template_Endpoint_RW.c ****   documentation, and that the name of the author not be used in
  18:lib/lufa/LUFA/Drivers/USB/Core/AVR8/Template/Template_Endpoint_RW.c ****   advertising or publicity pertaining to distribution of the
  19:lib/lufa/LUFA/Drivers/USB/Core/AVR8/Template/Template_Endpoint_RW.c ****   software without specific, written prior permission.
  20:lib/lufa/LUFA/Drivers/USB/Core/AVR8/Template/Template_Endpoint_RW.c **** 
  21:lib/lufa/LUFA/Drivers/USB/Core/AVR8/Template/Template_Endpoint_RW.c ****   The author disclaims all warranties with regard to this
  22:lib/lufa/LUFA/Drivers/USB/Core/AVR8/Template/Template_Endpoint_RW.c ****   software, including all implied warranties of merchantability
  23:lib/lufa/LUFA/Drivers/USB/Core/AVR8/Template/Template_Endpoint_RW.c ****   and fitness.  In no event shall the author be liable for any
  24:lib/lufa/LUFA/Drivers/USB/Core/AVR8/Template/Template_Endpoint_RW.c ****   special, indirect or consequential damages or any damages
  25:lib/lufa/LUFA/Drivers/USB/Core/AVR8/Template/Template_Endpoint_RW.c ****   whatsoever resulting from loss of use, data or profits, whether
  26:lib/lufa/LUFA/Drivers/USB/Core/AVR8/Template/Template_Endpoint_RW.c ****   in an action of contract, negligence or other tortious action,
  27:lib/lufa/LUFA/Drivers/USB/Core/AVR8/Template/Template_Endpoint_RW.c ****   arising out of or in connection with the use or performance of
  28:lib/lufa/LUFA/Drivers/USB/Core/AVR8/Template/Template_Endpoint_RW.c ****   this software.
  29:lib/lufa/LUFA/Drivers/USB/Core/AVR8/Template/Template_Endpoint_RW.c **** */
  30:lib/lufa/LUFA/Drivers/USB/Core/AVR8/Template/Template_Endpoint_RW.c **** 
  31:lib/lufa/LUFA/Drivers/USB/Core/AVR8/Template/Template_Endpoint_RW.c **** #if defined(TEMPLATE_FUNC_NAME)
  32:lib/lufa/LUFA/Drivers/USB/Core/AVR8/Template/Template_Endpoint_RW.c **** 
  33:lib/lufa/LUFA/Drivers/USB/Core/AVR8/Template/Template_Endpoint_RW.c **** uint8_t TEMPLATE_FUNC_NAME (TEMPLATE_BUFFER_TYPE const Buffer,
  34:lib/lufa/LUFA/Drivers/USB/Core/AVR8/Template/Template_Endpoint_RW.c ****                             uint16_t Length,
  35:lib/lufa/LUFA/Drivers/USB/Core/AVR8/Template/Template_Endpoint_RW.c ****                             uint16_t* const BytesProcessed)
  36:lib/lufa/LUFA/Drivers/USB/Core/AVR8/Template/Template_Endpoint_RW.c **** {
 303               		.loc 3 36 0
 304               		.cfi_startproc
 305               	.LVL31:
 306 0000 CF92      		push r12
 307               	.LCFI12:
 308               		.cfi_def_cfa_offset 3
 309               		.cfi_offset 12, -2
 310 0002 DF92      		push r13
 311               	.LCFI13:
 312               		.cfi_def_cfa_offset 4
 313               		.cfi_offset 13, -3
 314 0004 EF92      		push r14
 315               	.LCFI14:
 316               		.cfi_def_cfa_offset 5
 317               		.cfi_offset 14, -4
 318 0006 FF92      		push r15
 319               	.LCFI15:
 320               		.cfi_def_cfa_offset 6
 321               		.cfi_offset 15, -5
 322 0008 0F93      		push r16
 323               	.LCFI16:
 324               		.cfi_def_cfa_offset 7
 325               		.cfi_offset 16, -6
 326 000a 1F93      		push r17
 327               	.LCFI17:
 328               		.cfi_def_cfa_offset 8
 329               		.cfi_offset 17, -7
 330 000c CF93      		push r28
 331               	.LCFI18:
 332               		.cfi_def_cfa_offset 9
 333               		.cfi_offset 28, -8
 334 000e DF93      		push r29
 335               	.LCFI19:
 336               		.cfi_def_cfa_offset 10
 337               		.cfi_offset 29, -9
 338               	/* prologue: function */
 339               	/* frame size = 0 */
 340               	/* stack size = 8 */
 341               	.L__stack_usage = 8
 342 0010 EC01      		movw r28,r24
 343 0012 8B01      		movw r16,r22
 344 0014 7A01      		movw r14,r20
 345               	.LVL32:
  37:lib/lufa/LUFA/Drivers/USB/Core/AVR8/Template/Template_Endpoint_RW.c **** 	uint8_t* DataStream      = ((uint8_t*)Buffer + TEMPLATE_BUFFER_OFFSET(Length));
  38:lib/lufa/LUFA/Drivers/USB/Core/AVR8/Template/Template_Endpoint_RW.c **** 	uint16_t BytesInTransfer = 0;
  39:lib/lufa/LUFA/Drivers/USB/Core/AVR8/Template/Template_Endpoint_RW.c **** 	uint8_t  ErrorCode;
  40:lib/lufa/LUFA/Drivers/USB/Core/AVR8/Template/Template_Endpoint_RW.c **** 
  41:lib/lufa/LUFA/Drivers/USB/Core/AVR8/Template/Template_Endpoint_RW.c **** 	if ((ErrorCode = Endpoint_WaitUntilReady()))
 346               		.loc 3 41 0
 347 0016 0E94 0000 		call Endpoint_WaitUntilReady
 348               	.LVL33:
 349 001a 8111      		cpse r24,__zero_reg__
 350 001c 00C0      		rjmp .L31
  42:lib/lufa/LUFA/Drivers/USB/Core/AVR8/Template/Template_Endpoint_RW.c **** 	  return ErrorCode;
  43:lib/lufa/LUFA/Drivers/USB/Core/AVR8/Template/Template_Endpoint_RW.c **** 
  44:lib/lufa/LUFA/Drivers/USB/Core/AVR8/Template/Template_Endpoint_RW.c **** 	if (BytesProcessed != NULL)
 351               		.loc 3 44 0
 352 001e E114      		cp r14,__zero_reg__
 353 0020 F104      		cpc r15,__zero_reg__
 354 0022 01F0      		breq .L32
  45:lib/lufa/LUFA/Drivers/USB/Core/AVR8/Template/Template_Endpoint_RW.c **** 	{
  46:lib/lufa/LUFA/Drivers/USB/Core/AVR8/Template/Template_Endpoint_RW.c **** 		Length -= *BytesProcessed;
 355               		.loc 3 46 0
 356 0024 F701      		movw r30,r14
 357 0026 8081      		ld r24,Z
 358 0028 9181      		ldd r25,Z+1
 359               	.LVL34:
 360 002a 081B      		sub r16,r24
 361 002c 190B      		sbc r17,r25
 362               	.LVL35:
  47:lib/lufa/LUFA/Drivers/USB/Core/AVR8/Template/Template_Endpoint_RW.c **** 		TEMPLATE_BUFFER_MOVE(DataStream, *BytesProcessed);
 363               		.loc 3 47 0
 364 002e C80F      		add r28,r24
 365 0030 D91F      		adc r29,r25
 366               	.LVL36:
 367               	.L32:
  37:lib/lufa/LUFA/Drivers/USB/Core/AVR8/Template/Template_Endpoint_RW.c **** 	uint16_t BytesInTransfer = 0;
 368               		.loc 3 37 0
 369 0032 C12C      		mov r12,__zero_reg__
 370 0034 D12C      		mov r13,__zero_reg__
 371               	.LVL37:
 372               	.L33:
  48:lib/lufa/LUFA/Drivers/USB/Core/AVR8/Template/Template_Endpoint_RW.c **** 	}
  49:lib/lufa/LUFA/Drivers/USB/Core/AVR8/Template/Template_Endpoint_RW.c **** 
  50:lib/lufa/LUFA/Drivers/USB/Core/AVR8/Template/Template_Endpoint_RW.c **** 	while (Length)
 373               		.loc 3 50 0
 374 0036 0115      		cp r16,__zero_reg__
 375 0038 1105      		cpc r17,__zero_reg__
 376 003a 01F0      		breq .L41
 377               	.LBB280:
 378               	.LBB281:
 360:lib/lufa/LUFA/Drivers/USB/Core/AVR8/../AVR8/../AVR8/Endpoint_AVR8.h **** 			}
 379               		.loc 2 360 0
 380 003c 8091 E800 		lds r24,232
 381               	.LBE281:
 382               	.LBE280:
  51:lib/lufa/LUFA/Drivers/USB/Core/AVR8/Template/Template_Endpoint_RW.c **** 	{
  52:lib/lufa/LUFA/Drivers/USB/Core/AVR8/Template/Template_Endpoint_RW.c **** 		if (!(Endpoint_IsReadWriteAllowed()))
 383               		.loc 3 52 0
 384 0040 85FD      		sbrc r24,5
 385 0042 00C0      		rjmp .L34
 386               	.LBB282:
 387               	.LBB283:
 456:lib/lufa/LUFA/Drivers/USB/Core/AVR8/../AVR8/../AVR8/Endpoint_AVR8.h **** 				#else
 388               		.loc 2 456 0
 389 0044 8091 E800 		lds r24,232
 390 0048 8E77      		andi r24,lo8(126)
 391 004a 8093 E800 		sts 232,r24
 392               	.LBE283:
 393               	.LBE282:
  53:lib/lufa/LUFA/Drivers/USB/Core/AVR8/Template/Template_Endpoint_RW.c **** 		{
  54:lib/lufa/LUFA/Drivers/USB/Core/AVR8/Template/Template_Endpoint_RW.c **** 			TEMPLATE_CLEAR_ENDPOINT();
  55:lib/lufa/LUFA/Drivers/USB/Core/AVR8/Template/Template_Endpoint_RW.c **** 
  56:lib/lufa/LUFA/Drivers/USB/Core/AVR8/Template/Template_Endpoint_RW.c **** 			#if !defined(INTERRUPT_CONTROL_ENDPOINT)
  57:lib/lufa/LUFA/Drivers/USB/Core/AVR8/Template/Template_Endpoint_RW.c **** 			USB_USBTask();
  58:lib/lufa/LUFA/Drivers/USB/Core/AVR8/Template/Template_Endpoint_RW.c **** 			#endif
  59:lib/lufa/LUFA/Drivers/USB/Core/AVR8/Template/Template_Endpoint_RW.c **** 
  60:lib/lufa/LUFA/Drivers/USB/Core/AVR8/Template/Template_Endpoint_RW.c **** 			if (BytesProcessed != NULL)
 394               		.loc 3 60 0
 395 004e E114      		cp r14,__zero_reg__
 396 0050 F104      		cpc r15,__zero_reg__
 397 0052 01F0      		breq .L35
  61:lib/lufa/LUFA/Drivers/USB/Core/AVR8/Template/Template_Endpoint_RW.c **** 			{
  62:lib/lufa/LUFA/Drivers/USB/Core/AVR8/Template/Template_Endpoint_RW.c **** 				*BytesProcessed += BytesInTransfer;
 398               		.loc 3 62 0
 399 0054 F701      		movw r30,r14
 400 0056 8081      		ld r24,Z
 401 0058 9181      		ldd r25,Z+1
 402 005a C80E      		add r12,r24
 403 005c D91E      		adc r13,r25
 404               	.LVL38:
 405 005e D182      		std Z+1,r13
 406 0060 C082      		st Z,r12
  63:lib/lufa/LUFA/Drivers/USB/Core/AVR8/Template/Template_Endpoint_RW.c **** 				return ENDPOINT_RWSTREAM_IncompleteTransfer;
 407               		.loc 3 63 0
 408 0062 85E0      		ldi r24,lo8(5)
 409 0064 00C0      		rjmp .L31
 410               	.LVL39:
 411               	.L35:
  64:lib/lufa/LUFA/Drivers/USB/Core/AVR8/Template/Template_Endpoint_RW.c **** 			}
  65:lib/lufa/LUFA/Drivers/USB/Core/AVR8/Template/Template_Endpoint_RW.c **** 
  66:lib/lufa/LUFA/Drivers/USB/Core/AVR8/Template/Template_Endpoint_RW.c **** 			if ((ErrorCode = Endpoint_WaitUntilReady()))
 412               		.loc 3 66 0
 413 0066 0E94 0000 		call Endpoint_WaitUntilReady
 414               	.LVL40:
 415 006a 8823      		tst r24
 416 006c 01F0      		breq .L33
 417 006e 00C0      		rjmp .L31
 418               	.LVL41:
 419               	.L34:
  67:lib/lufa/LUFA/Drivers/USB/Core/AVR8/Template/Template_Endpoint_RW.c **** 			  return ErrorCode;
  68:lib/lufa/LUFA/Drivers/USB/Core/AVR8/Template/Template_Endpoint_RW.c **** 		}
  69:lib/lufa/LUFA/Drivers/USB/Core/AVR8/Template/Template_Endpoint_RW.c **** 		else
  70:lib/lufa/LUFA/Drivers/USB/Core/AVR8/Template/Template_Endpoint_RW.c **** 		{
  71:lib/lufa/LUFA/Drivers/USB/Core/AVR8/Template/Template_Endpoint_RW.c **** 			TEMPLATE_TRANSFER_BYTE(DataStream);
 420               		.loc 3 71 0
 421 0070 8991      		ld r24,Y+
 422               	.LVL42:
 423               	.LBB284:
 424               	.LBB285:
 554:lib/lufa/LUFA/Drivers/USB/Core/AVR8/../AVR8/../AVR8/Endpoint_AVR8.h **** 			}
 425               		.loc 2 554 0
 426 0072 8093 F100 		sts 241,r24
 427               	.LVL43:
 428               	.LBE285:
 429               	.LBE284:
  72:lib/lufa/LUFA/Drivers/USB/Core/AVR8/Template/Template_Endpoint_RW.c **** 			TEMPLATE_BUFFER_MOVE(DataStream, 1);
  73:lib/lufa/LUFA/Drivers/USB/Core/AVR8/Template/Template_Endpoint_RW.c **** 			Length--;
 430               		.loc 3 73 0
 431 0076 0150      		subi r16,1
 432 0078 1109      		sbc r17,__zero_reg__
 433               	.LVL44:
  74:lib/lufa/LUFA/Drivers/USB/Core/AVR8/Template/Template_Endpoint_RW.c **** 			BytesInTransfer++;
 434               		.loc 3 74 0
 435 007a FFEF      		ldi r31,-1
 436 007c CF1A      		sub r12,r31
 437 007e DF0A      		sbc r13,r31
 438               	.LVL45:
 439 0080 00C0      		rjmp .L33
 440               	.L41:
  75:lib/lufa/LUFA/Drivers/USB/Core/AVR8/Template/Template_Endpoint_RW.c **** 		}
  76:lib/lufa/LUFA/Drivers/USB/Core/AVR8/Template/Template_Endpoint_RW.c **** 	}
  77:lib/lufa/LUFA/Drivers/USB/Core/AVR8/Template/Template_Endpoint_RW.c **** 
  78:lib/lufa/LUFA/Drivers/USB/Core/AVR8/Template/Template_Endpoint_RW.c **** 	return ENDPOINT_RWSTREAM_NoError;
 441               		.loc 3 78 0
 442 0082 80E0      		ldi r24,0
 443               	.LVL46:
 444               	.L31:
 445               	/* epilogue start */
  79:lib/lufa/LUFA/Drivers/USB/Core/AVR8/Template/Template_Endpoint_RW.c **** }
 446               		.loc 3 79 0
 447 0084 DF91      		pop r29
 448 0086 CF91      		pop r28
 449               	.LVL47:
 450 0088 1F91      		pop r17
 451 008a 0F91      		pop r16
 452               	.LVL48:
 453 008c FF90      		pop r15
 454 008e EF90      		pop r14
 455               	.LVL49:
 456 0090 DF90      		pop r13
 457 0092 CF90      		pop r12
 458 0094 0895      		ret
 459               		.cfi_endproc
 460               	.LFE87:
 462               		.section	.text.Endpoint_Write_Stream_BE,"ax",@progbits
 463               	.global	Endpoint_Write_Stream_BE
 465               	Endpoint_Write_Stream_BE:
 466               	.LFB88:
  36:lib/lufa/LUFA/Drivers/USB/Core/AVR8/Template/Template_Endpoint_RW.c **** 	uint8_t* DataStream      = ((uint8_t*)Buffer + TEMPLATE_BUFFER_OFFSET(Length));
 467               		.loc 3 36 0
 468               		.cfi_startproc
 469               	.LVL50:
 470 0000 CF92      		push r12
 471               	.LCFI20:
 472               		.cfi_def_cfa_offset 3
 473               		.cfi_offset 12, -2
 474 0002 DF92      		push r13
 475               	.LCFI21:
 476               		.cfi_def_cfa_offset 4
 477               		.cfi_offset 13, -3
 478 0004 EF92      		push r14
 479               	.LCFI22:
 480               		.cfi_def_cfa_offset 5
 481               		.cfi_offset 14, -4
 482 0006 FF92      		push r15
 483               	.LCFI23:
 484               		.cfi_def_cfa_offset 6
 485               		.cfi_offset 15, -5
 486 0008 0F93      		push r16
 487               	.LCFI24:
 488               		.cfi_def_cfa_offset 7
 489               		.cfi_offset 16, -6
 490 000a 1F93      		push r17
 491               	.LCFI25:
 492               		.cfi_def_cfa_offset 8
 493               		.cfi_offset 17, -7
 494 000c CF93      		push r28
 495               	.LCFI26:
 496               		.cfi_def_cfa_offset 9
 497               		.cfi_offset 28, -8
 498 000e DF93      		push r29
 499               	.LCFI27:
 500               		.cfi_def_cfa_offset 10
 501               		.cfi_offset 29, -9
 502               	/* prologue: function */
 503               	/* frame size = 0 */
 504               	/* stack size = 8 */
 505               	.L__stack_usage = 8
 506 0010 EC01      		movw r28,r24
 507 0012 8B01      		movw r16,r22
 508 0014 7A01      		movw r14,r20
 509               	.LVL51:
  41:lib/lufa/LUFA/Drivers/USB/Core/AVR8/Template/Template_Endpoint_RW.c **** 	  return ErrorCode;
 510               		.loc 3 41 0
 511 0016 0E94 0000 		call Endpoint_WaitUntilReady
 512               	.LVL52:
 513 001a 8111      		cpse r24,__zero_reg__
 514 001c 00C0      		rjmp .L43
  37:lib/lufa/LUFA/Drivers/USB/Core/AVR8/Template/Template_Endpoint_RW.c **** 	uint16_t BytesInTransfer = 0;
 515               		.loc 3 37 0
 516 001e C801      		movw r24,r16
 517               	.LVL53:
 518 0020 0197      		sbiw r24,1
 519               	.LVL54:
 520 0022 C80F      		add r28,r24
 521 0024 D91F      		adc r29,r25
 522               	.LVL55:
  44:lib/lufa/LUFA/Drivers/USB/Core/AVR8/Template/Template_Endpoint_RW.c **** 	{
 523               		.loc 3 44 0
 524 0026 E114      		cp r14,__zero_reg__
 525 0028 F104      		cpc r15,__zero_reg__
 526 002a 01F0      		breq .L44
  46:lib/lufa/LUFA/Drivers/USB/Core/AVR8/Template/Template_Endpoint_RW.c **** 		TEMPLATE_BUFFER_MOVE(DataStream, *BytesProcessed);
 527               		.loc 3 46 0
 528 002c F701      		movw r30,r14
 529 002e 8081      		ld r24,Z
 530 0030 9181      		ldd r25,Z+1
 531               	.LVL56:
 532 0032 081B      		sub r16,r24
 533 0034 190B      		sbc r17,r25
 534               	.LVL57:
  47:lib/lufa/LUFA/Drivers/USB/Core/AVR8/Template/Template_Endpoint_RW.c **** 	}
 535               		.loc 3 47 0
 536 0036 C81B      		sub r28,r24
 537 0038 D90B      		sbc r29,r25
 538               	.LVL58:
 539               	.L44:
  36:lib/lufa/LUFA/Drivers/USB/Core/AVR8/Template/Template_Endpoint_RW.c **** 	uint8_t* DataStream      = ((uint8_t*)Buffer + TEMPLATE_BUFFER_OFFSET(Length));
 540               		.loc 3 36 0
 541 003a C12C      		mov r12,__zero_reg__
 542 003c D12C      		mov r13,__zero_reg__
 543               	.LVL59:
 544               	.L45:
  50:lib/lufa/LUFA/Drivers/USB/Core/AVR8/Template/Template_Endpoint_RW.c **** 	{
 545               		.loc 3 50 0
 546 003e 0115      		cp r16,__zero_reg__
 547 0040 1105      		cpc r17,__zero_reg__
 548 0042 01F0      		breq .L55
 549               	.LBB286:
 550               	.LBB287:
 360:lib/lufa/LUFA/Drivers/USB/Core/AVR8/../AVR8/../AVR8/Endpoint_AVR8.h **** 			}
 551               		.loc 2 360 0
 552 0044 8091 E800 		lds r24,232
 553               	.LBE287:
 554               	.LBE286:
  52:lib/lufa/LUFA/Drivers/USB/Core/AVR8/Template/Template_Endpoint_RW.c **** 		{
 555               		.loc 3 52 0
 556 0048 85FD      		sbrc r24,5
 557 004a 00C0      		rjmp .L46
 558               	.LBB288:
 559               	.LBB289:
 456:lib/lufa/LUFA/Drivers/USB/Core/AVR8/../AVR8/../AVR8/Endpoint_AVR8.h **** 				#else
 560               		.loc 2 456 0
 561 004c 8091 E800 		lds r24,232
 562 0050 8E77      		andi r24,lo8(126)
 563 0052 8093 E800 		sts 232,r24
 564               	.LBE289:
 565               	.LBE288:
  60:lib/lufa/LUFA/Drivers/USB/Core/AVR8/Template/Template_Endpoint_RW.c **** 			{
 566               		.loc 3 60 0
 567 0056 E114      		cp r14,__zero_reg__
 568 0058 F104      		cpc r15,__zero_reg__
 569 005a 01F0      		breq .L47
  62:lib/lufa/LUFA/Drivers/USB/Core/AVR8/Template/Template_Endpoint_RW.c **** 				return ENDPOINT_RWSTREAM_IncompleteTransfer;
 570               		.loc 3 62 0
 571 005c F701      		movw r30,r14
 572 005e 8081      		ld r24,Z
 573 0060 9181      		ldd r25,Z+1
 574 0062 C80E      		add r12,r24
 575 0064 D91E      		adc r13,r25
 576               	.LVL60:
 577 0066 D182      		std Z+1,r13
 578 0068 C082      		st Z,r12
  63:lib/lufa/LUFA/Drivers/USB/Core/AVR8/Template/Template_Endpoint_RW.c **** 			}
 579               		.loc 3 63 0
 580 006a 85E0      		ldi r24,lo8(5)
 581 006c 00C0      		rjmp .L43
 582               	.LVL61:
 583               	.L47:
  66:lib/lufa/LUFA/Drivers/USB/Core/AVR8/Template/Template_Endpoint_RW.c **** 			  return ErrorCode;
 584               		.loc 3 66 0
 585 006e 0E94 0000 		call Endpoint_WaitUntilReady
 586               	.LVL62:
 587 0072 8823      		tst r24
 588 0074 01F0      		breq .L45
 589 0076 00C0      		rjmp .L43
 590               	.LVL63:
 591               	.L46:
  71:lib/lufa/LUFA/Drivers/USB/Core/AVR8/Template/Template_Endpoint_RW.c **** 			TEMPLATE_BUFFER_MOVE(DataStream, 1);
 592               		.loc 3 71 0
 593 0078 8881      		ld r24,Y
 594               	.LVL64:
 595               	.LBB290:
 596               	.LBB291:
 554:lib/lufa/LUFA/Drivers/USB/Core/AVR8/../AVR8/../AVR8/Endpoint_AVR8.h **** 			}
 597               		.loc 2 554 0
 598 007a 8093 F100 		sts 241,r24
 599               	.LVL65:
 600               	.LBE291:
 601               	.LBE290:
  72:lib/lufa/LUFA/Drivers/USB/Core/AVR8/Template/Template_Endpoint_RW.c **** 			Length--;
 602               		.loc 3 72 0
 603 007e 2197      		sbiw r28,1
 604               	.LVL66:
  73:lib/lufa/LUFA/Drivers/USB/Core/AVR8/Template/Template_Endpoint_RW.c **** 			BytesInTransfer++;
 605               		.loc 3 73 0
 606 0080 0150      		subi r16,1
 607 0082 1109      		sbc r17,__zero_reg__
 608               	.LVL67:
  74:lib/lufa/LUFA/Drivers/USB/Core/AVR8/Template/Template_Endpoint_RW.c **** 		}
 609               		.loc 3 74 0
 610 0084 FFEF      		ldi r31,-1
 611 0086 CF1A      		sub r12,r31
 612 0088 DF0A      		sbc r13,r31
 613               	.LVL68:
 614 008a 00C0      		rjmp .L45
 615               	.L55:
  78:lib/lufa/LUFA/Drivers/USB/Core/AVR8/Template/Template_Endpoint_RW.c **** }
 616               		.loc 3 78 0
 617 008c 80E0      		ldi r24,0
 618               	.LVL69:
 619               	.L43:
 620               	/* epilogue start */
 621               		.loc 3 79 0
 622 008e DF91      		pop r29
 623 0090 CF91      		pop r28
 624 0092 1F91      		pop r17
 625 0094 0F91      		pop r16
 626               	.LVL70:
 627 0096 FF90      		pop r15
 628 0098 EF90      		pop r14
 629               	.LVL71:
 630 009a DF90      		pop r13
 631 009c CF90      		pop r12
 632 009e 0895      		ret
 633               		.cfi_endproc
 634               	.LFE88:
 636               		.section	.text.Endpoint_Read_Stream_LE,"ax",@progbits
 637               	.global	Endpoint_Read_Stream_LE
 639               	Endpoint_Read_Stream_LE:
 640               	.LFB89:
  36:lib/lufa/LUFA/Drivers/USB/Core/AVR8/Template/Template_Endpoint_RW.c **** 	uint8_t* DataStream      = ((uint8_t*)Buffer + TEMPLATE_BUFFER_OFFSET(Length));
 641               		.loc 3 36 0
 642               		.cfi_startproc
 643               	.LVL72:
 644 0000 CF92      		push r12
 645               	.LCFI28:
 646               		.cfi_def_cfa_offset 3
 647               		.cfi_offset 12, -2
 648 0002 DF92      		push r13
 649               	.LCFI29:
 650               		.cfi_def_cfa_offset 4
 651               		.cfi_offset 13, -3
 652 0004 EF92      		push r14
 653               	.LCFI30:
 654               		.cfi_def_cfa_offset 5
 655               		.cfi_offset 14, -4
 656 0006 FF92      		push r15
 657               	.LCFI31:
 658               		.cfi_def_cfa_offset 6
 659               		.cfi_offset 15, -5
 660 0008 0F93      		push r16
 661               	.LCFI32:
 662               		.cfi_def_cfa_offset 7
 663               		.cfi_offset 16, -6
 664 000a 1F93      		push r17
 665               	.LCFI33:
 666               		.cfi_def_cfa_offset 8
 667               		.cfi_offset 17, -7
 668 000c CF93      		push r28
 669               	.LCFI34:
 670               		.cfi_def_cfa_offset 9
 671               		.cfi_offset 28, -8
 672 000e DF93      		push r29
 673               	.LCFI35:
 674               		.cfi_def_cfa_offset 10
 675               		.cfi_offset 29, -9
 676               	/* prologue: function */
 677               	/* frame size = 0 */
 678               	/* stack size = 8 */
 679               	.L__stack_usage = 8
 680 0010 EC01      		movw r28,r24
 681 0012 8B01      		movw r16,r22
 682 0014 7A01      		movw r14,r20
 683               	.LVL73:
  41:lib/lufa/LUFA/Drivers/USB/Core/AVR8/Template/Template_Endpoint_RW.c **** 	  return ErrorCode;
 684               		.loc 3 41 0
 685 0016 0E94 0000 		call Endpoint_WaitUntilReady
 686               	.LVL74:
 687 001a 8111      		cpse r24,__zero_reg__
 688 001c 00C0      		rjmp .L57
  44:lib/lufa/LUFA/Drivers/USB/Core/AVR8/Template/Template_Endpoint_RW.c **** 	{
 689               		.loc 3 44 0
 690 001e E114      		cp r14,__zero_reg__
 691 0020 F104      		cpc r15,__zero_reg__
 692 0022 01F0      		breq .L58
  46:lib/lufa/LUFA/Drivers/USB/Core/AVR8/Template/Template_Endpoint_RW.c **** 		TEMPLATE_BUFFER_MOVE(DataStream, *BytesProcessed);
 693               		.loc 3 46 0
 694 0024 F701      		movw r30,r14
 695 0026 8081      		ld r24,Z
 696 0028 9181      		ldd r25,Z+1
 697               	.LVL75:
 698 002a 081B      		sub r16,r24
 699 002c 190B      		sbc r17,r25
 700               	.LVL76:
  47:lib/lufa/LUFA/Drivers/USB/Core/AVR8/Template/Template_Endpoint_RW.c **** 	}
 701               		.loc 3 47 0
 702 002e C80F      		add r28,r24
 703 0030 D91F      		adc r29,r25
 704               	.LVL77:
 705               	.L58:
  37:lib/lufa/LUFA/Drivers/USB/Core/AVR8/Template/Template_Endpoint_RW.c **** 	uint16_t BytesInTransfer = 0;
 706               		.loc 3 37 0
 707 0032 C12C      		mov r12,__zero_reg__
 708 0034 D12C      		mov r13,__zero_reg__
 709               	.LVL78:
 710               	.L59:
  50:lib/lufa/LUFA/Drivers/USB/Core/AVR8/Template/Template_Endpoint_RW.c **** 	{
 711               		.loc 3 50 0
 712 0036 0115      		cp r16,__zero_reg__
 713 0038 1105      		cpc r17,__zero_reg__
 714 003a 01F0      		breq .L67
 715               	.LBB292:
 716               	.LBB293:
 360:lib/lufa/LUFA/Drivers/USB/Core/AVR8/../AVR8/../AVR8/Endpoint_AVR8.h **** 			}
 717               		.loc 2 360 0
 718 003c 8091 E800 		lds r24,232
 719               	.LBE293:
 720               	.LBE292:
  52:lib/lufa/LUFA/Drivers/USB/Core/AVR8/Template/Template_Endpoint_RW.c **** 		{
 721               		.loc 3 52 0
 722 0040 85FD      		sbrc r24,5
 723 0042 00C0      		rjmp .L60
 724               	.LBB294:
 725               	.LBB295:
 471:lib/lufa/LUFA/Drivers/USB/Core/AVR8/../AVR8/../AVR8/Endpoint_AVR8.h **** 				#else
 726               		.loc 2 471 0
 727 0044 8091 E800 		lds r24,232
 728 0048 8B77      		andi r24,lo8(123)
 729 004a 8093 E800 		sts 232,r24
 730               	.LBE295:
 731               	.LBE294:
  60:lib/lufa/LUFA/Drivers/USB/Core/AVR8/Template/Template_Endpoint_RW.c **** 			{
 732               		.loc 3 60 0
 733 004e E114      		cp r14,__zero_reg__
 734 0050 F104      		cpc r15,__zero_reg__
 735 0052 01F0      		breq .L61
  62:lib/lufa/LUFA/Drivers/USB/Core/AVR8/Template/Template_Endpoint_RW.c **** 				return ENDPOINT_RWSTREAM_IncompleteTransfer;
 736               		.loc 3 62 0
 737 0054 F701      		movw r30,r14
 738 0056 8081      		ld r24,Z
 739 0058 9181      		ldd r25,Z+1
 740 005a C80E      		add r12,r24
 741 005c D91E      		adc r13,r25
 742               	.LVL79:
 743 005e D182      		std Z+1,r13
 744 0060 C082      		st Z,r12
  63:lib/lufa/LUFA/Drivers/USB/Core/AVR8/Template/Template_Endpoint_RW.c **** 			}
 745               		.loc 3 63 0
 746 0062 85E0      		ldi r24,lo8(5)
 747 0064 00C0      		rjmp .L57
 748               	.LVL80:
 749               	.L61:
  66:lib/lufa/LUFA/Drivers/USB/Core/AVR8/Template/Template_Endpoint_RW.c **** 			  return ErrorCode;
 750               		.loc 3 66 0
 751 0066 0E94 0000 		call Endpoint_WaitUntilReady
 752               	.LVL81:
 753 006a 8823      		tst r24
 754 006c 01F0      		breq .L59
 755 006e 00C0      		rjmp .L57
 756               	.LVL82:
 757               	.L60:
 758               	.LBB296:
 759               	.LBB297:
 542:lib/lufa/LUFA/Drivers/USB/Core/AVR8/../AVR8/../AVR8/Endpoint_AVR8.h **** 			}
 760               		.loc 2 542 0
 761 0070 8091 F100 		lds r24,241
 762               	.LBE297:
 763               	.LBE296:
  71:lib/lufa/LUFA/Drivers/USB/Core/AVR8/Template/Template_Endpoint_RW.c **** 			TEMPLATE_BUFFER_MOVE(DataStream, 1);
 764               		.loc 3 71 0
 765 0074 8993      		st Y+,r24
 766               	.LVL83:
  73:lib/lufa/LUFA/Drivers/USB/Core/AVR8/Template/Template_Endpoint_RW.c **** 			BytesInTransfer++;
 767               		.loc 3 73 0
 768 0076 0150      		subi r16,1
 769 0078 1109      		sbc r17,__zero_reg__
 770               	.LVL84:
  74:lib/lufa/LUFA/Drivers/USB/Core/AVR8/Template/Template_Endpoint_RW.c **** 		}
 771               		.loc 3 74 0
 772 007a FFEF      		ldi r31,-1
 773 007c CF1A      		sub r12,r31
 774 007e DF0A      		sbc r13,r31
 775               	.LVL85:
 776 0080 00C0      		rjmp .L59
 777               	.L67:
  78:lib/lufa/LUFA/Drivers/USB/Core/AVR8/Template/Template_Endpoint_RW.c **** }
 778               		.loc 3 78 0
 779 0082 80E0      		ldi r24,0
 780               	.LVL86:
 781               	.L57:
 782               	/* epilogue start */
 783               		.loc 3 79 0
 784 0084 DF91      		pop r29
 785 0086 CF91      		pop r28
 786               	.LVL87:
 787 0088 1F91      		pop r17
 788 008a 0F91      		pop r16
 789               	.LVL88:
 790 008c FF90      		pop r15
 791 008e EF90      		pop r14
 792               	.LVL89:
 793 0090 DF90      		pop r13
 794 0092 CF90      		pop r12
 795 0094 0895      		ret
 796               		.cfi_endproc
 797               	.LFE89:
 799               		.section	.text.Endpoint_Read_Stream_BE,"ax",@progbits
 800               	.global	Endpoint_Read_Stream_BE
 802               	Endpoint_Read_Stream_BE:
 803               	.LFB90:
  36:lib/lufa/LUFA/Drivers/USB/Core/AVR8/Template/Template_Endpoint_RW.c **** 	uint8_t* DataStream      = ((uint8_t*)Buffer + TEMPLATE_BUFFER_OFFSET(Length));
 804               		.loc 3 36 0
 805               		.cfi_startproc
 806               	.LVL90:
 807 0000 CF92      		push r12
 808               	.LCFI36:
 809               		.cfi_def_cfa_offset 3
 810               		.cfi_offset 12, -2
 811 0002 DF92      		push r13
 812               	.LCFI37:
 813               		.cfi_def_cfa_offset 4
 814               		.cfi_offset 13, -3
 815 0004 EF92      		push r14
 816               	.LCFI38:
 817               		.cfi_def_cfa_offset 5
 818               		.cfi_offset 14, -4
 819 0006 FF92      		push r15
 820               	.LCFI39:
 821               		.cfi_def_cfa_offset 6
 822               		.cfi_offset 15, -5
 823 0008 0F93      		push r16
 824               	.LCFI40:
 825               		.cfi_def_cfa_offset 7
 826               		.cfi_offset 16, -6
 827 000a 1F93      		push r17
 828               	.LCFI41:
 829               		.cfi_def_cfa_offset 8
 830               		.cfi_offset 17, -7
 831 000c CF93      		push r28
 832               	.LCFI42:
 833               		.cfi_def_cfa_offset 9
 834               		.cfi_offset 28, -8
 835 000e DF93      		push r29
 836               	.LCFI43:
 837               		.cfi_def_cfa_offset 10
 838               		.cfi_offset 29, -9
 839               	/* prologue: function */
 840               	/* frame size = 0 */
 841               	/* stack size = 8 */
 842               	.L__stack_usage = 8
 843 0010 EC01      		movw r28,r24
 844 0012 8B01      		movw r16,r22
 845 0014 7A01      		movw r14,r20
 846               	.LVL91:
  41:lib/lufa/LUFA/Drivers/USB/Core/AVR8/Template/Template_Endpoint_RW.c **** 	  return ErrorCode;
 847               		.loc 3 41 0
 848 0016 0E94 0000 		call Endpoint_WaitUntilReady
 849               	.LVL92:
 850 001a 8111      		cpse r24,__zero_reg__
 851 001c 00C0      		rjmp .L69
  37:lib/lufa/LUFA/Drivers/USB/Core/AVR8/Template/Template_Endpoint_RW.c **** 	uint16_t BytesInTransfer = 0;
 852               		.loc 3 37 0
 853 001e C801      		movw r24,r16
 854               	.LVL93:
 855 0020 0197      		sbiw r24,1
 856               	.LVL94:
 857 0022 C80F      		add r28,r24
 858 0024 D91F      		adc r29,r25
 859               	.LVL95:
  44:lib/lufa/LUFA/Drivers/USB/Core/AVR8/Template/Template_Endpoint_RW.c **** 	{
 860               		.loc 3 44 0
 861 0026 E114      		cp r14,__zero_reg__
 862 0028 F104      		cpc r15,__zero_reg__
 863 002a 01F0      		breq .L70
  46:lib/lufa/LUFA/Drivers/USB/Core/AVR8/Template/Template_Endpoint_RW.c **** 		TEMPLATE_BUFFER_MOVE(DataStream, *BytesProcessed);
 864               		.loc 3 46 0
 865 002c F701      		movw r30,r14
 866 002e 8081      		ld r24,Z
 867 0030 9181      		ldd r25,Z+1
 868               	.LVL96:
 869 0032 081B      		sub r16,r24
 870 0034 190B      		sbc r17,r25
 871               	.LVL97:
  47:lib/lufa/LUFA/Drivers/USB/Core/AVR8/Template/Template_Endpoint_RW.c **** 	}
 872               		.loc 3 47 0
 873 0036 C81B      		sub r28,r24
 874 0038 D90B      		sbc r29,r25
 875               	.LVL98:
 876               	.L70:
  36:lib/lufa/LUFA/Drivers/USB/Core/AVR8/Template/Template_Endpoint_RW.c **** 	uint8_t* DataStream      = ((uint8_t*)Buffer + TEMPLATE_BUFFER_OFFSET(Length));
 877               		.loc 3 36 0
 878 003a C12C      		mov r12,__zero_reg__
 879 003c D12C      		mov r13,__zero_reg__
 880               	.LVL99:
 881               	.L71:
  50:lib/lufa/LUFA/Drivers/USB/Core/AVR8/Template/Template_Endpoint_RW.c **** 	{
 882               		.loc 3 50 0
 883 003e 0115      		cp r16,__zero_reg__
 884 0040 1105      		cpc r17,__zero_reg__
 885 0042 01F0      		breq .L81
 886               	.LBB298:
 887               	.LBB299:
 360:lib/lufa/LUFA/Drivers/USB/Core/AVR8/../AVR8/../AVR8/Endpoint_AVR8.h **** 			}
 888               		.loc 2 360 0
 889 0044 8091 E800 		lds r24,232
 890               	.LBE299:
 891               	.LBE298:
  52:lib/lufa/LUFA/Drivers/USB/Core/AVR8/Template/Template_Endpoint_RW.c **** 		{
 892               		.loc 3 52 0
 893 0048 85FD      		sbrc r24,5
 894 004a 00C0      		rjmp .L72
 895               	.LBB300:
 896               	.LBB301:
 471:lib/lufa/LUFA/Drivers/USB/Core/AVR8/../AVR8/../AVR8/Endpoint_AVR8.h **** 				#else
 897               		.loc 2 471 0
 898 004c 8091 E800 		lds r24,232
 899 0050 8B77      		andi r24,lo8(123)
 900 0052 8093 E800 		sts 232,r24
 901               	.LBE301:
 902               	.LBE300:
  60:lib/lufa/LUFA/Drivers/USB/Core/AVR8/Template/Template_Endpoint_RW.c **** 			{
 903               		.loc 3 60 0
 904 0056 E114      		cp r14,__zero_reg__
 905 0058 F104      		cpc r15,__zero_reg__
 906 005a 01F0      		breq .L73
  62:lib/lufa/LUFA/Drivers/USB/Core/AVR8/Template/Template_Endpoint_RW.c **** 				return ENDPOINT_RWSTREAM_IncompleteTransfer;
 907               		.loc 3 62 0
 908 005c F701      		movw r30,r14
 909 005e 8081      		ld r24,Z
 910 0060 9181      		ldd r25,Z+1
 911 0062 C80E      		add r12,r24
 912 0064 D91E      		adc r13,r25
 913               	.LVL100:
 914 0066 D182      		std Z+1,r13
 915 0068 C082      		st Z,r12
  63:lib/lufa/LUFA/Drivers/USB/Core/AVR8/Template/Template_Endpoint_RW.c **** 			}
 916               		.loc 3 63 0
 917 006a 85E0      		ldi r24,lo8(5)
 918 006c 00C0      		rjmp .L69
 919               	.LVL101:
 920               	.L73:
  66:lib/lufa/LUFA/Drivers/USB/Core/AVR8/Template/Template_Endpoint_RW.c **** 			  return ErrorCode;
 921               		.loc 3 66 0
 922 006e 0E94 0000 		call Endpoint_WaitUntilReady
 923               	.LVL102:
 924 0072 8823      		tst r24
 925 0074 01F0      		breq .L71
 926 0076 00C0      		rjmp .L69
 927               	.LVL103:
 928               	.L72:
 929               	.LBB302:
 930               	.LBB303:
 542:lib/lufa/LUFA/Drivers/USB/Core/AVR8/../AVR8/../AVR8/Endpoint_AVR8.h **** 			}
 931               		.loc 2 542 0
 932 0078 8091 F100 		lds r24,241
 933               	.LBE303:
 934               	.LBE302:
  71:lib/lufa/LUFA/Drivers/USB/Core/AVR8/Template/Template_Endpoint_RW.c **** 			TEMPLATE_BUFFER_MOVE(DataStream, 1);
 935               		.loc 3 71 0
 936 007c 8883      		st Y,r24
  72:lib/lufa/LUFA/Drivers/USB/Core/AVR8/Template/Template_Endpoint_RW.c **** 			Length--;
 937               		.loc 3 72 0
 938 007e 2197      		sbiw r28,1
 939               	.LVL104:
  73:lib/lufa/LUFA/Drivers/USB/Core/AVR8/Template/Template_Endpoint_RW.c **** 			BytesInTransfer++;
 940               		.loc 3 73 0
 941 0080 0150      		subi r16,1
 942 0082 1109      		sbc r17,__zero_reg__
 943               	.LVL105:
  74:lib/lufa/LUFA/Drivers/USB/Core/AVR8/Template/Template_Endpoint_RW.c **** 		}
 944               		.loc 3 74 0
 945 0084 FFEF      		ldi r31,-1
 946 0086 CF1A      		sub r12,r31
 947 0088 DF0A      		sbc r13,r31
 948               	.LVL106:
 949 008a 00C0      		rjmp .L71
 950               	.L81:
  78:lib/lufa/LUFA/Drivers/USB/Core/AVR8/Template/Template_Endpoint_RW.c **** }
 951               		.loc 3 78 0
 952 008c 80E0      		ldi r24,0
 953               	.LVL107:
 954               	.L69:
 955               	/* epilogue start */
 956               		.loc 3 79 0
 957 008e DF91      		pop r29
 958 0090 CF91      		pop r28
 959 0092 1F91      		pop r17
 960 0094 0F91      		pop r16
 961               	.LVL108:
 962 0096 FF90      		pop r15
 963 0098 EF90      		pop r14
 964               	.LVL109:
 965 009a DF90      		pop r13
 966 009c CF90      		pop r12
 967 009e 0895      		ret
 968               		.cfi_endproc
 969               	.LFE90:
 971               		.section	.text.Endpoint_Write_PStream_LE,"ax",@progbits
 972               	.global	Endpoint_Write_PStream_LE
 974               	Endpoint_Write_PStream_LE:
 975               	.LFB91:
  36:lib/lufa/LUFA/Drivers/USB/Core/AVR8/Template/Template_Endpoint_RW.c **** 	uint8_t* DataStream      = ((uint8_t*)Buffer + TEMPLATE_BUFFER_OFFSET(Length));
 976               		.loc 3 36 0
 977               		.cfi_startproc
 978               	.LVL110:
 979 0000 CF92      		push r12
 980               	.LCFI44:
 981               		.cfi_def_cfa_offset 3
 982               		.cfi_offset 12, -2
 983 0002 DF92      		push r13
 984               	.LCFI45:
 985               		.cfi_def_cfa_offset 4
 986               		.cfi_offset 13, -3
 987 0004 EF92      		push r14
 988               	.LCFI46:
 989               		.cfi_def_cfa_offset 5
 990               		.cfi_offset 14, -4
 991 0006 FF92      		push r15
 992               	.LCFI47:
 993               		.cfi_def_cfa_offset 6
 994               		.cfi_offset 15, -5
 995 0008 0F93      		push r16
 996               	.LCFI48:
 997               		.cfi_def_cfa_offset 7
 998               		.cfi_offset 16, -6
 999 000a 1F93      		push r17
 1000               	.LCFI49:
 1001               		.cfi_def_cfa_offset 8
 1002               		.cfi_offset 17, -7
 1003 000c CF93      		push r28
 1004               	.LCFI50:
 1005               		.cfi_def_cfa_offset 9
 1006               		.cfi_offset 28, -8
 1007 000e DF93      		push r29
 1008               	.LCFI51:
 1009               		.cfi_def_cfa_offset 10
 1010               		.cfi_offset 29, -9
 1011               	/* prologue: function */
 1012               	/* frame size = 0 */
 1013               	/* stack size = 8 */
 1014               	.L__stack_usage = 8
 1015 0010 EC01      		movw r28,r24
 1016 0012 8B01      		movw r16,r22
 1017 0014 7A01      		movw r14,r20
 1018               	.LVL111:
  41:lib/lufa/LUFA/Drivers/USB/Core/AVR8/Template/Template_Endpoint_RW.c **** 	  return ErrorCode;
 1019               		.loc 3 41 0
 1020 0016 0E94 0000 		call Endpoint_WaitUntilReady
 1021               	.LVL112:
 1022 001a 8111      		cpse r24,__zero_reg__
 1023 001c 00C0      		rjmp .L83
  44:lib/lufa/LUFA/Drivers/USB/Core/AVR8/Template/Template_Endpoint_RW.c **** 	{
 1024               		.loc 3 44 0
 1025 001e E114      		cp r14,__zero_reg__
 1026 0020 F104      		cpc r15,__zero_reg__
 1027 0022 01F0      		breq .L84
  46:lib/lufa/LUFA/Drivers/USB/Core/AVR8/Template/Template_Endpoint_RW.c **** 		TEMPLATE_BUFFER_MOVE(DataStream, *BytesProcessed);
 1028               		.loc 3 46 0
 1029 0024 F701      		movw r30,r14
 1030 0026 8081      		ld r24,Z
 1031 0028 9181      		ldd r25,Z+1
 1032               	.LVL113:
 1033 002a 081B      		sub r16,r24
 1034 002c 190B      		sbc r17,r25
 1035               	.LVL114:
  47:lib/lufa/LUFA/Drivers/USB/Core/AVR8/Template/Template_Endpoint_RW.c **** 	}
 1036               		.loc 3 47 0
 1037 002e C80F      		add r28,r24
 1038 0030 D91F      		adc r29,r25
 1039               	.LVL115:
 1040               	.L84:
  37:lib/lufa/LUFA/Drivers/USB/Core/AVR8/Template/Template_Endpoint_RW.c **** 	uint16_t BytesInTransfer = 0;
 1041               		.loc 3 37 0
 1042 0032 C12C      		mov r12,__zero_reg__
 1043 0034 D12C      		mov r13,__zero_reg__
 1044               	.LVL116:
 1045               	.L85:
  50:lib/lufa/LUFA/Drivers/USB/Core/AVR8/Template/Template_Endpoint_RW.c **** 	{
 1046               		.loc 3 50 0
 1047 0036 0115      		cp r16,__zero_reg__
 1048 0038 1105      		cpc r17,__zero_reg__
 1049 003a 01F0      		breq .L93
 1050               	.LBB304:
 1051               	.LBB305:
 360:lib/lufa/LUFA/Drivers/USB/Core/AVR8/../AVR8/../AVR8/Endpoint_AVR8.h **** 			}
 1052               		.loc 2 360 0
 1053 003c 8091 E800 		lds r24,232
 1054               	.LBE305:
 1055               	.LBE304:
  52:lib/lufa/LUFA/Drivers/USB/Core/AVR8/Template/Template_Endpoint_RW.c **** 		{
 1056               		.loc 3 52 0
 1057 0040 85FD      		sbrc r24,5
 1058 0042 00C0      		rjmp .L86
 1059               	.LBB306:
 1060               	.LBB307:
 456:lib/lufa/LUFA/Drivers/USB/Core/AVR8/../AVR8/../AVR8/Endpoint_AVR8.h **** 				#else
 1061               		.loc 2 456 0
 1062 0044 8091 E800 		lds r24,232
 1063 0048 8E77      		andi r24,lo8(126)
 1064 004a 8093 E800 		sts 232,r24
 1065               	.LBE307:
 1066               	.LBE306:
  60:lib/lufa/LUFA/Drivers/USB/Core/AVR8/Template/Template_Endpoint_RW.c **** 			{
 1067               		.loc 3 60 0
 1068 004e E114      		cp r14,__zero_reg__
 1069 0050 F104      		cpc r15,__zero_reg__
 1070 0052 01F0      		breq .L87
  62:lib/lufa/LUFA/Drivers/USB/Core/AVR8/Template/Template_Endpoint_RW.c **** 				return ENDPOINT_RWSTREAM_IncompleteTransfer;
 1071               		.loc 3 62 0
 1072 0054 F701      		movw r30,r14
 1073 0056 8081      		ld r24,Z
 1074 0058 9181      		ldd r25,Z+1
 1075 005a C80E      		add r12,r24
 1076 005c D91E      		adc r13,r25
 1077               	.LVL117:
 1078 005e D182      		std Z+1,r13
 1079 0060 C082      		st Z,r12
  63:lib/lufa/LUFA/Drivers/USB/Core/AVR8/Template/Template_Endpoint_RW.c **** 			}
 1080               		.loc 3 63 0
 1081 0062 85E0      		ldi r24,lo8(5)
 1082 0064 00C0      		rjmp .L83
 1083               	.LVL118:
 1084               	.L87:
  66:lib/lufa/LUFA/Drivers/USB/Core/AVR8/Template/Template_Endpoint_RW.c **** 			  return ErrorCode;
 1085               		.loc 3 66 0
 1086 0066 0E94 0000 		call Endpoint_WaitUntilReady
 1087               	.LVL119:
 1088 006a 8823      		tst r24
 1089 006c 01F0      		breq .L85
 1090 006e 00C0      		rjmp .L83
 1091               	.LVL120:
 1092               	.L86:
 1093               	.LBB308:
  71:lib/lufa/LUFA/Drivers/USB/Core/AVR8/Template/Template_Endpoint_RW.c **** 			TEMPLATE_BUFFER_MOVE(DataStream, 1);
 1094               		.loc 3 71 0
 1095 0070 FE01      		movw r30,r28
 1096               	/* #APP */
 1097               	 ;  71 "lib/lufa/LUFA/Drivers/USB/Core/AVR8/Template/Template_Endpoint_RW.c" 1
 1098 0072 8491      		lpm r24, Z
 1099               		
 1100               	 ;  0 "" 2
 1101               	.LVL121:
 1102               	/* #NOAPP */
 1103               	.LBE308:
 1104               	.LBB309:
 1105               	.LBB310:
 554:lib/lufa/LUFA/Drivers/USB/Core/AVR8/../AVR8/../AVR8/Endpoint_AVR8.h **** 			}
 1106               		.loc 2 554 0
 1107 0074 8093 F100 		sts 241,r24
 1108               	.LVL122:
 1109               	.LBE310:
 1110               	.LBE309:
  72:lib/lufa/LUFA/Drivers/USB/Core/AVR8/Template/Template_Endpoint_RW.c **** 			Length--;
 1111               		.loc 3 72 0
 1112 0078 2196      		adiw r28,1
 1113               	.LVL123:
  73:lib/lufa/LUFA/Drivers/USB/Core/AVR8/Template/Template_Endpoint_RW.c **** 			BytesInTransfer++;
 1114               		.loc 3 73 0
 1115 007a 0150      		subi r16,1
 1116 007c 1109      		sbc r17,__zero_reg__
 1117               	.LVL124:
  74:lib/lufa/LUFA/Drivers/USB/Core/AVR8/Template/Template_Endpoint_RW.c **** 		}
 1118               		.loc 3 74 0
 1119 007e FFEF      		ldi r31,-1
 1120 0080 CF1A      		sub r12,r31
 1121 0082 DF0A      		sbc r13,r31
 1122               	.LVL125:
 1123 0084 00C0      		rjmp .L85
 1124               	.LVL126:
 1125               	.L93:
  78:lib/lufa/LUFA/Drivers/USB/Core/AVR8/Template/Template_Endpoint_RW.c **** }
 1126               		.loc 3 78 0
 1127 0086 80E0      		ldi r24,0
 1128               	.LVL127:
 1129               	.L83:
 1130               	/* epilogue start */
 1131               		.loc 3 79 0
 1132 0088 DF91      		pop r29
 1133 008a CF91      		pop r28
 1134               	.LVL128:
 1135 008c 1F91      		pop r17
 1136 008e 0F91      		pop r16
 1137               	.LVL129:
 1138 0090 FF90      		pop r15
 1139 0092 EF90      		pop r14
 1140               	.LVL130:
 1141 0094 DF90      		pop r13
 1142 0096 CF90      		pop r12
 1143 0098 0895      		ret
 1144               		.cfi_endproc
 1145               	.LFE91:
 1147               		.section	.text.Endpoint_Write_PStream_BE,"ax",@progbits
 1148               	.global	Endpoint_Write_PStream_BE
 1150               	Endpoint_Write_PStream_BE:
 1151               	.LFB92:
  36:lib/lufa/LUFA/Drivers/USB/Core/AVR8/Template/Template_Endpoint_RW.c **** 	uint8_t* DataStream      = ((uint8_t*)Buffer + TEMPLATE_BUFFER_OFFSET(Length));
 1152               		.loc 3 36 0
 1153               		.cfi_startproc
 1154               	.LVL131:
 1155 0000 CF92      		push r12
 1156               	.LCFI52:
 1157               		.cfi_def_cfa_offset 3
 1158               		.cfi_offset 12, -2
 1159 0002 DF92      		push r13
 1160               	.LCFI53:
 1161               		.cfi_def_cfa_offset 4
 1162               		.cfi_offset 13, -3
 1163 0004 EF92      		push r14
 1164               	.LCFI54:
 1165               		.cfi_def_cfa_offset 5
 1166               		.cfi_offset 14, -4
 1167 0006 FF92      		push r15
 1168               	.LCFI55:
 1169               		.cfi_def_cfa_offset 6
 1170               		.cfi_offset 15, -5
 1171 0008 0F93      		push r16
 1172               	.LCFI56:
 1173               		.cfi_def_cfa_offset 7
 1174               		.cfi_offset 16, -6
 1175 000a 1F93      		push r17
 1176               	.LCFI57:
 1177               		.cfi_def_cfa_offset 8
 1178               		.cfi_offset 17, -7
 1179 000c CF93      		push r28
 1180               	.LCFI58:
 1181               		.cfi_def_cfa_offset 9
 1182               		.cfi_offset 28, -8
 1183 000e DF93      		push r29
 1184               	.LCFI59:
 1185               		.cfi_def_cfa_offset 10
 1186               		.cfi_offset 29, -9
 1187               	/* prologue: function */
 1188               	/* frame size = 0 */
 1189               	/* stack size = 8 */
 1190               	.L__stack_usage = 8
 1191 0010 EC01      		movw r28,r24
 1192 0012 8B01      		movw r16,r22
 1193 0014 7A01      		movw r14,r20
 1194               	.LVL132:
  41:lib/lufa/LUFA/Drivers/USB/Core/AVR8/Template/Template_Endpoint_RW.c **** 	  return ErrorCode;
 1195               		.loc 3 41 0
 1196 0016 0E94 0000 		call Endpoint_WaitUntilReady
 1197               	.LVL133:
 1198 001a 8111      		cpse r24,__zero_reg__
 1199 001c 00C0      		rjmp .L95
  37:lib/lufa/LUFA/Drivers/USB/Core/AVR8/Template/Template_Endpoint_RW.c **** 	uint16_t BytesInTransfer = 0;
 1200               		.loc 3 37 0
 1201 001e C801      		movw r24,r16
 1202               	.LVL134:
 1203 0020 0197      		sbiw r24,1
 1204               	.LVL135:
 1205 0022 C80F      		add r28,r24
 1206 0024 D91F      		adc r29,r25
 1207               	.LVL136:
  44:lib/lufa/LUFA/Drivers/USB/Core/AVR8/Template/Template_Endpoint_RW.c **** 	{
 1208               		.loc 3 44 0
 1209 0026 E114      		cp r14,__zero_reg__
 1210 0028 F104      		cpc r15,__zero_reg__
 1211 002a 01F0      		breq .L96
  46:lib/lufa/LUFA/Drivers/USB/Core/AVR8/Template/Template_Endpoint_RW.c **** 		TEMPLATE_BUFFER_MOVE(DataStream, *BytesProcessed);
 1212               		.loc 3 46 0
 1213 002c F701      		movw r30,r14
 1214 002e 8081      		ld r24,Z
 1215 0030 9181      		ldd r25,Z+1
 1216               	.LVL137:
 1217 0032 081B      		sub r16,r24
 1218 0034 190B      		sbc r17,r25
 1219               	.LVL138:
  47:lib/lufa/LUFA/Drivers/USB/Core/AVR8/Template/Template_Endpoint_RW.c **** 	}
 1220               		.loc 3 47 0
 1221 0036 C81B      		sub r28,r24
 1222 0038 D90B      		sbc r29,r25
 1223               	.LVL139:
 1224               	.L96:
  36:lib/lufa/LUFA/Drivers/USB/Core/AVR8/Template/Template_Endpoint_RW.c **** 	uint8_t* DataStream      = ((uint8_t*)Buffer + TEMPLATE_BUFFER_OFFSET(Length));
 1225               		.loc 3 36 0
 1226 003a C12C      		mov r12,__zero_reg__
 1227 003c D12C      		mov r13,__zero_reg__
 1228               	.LVL140:
 1229               	.L97:
  50:lib/lufa/LUFA/Drivers/USB/Core/AVR8/Template/Template_Endpoint_RW.c **** 	{
 1230               		.loc 3 50 0
 1231 003e 0115      		cp r16,__zero_reg__
 1232 0040 1105      		cpc r17,__zero_reg__
 1233 0042 01F0      		breq .L107
 1234               	.LBB311:
 1235               	.LBB312:
 360:lib/lufa/LUFA/Drivers/USB/Core/AVR8/../AVR8/../AVR8/Endpoint_AVR8.h **** 			}
 1236               		.loc 2 360 0
 1237 0044 8091 E800 		lds r24,232
 1238               	.LBE312:
 1239               	.LBE311:
  52:lib/lufa/LUFA/Drivers/USB/Core/AVR8/Template/Template_Endpoint_RW.c **** 		{
 1240               		.loc 3 52 0
 1241 0048 85FD      		sbrc r24,5
 1242 004a 00C0      		rjmp .L98
 1243               	.LBB313:
 1244               	.LBB314:
 456:lib/lufa/LUFA/Drivers/USB/Core/AVR8/../AVR8/../AVR8/Endpoint_AVR8.h **** 				#else
 1245               		.loc 2 456 0
 1246 004c 8091 E800 		lds r24,232
 1247 0050 8E77      		andi r24,lo8(126)
 1248 0052 8093 E800 		sts 232,r24
 1249               	.LBE314:
 1250               	.LBE313:
  60:lib/lufa/LUFA/Drivers/USB/Core/AVR8/Template/Template_Endpoint_RW.c **** 			{
 1251               		.loc 3 60 0
 1252 0056 E114      		cp r14,__zero_reg__
 1253 0058 F104      		cpc r15,__zero_reg__
 1254 005a 01F0      		breq .L99
  62:lib/lufa/LUFA/Drivers/USB/Core/AVR8/Template/Template_Endpoint_RW.c **** 				return ENDPOINT_RWSTREAM_IncompleteTransfer;
 1255               		.loc 3 62 0
 1256 005c F701      		movw r30,r14
 1257 005e 8081      		ld r24,Z
 1258 0060 9181      		ldd r25,Z+1
 1259 0062 C80E      		add r12,r24
 1260 0064 D91E      		adc r13,r25
 1261               	.LVL141:
 1262 0066 D182      		std Z+1,r13
 1263 0068 C082      		st Z,r12
  63:lib/lufa/LUFA/Drivers/USB/Core/AVR8/Template/Template_Endpoint_RW.c **** 			}
 1264               		.loc 3 63 0
 1265 006a 85E0      		ldi r24,lo8(5)
 1266 006c 00C0      		rjmp .L95
 1267               	.LVL142:
 1268               	.L99:
  66:lib/lufa/LUFA/Drivers/USB/Core/AVR8/Template/Template_Endpoint_RW.c **** 			  return ErrorCode;
 1269               		.loc 3 66 0
 1270 006e 0E94 0000 		call Endpoint_WaitUntilReady
 1271               	.LVL143:
 1272 0072 8823      		tst r24
 1273 0074 01F0      		breq .L97
 1274 0076 00C0      		rjmp .L95
 1275               	.LVL144:
 1276               	.L98:
 1277               	.LBB315:
  71:lib/lufa/LUFA/Drivers/USB/Core/AVR8/Template/Template_Endpoint_RW.c **** 			TEMPLATE_BUFFER_MOVE(DataStream, 1);
 1278               		.loc 3 71 0
 1279 0078 FE01      		movw r30,r28
 1280               	/* #APP */
 1281               	 ;  71 "lib/lufa/LUFA/Drivers/USB/Core/AVR8/Template/Template_Endpoint_RW.c" 1
 1282 007a 8491      		lpm r24, Z
 1283               		
 1284               	 ;  0 "" 2
 1285               	.LVL145:
 1286               	/* #NOAPP */
 1287               	.LBE315:
 1288               	.LBB316:
 1289               	.LBB317:
 554:lib/lufa/LUFA/Drivers/USB/Core/AVR8/../AVR8/../AVR8/Endpoint_AVR8.h **** 			}
 1290               		.loc 2 554 0
 1291 007c 8093 F100 		sts 241,r24
 1292               	.LVL146:
 1293               	.LBE317:
 1294               	.LBE316:
  72:lib/lufa/LUFA/Drivers/USB/Core/AVR8/Template/Template_Endpoint_RW.c **** 			Length--;
 1295               		.loc 3 72 0
 1296 0080 2197      		sbiw r28,1
 1297               	.LVL147:
  73:lib/lufa/LUFA/Drivers/USB/Core/AVR8/Template/Template_Endpoint_RW.c **** 			BytesInTransfer++;
 1298               		.loc 3 73 0
 1299 0082 0150      		subi r16,1
 1300 0084 1109      		sbc r17,__zero_reg__
 1301               	.LVL148:
  74:lib/lufa/LUFA/Drivers/USB/Core/AVR8/Template/Template_Endpoint_RW.c **** 		}
 1302               		.loc 3 74 0
 1303 0086 FFEF      		ldi r31,-1
 1304 0088 CF1A      		sub r12,r31
 1305 008a DF0A      		sbc r13,r31
 1306               	.LVL149:
 1307 008c 00C0      		rjmp .L97
 1308               	.LVL150:
 1309               	.L107:
  78:lib/lufa/LUFA/Drivers/USB/Core/AVR8/Template/Template_Endpoint_RW.c **** }
 1310               		.loc 3 78 0
 1311 008e 80E0      		ldi r24,0
 1312               	.LVL151:
 1313               	.L95:
 1314               	/* epilogue start */
 1315               		.loc 3 79 0
 1316 0090 DF91      		pop r29
 1317 0092 CF91      		pop r28
 1318 0094 1F91      		pop r17
 1319 0096 0F91      		pop r16
 1320               	.LVL152:
 1321 0098 FF90      		pop r15
 1322 009a EF90      		pop r14
 1323               	.LVL153:
 1324 009c DF90      		pop r13
 1325 009e CF90      		pop r12
 1326 00a0 0895      		ret
 1327               		.cfi_endproc
 1328               	.LFE92:
 1330               		.section	.text.Endpoint_Write_EStream_LE,"ax",@progbits
 1331               	.global	Endpoint_Write_EStream_LE
 1333               	Endpoint_Write_EStream_LE:
 1334               	.LFB93:
  36:lib/lufa/LUFA/Drivers/USB/Core/AVR8/Template/Template_Endpoint_RW.c **** 	uint8_t* DataStream      = ((uint8_t*)Buffer + TEMPLATE_BUFFER_OFFSET(Length));
 1335               		.loc 3 36 0
 1336               		.cfi_startproc
 1337               	.LVL154:
 1338 0000 CF92      		push r12
 1339               	.LCFI60:
 1340               		.cfi_def_cfa_offset 3
 1341               		.cfi_offset 12, -2
 1342 0002 DF92      		push r13
 1343               	.LCFI61:
 1344               		.cfi_def_cfa_offset 4
 1345               		.cfi_offset 13, -3
 1346 0004 EF92      		push r14
 1347               	.LCFI62:
 1348               		.cfi_def_cfa_offset 5
 1349               		.cfi_offset 14, -4
 1350 0006 FF92      		push r15
 1351               	.LCFI63:
 1352               		.cfi_def_cfa_offset 6
 1353               		.cfi_offset 15, -5
 1354 0008 0F93      		push r16
 1355               	.LCFI64:
 1356               		.cfi_def_cfa_offset 7
 1357               		.cfi_offset 16, -6
 1358 000a 1F93      		push r17
 1359               	.LCFI65:
 1360               		.cfi_def_cfa_offset 8
 1361               		.cfi_offset 17, -7
 1362 000c CF93      		push r28
 1363               	.LCFI66:
 1364               		.cfi_def_cfa_offset 9
 1365               		.cfi_offset 28, -8
 1366 000e DF93      		push r29
 1367               	.LCFI67:
 1368               		.cfi_def_cfa_offset 10
 1369               		.cfi_offset 29, -9
 1370               	/* prologue: function */
 1371               	/* frame size = 0 */
 1372               	/* stack size = 8 */
 1373               	.L__stack_usage = 8
 1374 0010 EC01      		movw r28,r24
 1375 0012 8B01      		movw r16,r22
 1376 0014 7A01      		movw r14,r20
 1377               	.LVL155:
  41:lib/lufa/LUFA/Drivers/USB/Core/AVR8/Template/Template_Endpoint_RW.c **** 	  return ErrorCode;
 1378               		.loc 3 41 0
 1379 0016 0E94 0000 		call Endpoint_WaitUntilReady
 1380               	.LVL156:
 1381 001a 8111      		cpse r24,__zero_reg__
 1382 001c 00C0      		rjmp .L109
  44:lib/lufa/LUFA/Drivers/USB/Core/AVR8/Template/Template_Endpoint_RW.c **** 	{
 1383               		.loc 3 44 0
 1384 001e E114      		cp r14,__zero_reg__
 1385 0020 F104      		cpc r15,__zero_reg__
 1386 0022 01F0      		breq .L110
  46:lib/lufa/LUFA/Drivers/USB/Core/AVR8/Template/Template_Endpoint_RW.c **** 		TEMPLATE_BUFFER_MOVE(DataStream, *BytesProcessed);
 1387               		.loc 3 46 0
 1388 0024 F701      		movw r30,r14
 1389 0026 8081      		ld r24,Z
 1390 0028 9181      		ldd r25,Z+1
 1391               	.LVL157:
 1392 002a 081B      		sub r16,r24
 1393 002c 190B      		sbc r17,r25
 1394               	.LVL158:
  47:lib/lufa/LUFA/Drivers/USB/Core/AVR8/Template/Template_Endpoint_RW.c **** 	}
 1395               		.loc 3 47 0
 1396 002e C80F      		add r28,r24
 1397 0030 D91F      		adc r29,r25
 1398               	.LVL159:
 1399               	.L110:
  37:lib/lufa/LUFA/Drivers/USB/Core/AVR8/Template/Template_Endpoint_RW.c **** 	uint16_t BytesInTransfer = 0;
 1400               		.loc 3 37 0
 1401 0032 C12C      		mov r12,__zero_reg__
 1402 0034 D12C      		mov r13,__zero_reg__
 1403               	.LVL160:
 1404               	.L111:
  50:lib/lufa/LUFA/Drivers/USB/Core/AVR8/Template/Template_Endpoint_RW.c **** 	{
 1405               		.loc 3 50 0
 1406 0036 0115      		cp r16,__zero_reg__
 1407 0038 1105      		cpc r17,__zero_reg__
 1408 003a 01F0      		breq .L119
 1409               	.LBB318:
 1410               	.LBB319:
 360:lib/lufa/LUFA/Drivers/USB/Core/AVR8/../AVR8/../AVR8/Endpoint_AVR8.h **** 			}
 1411               		.loc 2 360 0
 1412 003c 8091 E800 		lds r24,232
 1413               	.LBE319:
 1414               	.LBE318:
  52:lib/lufa/LUFA/Drivers/USB/Core/AVR8/Template/Template_Endpoint_RW.c **** 		{
 1415               		.loc 3 52 0
 1416 0040 85FD      		sbrc r24,5
 1417 0042 00C0      		rjmp .L112
 1418               	.LBB320:
 1419               	.LBB321:
 456:lib/lufa/LUFA/Drivers/USB/Core/AVR8/../AVR8/../AVR8/Endpoint_AVR8.h **** 				#else
 1420               		.loc 2 456 0
 1421 0044 8091 E800 		lds r24,232
 1422 0048 8E77      		andi r24,lo8(126)
 1423 004a 8093 E800 		sts 232,r24
 1424               	.LBE321:
 1425               	.LBE320:
  60:lib/lufa/LUFA/Drivers/USB/Core/AVR8/Template/Template_Endpoint_RW.c **** 			{
 1426               		.loc 3 60 0
 1427 004e E114      		cp r14,__zero_reg__
 1428 0050 F104      		cpc r15,__zero_reg__
 1429 0052 01F0      		breq .L113
  62:lib/lufa/LUFA/Drivers/USB/Core/AVR8/Template/Template_Endpoint_RW.c **** 				return ENDPOINT_RWSTREAM_IncompleteTransfer;
 1430               		.loc 3 62 0
 1431 0054 F701      		movw r30,r14
 1432 0056 8081      		ld r24,Z
 1433 0058 9181      		ldd r25,Z+1
 1434 005a C80E      		add r12,r24
 1435 005c D91E      		adc r13,r25
 1436               	.LVL161:
 1437 005e D182      		std Z+1,r13
 1438 0060 C082      		st Z,r12
  63:lib/lufa/LUFA/Drivers/USB/Core/AVR8/Template/Template_Endpoint_RW.c **** 			}
 1439               		.loc 3 63 0
 1440 0062 85E0      		ldi r24,lo8(5)
 1441 0064 00C0      		rjmp .L109
 1442               	.LVL162:
 1443               	.L113:
  66:lib/lufa/LUFA/Drivers/USB/Core/AVR8/Template/Template_Endpoint_RW.c **** 			  return ErrorCode;
 1444               		.loc 3 66 0
 1445 0066 0E94 0000 		call Endpoint_WaitUntilReady
 1446               	.LVL163:
 1447 006a 8823      		tst r24
 1448 006c 01F0      		breq .L111
 1449 006e 00C0      		rjmp .L109
 1450               	.LVL164:
 1451               	.L112:
  71:lib/lufa/LUFA/Drivers/USB/Core/AVR8/Template/Template_Endpoint_RW.c **** 			TEMPLATE_BUFFER_MOVE(DataStream, 1);
 1452               		.loc 3 71 0
 1453 0070 CE01      		movw r24,r28
 1454 0072 0E94 0000 		call eeprom_read_byte
 1455               	.LVL165:
 1456               	.LBB322:
 1457               	.LBB323:
 554:lib/lufa/LUFA/Drivers/USB/Core/AVR8/../AVR8/../AVR8/Endpoint_AVR8.h **** 			}
 1458               		.loc 2 554 0
 1459 0076 8093 F100 		sts 241,r24
 1460               	.LVL166:
 1461               	.LBE323:
 1462               	.LBE322:
  72:lib/lufa/LUFA/Drivers/USB/Core/AVR8/Template/Template_Endpoint_RW.c **** 			Length--;
 1463               		.loc 3 72 0
 1464 007a 2196      		adiw r28,1
 1465               	.LVL167:
  73:lib/lufa/LUFA/Drivers/USB/Core/AVR8/Template/Template_Endpoint_RW.c **** 			BytesInTransfer++;
 1466               		.loc 3 73 0
 1467 007c 0150      		subi r16,1
 1468 007e 1109      		sbc r17,__zero_reg__
 1469               	.LVL168:
  74:lib/lufa/LUFA/Drivers/USB/Core/AVR8/Template/Template_Endpoint_RW.c **** 		}
 1470               		.loc 3 74 0
 1471 0080 FFEF      		ldi r31,-1
 1472 0082 CF1A      		sub r12,r31
 1473 0084 DF0A      		sbc r13,r31
 1474               	.LVL169:
 1475 0086 00C0      		rjmp .L111
 1476               	.L119:
  78:lib/lufa/LUFA/Drivers/USB/Core/AVR8/Template/Template_Endpoint_RW.c **** }
 1477               		.loc 3 78 0
 1478 0088 80E0      		ldi r24,0
 1479               	.LVL170:
 1480               	.L109:
 1481               	/* epilogue start */
 1482               		.loc 3 79 0
 1483 008a DF91      		pop r29
 1484 008c CF91      		pop r28
 1485               	.LVL171:
 1486 008e 1F91      		pop r17
 1487 0090 0F91      		pop r16
 1488               	.LVL172:
 1489 0092 FF90      		pop r15
 1490 0094 EF90      		pop r14
 1491               	.LVL173:
 1492 0096 DF90      		pop r13
 1493 0098 CF90      		pop r12
 1494 009a 0895      		ret
 1495               		.cfi_endproc
 1496               	.LFE93:
 1498               		.section	.text.Endpoint_Write_EStream_BE,"ax",@progbits
 1499               	.global	Endpoint_Write_EStream_BE
 1501               	Endpoint_Write_EStream_BE:
 1502               	.LFB94:
  36:lib/lufa/LUFA/Drivers/USB/Core/AVR8/Template/Template_Endpoint_RW.c **** 	uint8_t* DataStream      = ((uint8_t*)Buffer + TEMPLATE_BUFFER_OFFSET(Length));
 1503               		.loc 3 36 0
 1504               		.cfi_startproc
 1505               	.LVL174:
 1506 0000 CF92      		push r12
 1507               	.LCFI68:
 1508               		.cfi_def_cfa_offset 3
 1509               		.cfi_offset 12, -2
 1510 0002 DF92      		push r13
 1511               	.LCFI69:
 1512               		.cfi_def_cfa_offset 4
 1513               		.cfi_offset 13, -3
 1514 0004 EF92      		push r14
 1515               	.LCFI70:
 1516               		.cfi_def_cfa_offset 5
 1517               		.cfi_offset 14, -4
 1518 0006 FF92      		push r15
 1519               	.LCFI71:
 1520               		.cfi_def_cfa_offset 6
 1521               		.cfi_offset 15, -5
 1522 0008 0F93      		push r16
 1523               	.LCFI72:
 1524               		.cfi_def_cfa_offset 7
 1525               		.cfi_offset 16, -6
 1526 000a 1F93      		push r17
 1527               	.LCFI73:
 1528               		.cfi_def_cfa_offset 8
 1529               		.cfi_offset 17, -7
 1530 000c CF93      		push r28
 1531               	.LCFI74:
 1532               		.cfi_def_cfa_offset 9
 1533               		.cfi_offset 28, -8
 1534 000e DF93      		push r29
 1535               	.LCFI75:
 1536               		.cfi_def_cfa_offset 10
 1537               		.cfi_offset 29, -9
 1538               	/* prologue: function */
 1539               	/* frame size = 0 */
 1540               	/* stack size = 8 */
 1541               	.L__stack_usage = 8
 1542 0010 EC01      		movw r28,r24
 1543 0012 8B01      		movw r16,r22
 1544 0014 7A01      		movw r14,r20
 1545               	.LVL175:
  41:lib/lufa/LUFA/Drivers/USB/Core/AVR8/Template/Template_Endpoint_RW.c **** 	  return ErrorCode;
 1546               		.loc 3 41 0
 1547 0016 0E94 0000 		call Endpoint_WaitUntilReady
 1548               	.LVL176:
 1549 001a 8111      		cpse r24,__zero_reg__
 1550 001c 00C0      		rjmp .L121
  37:lib/lufa/LUFA/Drivers/USB/Core/AVR8/Template/Template_Endpoint_RW.c **** 	uint16_t BytesInTransfer = 0;
 1551               		.loc 3 37 0
 1552 001e C801      		movw r24,r16
 1553               	.LVL177:
 1554 0020 0197      		sbiw r24,1
 1555               	.LVL178:
 1556 0022 C80F      		add r28,r24
 1557 0024 D91F      		adc r29,r25
 1558               	.LVL179:
  44:lib/lufa/LUFA/Drivers/USB/Core/AVR8/Template/Template_Endpoint_RW.c **** 	{
 1559               		.loc 3 44 0
 1560 0026 E114      		cp r14,__zero_reg__
 1561 0028 F104      		cpc r15,__zero_reg__
 1562 002a 01F0      		breq .L122
  46:lib/lufa/LUFA/Drivers/USB/Core/AVR8/Template/Template_Endpoint_RW.c **** 		TEMPLATE_BUFFER_MOVE(DataStream, *BytesProcessed);
 1563               		.loc 3 46 0
 1564 002c F701      		movw r30,r14
 1565 002e 8081      		ld r24,Z
 1566 0030 9181      		ldd r25,Z+1
 1567               	.LVL180:
 1568 0032 081B      		sub r16,r24
 1569 0034 190B      		sbc r17,r25
 1570               	.LVL181:
  47:lib/lufa/LUFA/Drivers/USB/Core/AVR8/Template/Template_Endpoint_RW.c **** 	}
 1571               		.loc 3 47 0
 1572 0036 C81B      		sub r28,r24
 1573 0038 D90B      		sbc r29,r25
 1574               	.LVL182:
 1575               	.L122:
  36:lib/lufa/LUFA/Drivers/USB/Core/AVR8/Template/Template_Endpoint_RW.c **** 	uint8_t* DataStream      = ((uint8_t*)Buffer + TEMPLATE_BUFFER_OFFSET(Length));
 1576               		.loc 3 36 0
 1577 003a C12C      		mov r12,__zero_reg__
 1578 003c D12C      		mov r13,__zero_reg__
 1579               	.LVL183:
 1580               	.L123:
  50:lib/lufa/LUFA/Drivers/USB/Core/AVR8/Template/Template_Endpoint_RW.c **** 	{
 1581               		.loc 3 50 0
 1582 003e 0115      		cp r16,__zero_reg__
 1583 0040 1105      		cpc r17,__zero_reg__
 1584 0042 01F0      		breq .L133
 1585               	.LBB324:
 1586               	.LBB325:
 360:lib/lufa/LUFA/Drivers/USB/Core/AVR8/../AVR8/../AVR8/Endpoint_AVR8.h **** 			}
 1587               		.loc 2 360 0
 1588 0044 8091 E800 		lds r24,232
 1589               	.LBE325:
 1590               	.LBE324:
  52:lib/lufa/LUFA/Drivers/USB/Core/AVR8/Template/Template_Endpoint_RW.c **** 		{
 1591               		.loc 3 52 0
 1592 0048 85FD      		sbrc r24,5
 1593 004a 00C0      		rjmp .L124
 1594               	.LBB326:
 1595               	.LBB327:
 456:lib/lufa/LUFA/Drivers/USB/Core/AVR8/../AVR8/../AVR8/Endpoint_AVR8.h **** 				#else
 1596               		.loc 2 456 0
 1597 004c 8091 E800 		lds r24,232
 1598 0050 8E77      		andi r24,lo8(126)
 1599 0052 8093 E800 		sts 232,r24
 1600               	.LBE327:
 1601               	.LBE326:
  60:lib/lufa/LUFA/Drivers/USB/Core/AVR8/Template/Template_Endpoint_RW.c **** 			{
 1602               		.loc 3 60 0
 1603 0056 E114      		cp r14,__zero_reg__
 1604 0058 F104      		cpc r15,__zero_reg__
 1605 005a 01F0      		breq .L125
  62:lib/lufa/LUFA/Drivers/USB/Core/AVR8/Template/Template_Endpoint_RW.c **** 				return ENDPOINT_RWSTREAM_IncompleteTransfer;
 1606               		.loc 3 62 0
 1607 005c F701      		movw r30,r14
 1608 005e 8081      		ld r24,Z
 1609 0060 9181      		ldd r25,Z+1
 1610 0062 C80E      		add r12,r24
 1611 0064 D91E      		adc r13,r25
 1612               	.LVL184:
 1613 0066 D182      		std Z+1,r13
 1614 0068 C082      		st Z,r12
  63:lib/lufa/LUFA/Drivers/USB/Core/AVR8/Template/Template_Endpoint_RW.c **** 			}
 1615               		.loc 3 63 0
 1616 006a 85E0      		ldi r24,lo8(5)
 1617 006c 00C0      		rjmp .L121
 1618               	.LVL185:
 1619               	.L125:
  66:lib/lufa/LUFA/Drivers/USB/Core/AVR8/Template/Template_Endpoint_RW.c **** 			  return ErrorCode;
 1620               		.loc 3 66 0
 1621 006e 0E94 0000 		call Endpoint_WaitUntilReady
 1622               	.LVL186:
 1623 0072 8823      		tst r24
 1624 0074 01F0      		breq .L123
 1625 0076 00C0      		rjmp .L121
 1626               	.LVL187:
 1627               	.L124:
  71:lib/lufa/LUFA/Drivers/USB/Core/AVR8/Template/Template_Endpoint_RW.c **** 			TEMPLATE_BUFFER_MOVE(DataStream, 1);
 1628               		.loc 3 71 0
 1629 0078 CE01      		movw r24,r28
 1630 007a 0E94 0000 		call eeprom_read_byte
 1631               	.LVL188:
 1632               	.LBB328:
 1633               	.LBB329:
 554:lib/lufa/LUFA/Drivers/USB/Core/AVR8/../AVR8/../AVR8/Endpoint_AVR8.h **** 			}
 1634               		.loc 2 554 0
 1635 007e 8093 F100 		sts 241,r24
 1636               	.LVL189:
 1637               	.LBE329:
 1638               	.LBE328:
  72:lib/lufa/LUFA/Drivers/USB/Core/AVR8/Template/Template_Endpoint_RW.c **** 			Length--;
 1639               		.loc 3 72 0
 1640 0082 2197      		sbiw r28,1
 1641               	.LVL190:
  73:lib/lufa/LUFA/Drivers/USB/Core/AVR8/Template/Template_Endpoint_RW.c **** 			BytesInTransfer++;
 1642               		.loc 3 73 0
 1643 0084 0150      		subi r16,1
 1644 0086 1109      		sbc r17,__zero_reg__
 1645               	.LVL191:
  74:lib/lufa/LUFA/Drivers/USB/Core/AVR8/Template/Template_Endpoint_RW.c **** 		}
 1646               		.loc 3 74 0
 1647 0088 FFEF      		ldi r31,-1
 1648 008a CF1A      		sub r12,r31
 1649 008c DF0A      		sbc r13,r31
 1650               	.LVL192:
 1651 008e 00C0      		rjmp .L123
 1652               	.L133:
  78:lib/lufa/LUFA/Drivers/USB/Core/AVR8/Template/Template_Endpoint_RW.c **** }
 1653               		.loc 3 78 0
 1654 0090 80E0      		ldi r24,0
 1655               	.LVL193:
 1656               	.L121:
 1657               	/* epilogue start */
 1658               		.loc 3 79 0
 1659 0092 DF91      		pop r29
 1660 0094 CF91      		pop r28
 1661 0096 1F91      		pop r17
 1662 0098 0F91      		pop r16
 1663               	.LVL194:
 1664 009a FF90      		pop r15
 1665 009c EF90      		pop r14
 1666               	.LVL195:
 1667 009e DF90      		pop r13
 1668 00a0 CF90      		pop r12
 1669 00a2 0895      		ret
 1670               		.cfi_endproc
 1671               	.LFE94:
 1673               		.section	.text.Endpoint_Read_EStream_LE,"ax",@progbits
 1674               	.global	Endpoint_Read_EStream_LE
 1676               	Endpoint_Read_EStream_LE:
 1677               	.LFB95:
  36:lib/lufa/LUFA/Drivers/USB/Core/AVR8/Template/Template_Endpoint_RW.c **** 	uint8_t* DataStream      = ((uint8_t*)Buffer + TEMPLATE_BUFFER_OFFSET(Length));
 1678               		.loc 3 36 0
 1679               		.cfi_startproc
 1680               	.LVL196:
 1681 0000 CF92      		push r12
 1682               	.LCFI76:
 1683               		.cfi_def_cfa_offset 3
 1684               		.cfi_offset 12, -2
 1685 0002 DF92      		push r13
 1686               	.LCFI77:
 1687               		.cfi_def_cfa_offset 4
 1688               		.cfi_offset 13, -3
 1689 0004 EF92      		push r14
 1690               	.LCFI78:
 1691               		.cfi_def_cfa_offset 5
 1692               		.cfi_offset 14, -4
 1693 0006 FF92      		push r15
 1694               	.LCFI79:
 1695               		.cfi_def_cfa_offset 6
 1696               		.cfi_offset 15, -5
 1697 0008 0F93      		push r16
 1698               	.LCFI80:
 1699               		.cfi_def_cfa_offset 7
 1700               		.cfi_offset 16, -6
 1701 000a 1F93      		push r17
 1702               	.LCFI81:
 1703               		.cfi_def_cfa_offset 8
 1704               		.cfi_offset 17, -7
 1705 000c CF93      		push r28
 1706               	.LCFI82:
 1707               		.cfi_def_cfa_offset 9
 1708               		.cfi_offset 28, -8
 1709 000e DF93      		push r29
 1710               	.LCFI83:
 1711               		.cfi_def_cfa_offset 10
 1712               		.cfi_offset 29, -9
 1713               	/* prologue: function */
 1714               	/* frame size = 0 */
 1715               	/* stack size = 8 */
 1716               	.L__stack_usage = 8
 1717 0010 EC01      		movw r28,r24
 1718 0012 8B01      		movw r16,r22
 1719 0014 7A01      		movw r14,r20
 1720               	.LVL197:
  41:lib/lufa/LUFA/Drivers/USB/Core/AVR8/Template/Template_Endpoint_RW.c **** 	  return ErrorCode;
 1721               		.loc 3 41 0
 1722 0016 0E94 0000 		call Endpoint_WaitUntilReady
 1723               	.LVL198:
 1724 001a 8111      		cpse r24,__zero_reg__
 1725 001c 00C0      		rjmp .L135
  44:lib/lufa/LUFA/Drivers/USB/Core/AVR8/Template/Template_Endpoint_RW.c **** 	{
 1726               		.loc 3 44 0
 1727 001e E114      		cp r14,__zero_reg__
 1728 0020 F104      		cpc r15,__zero_reg__
 1729 0022 01F0      		breq .L136
  46:lib/lufa/LUFA/Drivers/USB/Core/AVR8/Template/Template_Endpoint_RW.c **** 		TEMPLATE_BUFFER_MOVE(DataStream, *BytesProcessed);
 1730               		.loc 3 46 0
 1731 0024 F701      		movw r30,r14
 1732 0026 8081      		ld r24,Z
 1733 0028 9181      		ldd r25,Z+1
 1734               	.LVL199:
 1735 002a 081B      		sub r16,r24
 1736 002c 190B      		sbc r17,r25
 1737               	.LVL200:
  47:lib/lufa/LUFA/Drivers/USB/Core/AVR8/Template/Template_Endpoint_RW.c **** 	}
 1738               		.loc 3 47 0
 1739 002e C80F      		add r28,r24
 1740 0030 D91F      		adc r29,r25
 1741               	.LVL201:
 1742               	.L136:
  37:lib/lufa/LUFA/Drivers/USB/Core/AVR8/Template/Template_Endpoint_RW.c **** 	uint16_t BytesInTransfer = 0;
 1743               		.loc 3 37 0
 1744 0032 C12C      		mov r12,__zero_reg__
 1745 0034 D12C      		mov r13,__zero_reg__
 1746               	.LVL202:
 1747               	.L137:
  50:lib/lufa/LUFA/Drivers/USB/Core/AVR8/Template/Template_Endpoint_RW.c **** 	{
 1748               		.loc 3 50 0
 1749 0036 0115      		cp r16,__zero_reg__
 1750 0038 1105      		cpc r17,__zero_reg__
 1751 003a 01F0      		breq .L145
 1752               	.LBB330:
 1753               	.LBB331:
 360:lib/lufa/LUFA/Drivers/USB/Core/AVR8/../AVR8/../AVR8/Endpoint_AVR8.h **** 			}
 1754               		.loc 2 360 0
 1755 003c 8091 E800 		lds r24,232
 1756               	.LBE331:
 1757               	.LBE330:
  52:lib/lufa/LUFA/Drivers/USB/Core/AVR8/Template/Template_Endpoint_RW.c **** 		{
 1758               		.loc 3 52 0
 1759 0040 85FD      		sbrc r24,5
 1760 0042 00C0      		rjmp .L138
 1761               	.LBB332:
 1762               	.LBB333:
 471:lib/lufa/LUFA/Drivers/USB/Core/AVR8/../AVR8/../AVR8/Endpoint_AVR8.h **** 				#else
 1763               		.loc 2 471 0
 1764 0044 8091 E800 		lds r24,232
 1765 0048 8B77      		andi r24,lo8(123)
 1766 004a 8093 E800 		sts 232,r24
 1767               	.LBE333:
 1768               	.LBE332:
  60:lib/lufa/LUFA/Drivers/USB/Core/AVR8/Template/Template_Endpoint_RW.c **** 			{
 1769               		.loc 3 60 0
 1770 004e E114      		cp r14,__zero_reg__
 1771 0050 F104      		cpc r15,__zero_reg__
 1772 0052 01F0      		breq .L139
  62:lib/lufa/LUFA/Drivers/USB/Core/AVR8/Template/Template_Endpoint_RW.c **** 				return ENDPOINT_RWSTREAM_IncompleteTransfer;
 1773               		.loc 3 62 0
 1774 0054 F701      		movw r30,r14
 1775 0056 8081      		ld r24,Z
 1776 0058 9181      		ldd r25,Z+1
 1777 005a C80E      		add r12,r24
 1778 005c D91E      		adc r13,r25
 1779               	.LVL203:
 1780 005e D182      		std Z+1,r13
 1781 0060 C082      		st Z,r12
  63:lib/lufa/LUFA/Drivers/USB/Core/AVR8/Template/Template_Endpoint_RW.c **** 			}
 1782               		.loc 3 63 0
 1783 0062 85E0      		ldi r24,lo8(5)
 1784 0064 00C0      		rjmp .L135
 1785               	.LVL204:
 1786               	.L139:
  66:lib/lufa/LUFA/Drivers/USB/Core/AVR8/Template/Template_Endpoint_RW.c **** 			  return ErrorCode;
 1787               		.loc 3 66 0
 1788 0066 0E94 0000 		call Endpoint_WaitUntilReady
 1789               	.LVL205:
 1790 006a 8823      		tst r24
 1791 006c 01F0      		breq .L137
 1792 006e 00C0      		rjmp .L135
 1793               	.LVL206:
 1794               	.L138:
 1795               	.LBB334:
 1796               	.LBB335:
 542:lib/lufa/LUFA/Drivers/USB/Core/AVR8/../AVR8/../AVR8/Endpoint_AVR8.h **** 			}
 1797               		.loc 2 542 0
 1798 0070 6091 F100 		lds r22,241
 1799               	.LBE335:
 1800               	.LBE334:
  71:lib/lufa/LUFA/Drivers/USB/Core/AVR8/Template/Template_Endpoint_RW.c **** 			TEMPLATE_BUFFER_MOVE(DataStream, 1);
 1801               		.loc 3 71 0
 1802 0074 CE01      		movw r24,r28
 1803 0076 0E94 0000 		call eeprom_update_byte
 1804               	.LVL207:
  72:lib/lufa/LUFA/Drivers/USB/Core/AVR8/Template/Template_Endpoint_RW.c **** 			Length--;
 1805               		.loc 3 72 0
 1806 007a 2196      		adiw r28,1
 1807               	.LVL208:
  73:lib/lufa/LUFA/Drivers/USB/Core/AVR8/Template/Template_Endpoint_RW.c **** 			BytesInTransfer++;
 1808               		.loc 3 73 0
 1809 007c 0150      		subi r16,1
 1810 007e 1109      		sbc r17,__zero_reg__
 1811               	.LVL209:
  74:lib/lufa/LUFA/Drivers/USB/Core/AVR8/Template/Template_Endpoint_RW.c **** 		}
 1812               		.loc 3 74 0
 1813 0080 FFEF      		ldi r31,-1
 1814 0082 CF1A      		sub r12,r31
 1815 0084 DF0A      		sbc r13,r31
 1816               	.LVL210:
 1817 0086 00C0      		rjmp .L137
 1818               	.L145:
  78:lib/lufa/LUFA/Drivers/USB/Core/AVR8/Template/Template_Endpoint_RW.c **** }
 1819               		.loc 3 78 0
 1820 0088 80E0      		ldi r24,0
 1821               	.LVL211:
 1822               	.L135:
 1823               	/* epilogue start */
 1824               		.loc 3 79 0
 1825 008a DF91      		pop r29
 1826 008c CF91      		pop r28
 1827               	.LVL212:
 1828 008e 1F91      		pop r17
 1829 0090 0F91      		pop r16
 1830               	.LVL213:
 1831 0092 FF90      		pop r15
 1832 0094 EF90      		pop r14
 1833               	.LVL214:
 1834 0096 DF90      		pop r13
 1835 0098 CF90      		pop r12
 1836 009a 0895      		ret
 1837               		.cfi_endproc
 1838               	.LFE95:
 1840               		.section	.text.Endpoint_Read_EStream_BE,"ax",@progbits
 1841               	.global	Endpoint_Read_EStream_BE
 1843               	Endpoint_Read_EStream_BE:
 1844               	.LFB96:
  36:lib/lufa/LUFA/Drivers/USB/Core/AVR8/Template/Template_Endpoint_RW.c **** 	uint8_t* DataStream      = ((uint8_t*)Buffer + TEMPLATE_BUFFER_OFFSET(Length));
 1845               		.loc 3 36 0
 1846               		.cfi_startproc
 1847               	.LVL215:
 1848 0000 CF92      		push r12
 1849               	.LCFI84:
 1850               		.cfi_def_cfa_offset 3
 1851               		.cfi_offset 12, -2
 1852 0002 DF92      		push r13
 1853               	.LCFI85:
 1854               		.cfi_def_cfa_offset 4
 1855               		.cfi_offset 13, -3
 1856 0004 EF92      		push r14
 1857               	.LCFI86:
 1858               		.cfi_def_cfa_offset 5
 1859               		.cfi_offset 14, -4
 1860 0006 FF92      		push r15
 1861               	.LCFI87:
 1862               		.cfi_def_cfa_offset 6
 1863               		.cfi_offset 15, -5
 1864 0008 0F93      		push r16
 1865               	.LCFI88:
 1866               		.cfi_def_cfa_offset 7
 1867               		.cfi_offset 16, -6
 1868 000a 1F93      		push r17
 1869               	.LCFI89:
 1870               		.cfi_def_cfa_offset 8
 1871               		.cfi_offset 17, -7
 1872 000c CF93      		push r28
 1873               	.LCFI90:
 1874               		.cfi_def_cfa_offset 9
 1875               		.cfi_offset 28, -8
 1876 000e DF93      		push r29
 1877               	.LCFI91:
 1878               		.cfi_def_cfa_offset 10
 1879               		.cfi_offset 29, -9
 1880               	/* prologue: function */
 1881               	/* frame size = 0 */
 1882               	/* stack size = 8 */
 1883               	.L__stack_usage = 8
 1884 0010 EC01      		movw r28,r24
 1885 0012 8B01      		movw r16,r22
 1886 0014 7A01      		movw r14,r20
 1887               	.LVL216:
  41:lib/lufa/LUFA/Drivers/USB/Core/AVR8/Template/Template_Endpoint_RW.c **** 	  return ErrorCode;
 1888               		.loc 3 41 0
 1889 0016 0E94 0000 		call Endpoint_WaitUntilReady
 1890               	.LVL217:
 1891 001a 8111      		cpse r24,__zero_reg__
 1892 001c 00C0      		rjmp .L147
  37:lib/lufa/LUFA/Drivers/USB/Core/AVR8/Template/Template_Endpoint_RW.c **** 	uint16_t BytesInTransfer = 0;
 1893               		.loc 3 37 0
 1894 001e C801      		movw r24,r16
 1895               	.LVL218:
 1896 0020 0197      		sbiw r24,1
 1897               	.LVL219:
 1898 0022 C80F      		add r28,r24
 1899 0024 D91F      		adc r29,r25
 1900               	.LVL220:
  44:lib/lufa/LUFA/Drivers/USB/Core/AVR8/Template/Template_Endpoint_RW.c **** 	{
 1901               		.loc 3 44 0
 1902 0026 E114      		cp r14,__zero_reg__
 1903 0028 F104      		cpc r15,__zero_reg__
 1904 002a 01F0      		breq .L148
  46:lib/lufa/LUFA/Drivers/USB/Core/AVR8/Template/Template_Endpoint_RW.c **** 		TEMPLATE_BUFFER_MOVE(DataStream, *BytesProcessed);
 1905               		.loc 3 46 0
 1906 002c F701      		movw r30,r14
 1907 002e 8081      		ld r24,Z
 1908 0030 9181      		ldd r25,Z+1
 1909               	.LVL221:
 1910 0032 081B      		sub r16,r24
 1911 0034 190B      		sbc r17,r25
 1912               	.LVL222:
  47:lib/lufa/LUFA/Drivers/USB/Core/AVR8/Template/Template_Endpoint_RW.c **** 	}
 1913               		.loc 3 47 0
 1914 0036 C81B      		sub r28,r24
 1915 0038 D90B      		sbc r29,r25
 1916               	.LVL223:
 1917               	.L148:
  36:lib/lufa/LUFA/Drivers/USB/Core/AVR8/Template/Template_Endpoint_RW.c **** 	uint8_t* DataStream      = ((uint8_t*)Buffer + TEMPLATE_BUFFER_OFFSET(Length));
 1918               		.loc 3 36 0
 1919 003a C12C      		mov r12,__zero_reg__
 1920 003c D12C      		mov r13,__zero_reg__
 1921               	.LVL224:
 1922               	.L149:
  50:lib/lufa/LUFA/Drivers/USB/Core/AVR8/Template/Template_Endpoint_RW.c **** 	{
 1923               		.loc 3 50 0
 1924 003e 0115      		cp r16,__zero_reg__
 1925 0040 1105      		cpc r17,__zero_reg__
 1926 0042 01F0      		breq .L159
 1927               	.LBB336:
 1928               	.LBB337:
 360:lib/lufa/LUFA/Drivers/USB/Core/AVR8/../AVR8/../AVR8/Endpoint_AVR8.h **** 			}
 1929               		.loc 2 360 0
 1930 0044 8091 E800 		lds r24,232
 1931               	.LBE337:
 1932               	.LBE336:
  52:lib/lufa/LUFA/Drivers/USB/Core/AVR8/Template/Template_Endpoint_RW.c **** 		{
 1933               		.loc 3 52 0
 1934 0048 85FD      		sbrc r24,5
 1935 004a 00C0      		rjmp .L150
 1936               	.LBB338:
 1937               	.LBB339:
 471:lib/lufa/LUFA/Drivers/USB/Core/AVR8/../AVR8/../AVR8/Endpoint_AVR8.h **** 				#else
 1938               		.loc 2 471 0
 1939 004c 8091 E800 		lds r24,232
 1940 0050 8B77      		andi r24,lo8(123)
 1941 0052 8093 E800 		sts 232,r24
 1942               	.LBE339:
 1943               	.LBE338:
  60:lib/lufa/LUFA/Drivers/USB/Core/AVR8/Template/Template_Endpoint_RW.c **** 			{
 1944               		.loc 3 60 0
 1945 0056 E114      		cp r14,__zero_reg__
 1946 0058 F104      		cpc r15,__zero_reg__
 1947 005a 01F0      		breq .L151
  62:lib/lufa/LUFA/Drivers/USB/Core/AVR8/Template/Template_Endpoint_RW.c **** 				return ENDPOINT_RWSTREAM_IncompleteTransfer;
 1948               		.loc 3 62 0
 1949 005c F701      		movw r30,r14
 1950 005e 8081      		ld r24,Z
 1951 0060 9181      		ldd r25,Z+1
 1952 0062 C80E      		add r12,r24
 1953 0064 D91E      		adc r13,r25
 1954               	.LVL225:
 1955 0066 D182      		std Z+1,r13
 1956 0068 C082      		st Z,r12
  63:lib/lufa/LUFA/Drivers/USB/Core/AVR8/Template/Template_Endpoint_RW.c **** 			}
 1957               		.loc 3 63 0
 1958 006a 85E0      		ldi r24,lo8(5)
 1959 006c 00C0      		rjmp .L147
 1960               	.LVL226:
 1961               	.L151:
  66:lib/lufa/LUFA/Drivers/USB/Core/AVR8/Template/Template_Endpoint_RW.c **** 			  return ErrorCode;
 1962               		.loc 3 66 0
 1963 006e 0E94 0000 		call Endpoint_WaitUntilReady
 1964               	.LVL227:
 1965 0072 8823      		tst r24
 1966 0074 01F0      		breq .L149
 1967 0076 00C0      		rjmp .L147
 1968               	.LVL228:
 1969               	.L150:
 1970               	.LBB340:
 1971               	.LBB341:
 542:lib/lufa/LUFA/Drivers/USB/Core/AVR8/../AVR8/../AVR8/Endpoint_AVR8.h **** 			}
 1972               		.loc 2 542 0
 1973 0078 6091 F100 		lds r22,241
 1974               	.LBE341:
 1975               	.LBE340:
  71:lib/lufa/LUFA/Drivers/USB/Core/AVR8/Template/Template_Endpoint_RW.c **** 			TEMPLATE_BUFFER_MOVE(DataStream, 1);
 1976               		.loc 3 71 0
 1977 007c CE01      		movw r24,r28
 1978 007e 0E94 0000 		call eeprom_update_byte
 1979               	.LVL229:
  72:lib/lufa/LUFA/Drivers/USB/Core/AVR8/Template/Template_Endpoint_RW.c **** 			Length--;
 1980               		.loc 3 72 0
 1981 0082 2197      		sbiw r28,1
 1982               	.LVL230:
  73:lib/lufa/LUFA/Drivers/USB/Core/AVR8/Template/Template_Endpoint_RW.c **** 			BytesInTransfer++;
 1983               		.loc 3 73 0
 1984 0084 0150      		subi r16,1
 1985 0086 1109      		sbc r17,__zero_reg__
 1986               	.LVL231:
  74:lib/lufa/LUFA/Drivers/USB/Core/AVR8/Template/Template_Endpoint_RW.c **** 		}
 1987               		.loc 3 74 0
 1988 0088 FFEF      		ldi r31,-1
 1989 008a CF1A      		sub r12,r31
 1990 008c DF0A      		sbc r13,r31
 1991               	.LVL232:
 1992 008e 00C0      		rjmp .L149
 1993               	.L159:
  78:lib/lufa/LUFA/Drivers/USB/Core/AVR8/Template/Template_Endpoint_RW.c **** }
 1994               		.loc 3 78 0
 1995 0090 80E0      		ldi r24,0
 1996               	.LVL233:
 1997               	.L147:
 1998               	/* epilogue start */
 1999               		.loc 3 79 0
 2000 0092 DF91      		pop r29
 2001 0094 CF91      		pop r28
 2002 0096 1F91      		pop r17
 2003 0098 0F91      		pop r16
 2004               	.LVL234:
 2005 009a FF90      		pop r15
 2006 009c EF90      		pop r14
 2007               	.LVL235:
 2008 009e DF90      		pop r13
 2009 00a0 CF90      		pop r12
 2010 00a2 0895      		ret
 2011               		.cfi_endproc
 2012               	.LFE96:
 2014               		.section	.text.Endpoint_Write_Control_Stream_LE,"ax",@progbits
 2015               	.global	Endpoint_Write_Control_Stream_LE
 2017               	Endpoint_Write_Control_Stream_LE:
 2018               	.LFB97:
 2019               		.file 4 "lib/lufa/LUFA/Drivers/USB/Core/AVR8/Template/Template_Endpoint_Control_W.c"
   1:lib/lufa/LUFA/Drivers/USB/Core/AVR8/Template/Template_Endpoint_Control_W.c **** /*
   2:lib/lufa/LUFA/Drivers/USB/Core/AVR8/Template/Template_Endpoint_Control_W.c ****              LUFA Library
   3:lib/lufa/LUFA/Drivers/USB/Core/AVR8/Template/Template_Endpoint_Control_W.c ****      Copyright (C) Dean Camera, 2017.
   4:lib/lufa/LUFA/Drivers/USB/Core/AVR8/Template/Template_Endpoint_Control_W.c **** 
   5:lib/lufa/LUFA/Drivers/USB/Core/AVR8/Template/Template_Endpoint_Control_W.c ****   dean [at] fourwalledcubicle [dot] com
   6:lib/lufa/LUFA/Drivers/USB/Core/AVR8/Template/Template_Endpoint_Control_W.c ****            www.lufa-lib.org
   7:lib/lufa/LUFA/Drivers/USB/Core/AVR8/Template/Template_Endpoint_Control_W.c **** */
   8:lib/lufa/LUFA/Drivers/USB/Core/AVR8/Template/Template_Endpoint_Control_W.c **** 
   9:lib/lufa/LUFA/Drivers/USB/Core/AVR8/Template/Template_Endpoint_Control_W.c **** /*
  10:lib/lufa/LUFA/Drivers/USB/Core/AVR8/Template/Template_Endpoint_Control_W.c ****   Copyright 2017  Dean Camera (dean [at] fourwalledcubicle [dot] com)
  11:lib/lufa/LUFA/Drivers/USB/Core/AVR8/Template/Template_Endpoint_Control_W.c **** 
  12:lib/lufa/LUFA/Drivers/USB/Core/AVR8/Template/Template_Endpoint_Control_W.c ****   Permission to use, copy, modify, distribute, and sell this
  13:lib/lufa/LUFA/Drivers/USB/Core/AVR8/Template/Template_Endpoint_Control_W.c ****   software and its documentation for any purpose is hereby granted
  14:lib/lufa/LUFA/Drivers/USB/Core/AVR8/Template/Template_Endpoint_Control_W.c ****   without fee, provided that the above copyright notice appear in
  15:lib/lufa/LUFA/Drivers/USB/Core/AVR8/Template/Template_Endpoint_Control_W.c ****   all copies and that both that the copyright notice and this
  16:lib/lufa/LUFA/Drivers/USB/Core/AVR8/Template/Template_Endpoint_Control_W.c ****   permission notice and warranty disclaimer appear in supporting
  17:lib/lufa/LUFA/Drivers/USB/Core/AVR8/Template/Template_Endpoint_Control_W.c ****   documentation, and that the name of the author not be used in
  18:lib/lufa/LUFA/Drivers/USB/Core/AVR8/Template/Template_Endpoint_Control_W.c ****   advertising or publicity pertaining to distribution of the
  19:lib/lufa/LUFA/Drivers/USB/Core/AVR8/Template/Template_Endpoint_Control_W.c ****   software without specific, written prior permission.
  20:lib/lufa/LUFA/Drivers/USB/Core/AVR8/Template/Template_Endpoint_Control_W.c **** 
  21:lib/lufa/LUFA/Drivers/USB/Core/AVR8/Template/Template_Endpoint_Control_W.c ****   The author disclaims all warranties with regard to this
  22:lib/lufa/LUFA/Drivers/USB/Core/AVR8/Template/Template_Endpoint_Control_W.c ****   software, including all implied warranties of merchantability
  23:lib/lufa/LUFA/Drivers/USB/Core/AVR8/Template/Template_Endpoint_Control_W.c ****   and fitness.  In no event shall the author be liable for any
  24:lib/lufa/LUFA/Drivers/USB/Core/AVR8/Template/Template_Endpoint_Control_W.c ****   special, indirect or consequential damages or any damages
  25:lib/lufa/LUFA/Drivers/USB/Core/AVR8/Template/Template_Endpoint_Control_W.c ****   whatsoever resulting from loss of use, data or profits, whether
  26:lib/lufa/LUFA/Drivers/USB/Core/AVR8/Template/Template_Endpoint_Control_W.c ****   in an action of contract, negligence or other tortious action,
  27:lib/lufa/LUFA/Drivers/USB/Core/AVR8/Template/Template_Endpoint_Control_W.c ****   arising out of or in connection with the use or performance of
  28:lib/lufa/LUFA/Drivers/USB/Core/AVR8/Template/Template_Endpoint_Control_W.c ****   this software.
  29:lib/lufa/LUFA/Drivers/USB/Core/AVR8/Template/Template_Endpoint_Control_W.c **** */
  30:lib/lufa/LUFA/Drivers/USB/Core/AVR8/Template/Template_Endpoint_Control_W.c **** 
  31:lib/lufa/LUFA/Drivers/USB/Core/AVR8/Template/Template_Endpoint_Control_W.c **** #if defined(TEMPLATE_FUNC_NAME)
  32:lib/lufa/LUFA/Drivers/USB/Core/AVR8/Template/Template_Endpoint_Control_W.c **** 
  33:lib/lufa/LUFA/Drivers/USB/Core/AVR8/Template/Template_Endpoint_Control_W.c **** uint8_t TEMPLATE_FUNC_NAME (const void* const Buffer,
  34:lib/lufa/LUFA/Drivers/USB/Core/AVR8/Template/Template_Endpoint_Control_W.c ****                             uint16_t Length)
  35:lib/lufa/LUFA/Drivers/USB/Core/AVR8/Template/Template_Endpoint_Control_W.c **** {
 2020               		.loc 4 35 0
 2021               		.cfi_startproc
 2022               	.LVL236:
 2023               	/* prologue: function */
 2024               	/* frame size = 0 */
 2025               	/* stack size = 0 */
 2026               	.L__stack_usage = 0
  36:lib/lufa/LUFA/Drivers/USB/Core/AVR8/Template/Template_Endpoint_Control_W.c **** 	uint8_t* DataStream     = ((uint8_t*)Buffer + TEMPLATE_BUFFER_OFFSET(Length));
  37:lib/lufa/LUFA/Drivers/USB/Core/AVR8/Template/Template_Endpoint_Control_W.c **** 	bool     LastPacketFull = false;
  38:lib/lufa/LUFA/Drivers/USB/Core/AVR8/Template/Template_Endpoint_Control_W.c **** 
  39:lib/lufa/LUFA/Drivers/USB/Core/AVR8/Template/Template_Endpoint_Control_W.c **** 	if (Length > USB_ControlRequest.wLength)
 2027               		.loc 4 39 0
 2028 0000 2091 0000 		lds r18,USB_ControlRequest+6
 2029 0004 3091 0000 		lds r19,USB_ControlRequest+6+1
 2030 0008 2617      		cp r18,r22
 2031 000a 3707      		cpc r19,r23
 2032 000c 00F0      		brlo .L172
  40:lib/lufa/LUFA/Drivers/USB/Core/AVR8/Template/Template_Endpoint_Control_W.c **** 	  Length = USB_ControlRequest.wLength;
  41:lib/lufa/LUFA/Drivers/USB/Core/AVR8/Template/Template_Endpoint_Control_W.c **** 	else if (!(Length))
 2033               		.loc 4 41 0
 2034 000e 6115      		cp r22,__zero_reg__
 2035 0010 7105      		cpc r23,__zero_reg__
 2036 0012 01F4      		brne .L161
 2037               	.LBB342:
 2038               	.LBB343:
 456:lib/lufa/LUFA/Drivers/USB/Core/AVR8/../AVR8/../AVR8/Endpoint_AVR8.h **** 				#else
 2039               		.loc 2 456 0
 2040 0014 2091 E800 		lds r18,232
 2041 0018 2E77      		andi r18,lo8(126)
 2042 001a 2093 E800 		sts 232,r18
 2043 001e 00C0      		rjmp .L161
 2044               	.L172:
 2045               	.LBE343:
 2046               	.LBE342:
 2047 0020 B901      		movw r22,r18
 2048               	.LVL237:
 2049               	.L161:
 2050 0022 FC01      		movw r30,r24
 2051 0024 20E0      		ldi r18,0
 2052               	.LVL238:
 2053               	.L165:
  42:lib/lufa/LUFA/Drivers/USB/Core/AVR8/Template/Template_Endpoint_Control_W.c **** 	  Endpoint_ClearIN();
  43:lib/lufa/LUFA/Drivers/USB/Core/AVR8/Template/Template_Endpoint_Control_W.c **** 
  44:lib/lufa/LUFA/Drivers/USB/Core/AVR8/Template/Template_Endpoint_Control_W.c **** 	while (Length || LastPacketFull)
 2054               		.loc 4 44 0
 2055 0026 6115      		cp r22,__zero_reg__
 2056 0028 7105      		cpc r23,__zero_reg__
 2057 002a 01F0      		breq .L188
 2058               	.L170:
 2059               	.LBB344:
  45:lib/lufa/LUFA/Drivers/USB/Core/AVR8/Template/Template_Endpoint_Control_W.c **** 	{
  46:lib/lufa/LUFA/Drivers/USB/Core/AVR8/Template/Template_Endpoint_Control_W.c **** 		uint8_t USB_DeviceState_LCL = USB_DeviceState;
 2060               		.loc 4 46 0
 2061 002c 8091 0000 		lds r24,USB_DeviceState
 2062               	.LVL239:
  47:lib/lufa/LUFA/Drivers/USB/Core/AVR8/Template/Template_Endpoint_Control_W.c **** 
  48:lib/lufa/LUFA/Drivers/USB/Core/AVR8/Template/Template_Endpoint_Control_W.c **** 		if (USB_DeviceState_LCL == DEVICE_STATE_Unattached)
 2063               		.loc 4 48 0
 2064 0030 8823      		tst r24
 2065 0032 01F0      		breq .L176
  49:lib/lufa/LUFA/Drivers/USB/Core/AVR8/Template/Template_Endpoint_Control_W.c **** 		  return ENDPOINT_RWCSTREAM_DeviceDisconnected;
  50:lib/lufa/LUFA/Drivers/USB/Core/AVR8/Template/Template_Endpoint_Control_W.c **** 		else if (USB_DeviceState_LCL == DEVICE_STATE_Suspended)
 2066               		.loc 4 50 0
 2067 0034 8530      		cpi r24,lo8(5)
 2068 0036 01F0      		breq .L177
 2069               	.LBB345:
 2070               	.LBB346:
 431:lib/lufa/LUFA/Drivers/USB/Core/AVR8/../AVR8/../AVR8/Endpoint_AVR8.h **** 			}
 2071               		.loc 2 431 0
 2072 0038 8091 E800 		lds r24,232
 2073               	.LVL240:
 2074               	.LBE346:
 2075               	.LBE345:
  51:lib/lufa/LUFA/Drivers/USB/Core/AVR8/Template/Template_Endpoint_Control_W.c **** 		  return ENDPOINT_RWCSTREAM_BusSuspended;
  52:lib/lufa/LUFA/Drivers/USB/Core/AVR8/Template/Template_Endpoint_Control_W.c **** 		else if (Endpoint_IsSETUPReceived())
 2076               		.loc 4 52 0
 2077 003c 83FD      		sbrc r24,3
 2078 003e 00C0      		rjmp .L178
 2079               	.LBB347:
 2080               	.LBB348:
 419:lib/lufa/LUFA/Drivers/USB/Core/AVR8/../AVR8/../AVR8/Endpoint_AVR8.h **** 			}
 2081               		.loc 2 419 0
 2082 0040 8091 E800 		lds r24,232
 2083               	.LBE348:
 2084               	.LBE347:
  53:lib/lufa/LUFA/Drivers/USB/Core/AVR8/Template/Template_Endpoint_Control_W.c **** 		  return ENDPOINT_RWCSTREAM_HostAborted;
  54:lib/lufa/LUFA/Drivers/USB/Core/AVR8/Template/Template_Endpoint_Control_W.c **** 		else if (Endpoint_IsOUTReceived())
 2085               		.loc 4 54 0
 2086 0044 82FD      		sbrc r24,2
 2087 0046 00C0      		rjmp .L184
 2088               	.LBB349:
 2089               	.LBB350:
 407:lib/lufa/LUFA/Drivers/USB/Core/AVR8/../AVR8/../AVR8/Endpoint_AVR8.h **** 			}
 2090               		.loc 2 407 0
 2091 0048 8091 E800 		lds r24,232
 2092               	.LBE350:
 2093               	.LBE349:
  55:lib/lufa/LUFA/Drivers/USB/Core/AVR8/Template/Template_Endpoint_Control_W.c **** 		  break;
  56:lib/lufa/LUFA/Drivers/USB/Core/AVR8/Template/Template_Endpoint_Control_W.c **** 
  57:lib/lufa/LUFA/Drivers/USB/Core/AVR8/Template/Template_Endpoint_Control_W.c **** 		if (Endpoint_IsINReady())
 2094               		.loc 4 57 0
 2095 004c 80FF      		sbrs r24,0
 2096 004e 00C0      		rjmp .L165
 2097               	.LBB351:
 2098               	.LBB352:
 2099               	.LBB353:
 227:lib/lufa/LUFA/Drivers/USB/Core/AVR8/../AVR8/../AVR8/Endpoint_AVR8.h **** 				#elif defined(USB_SERIES_2_AVR)
 2100               		.loc 2 227 0
 2101 0050 2091 F300 		lds r18,243
 2102               	.LVL241:
 2103 0054 8091 F200 		lds r24,242
 2104 0058 90E0      		ldi r25,0
 2105 005a 922B      		or r25,r18
 2106               	.L166:
 2107               	.LVL242:
 2108               	.LBE353:
 2109               	.LBE352:
  58:lib/lufa/LUFA/Drivers/USB/Core/AVR8/Template/Template_Endpoint_Control_W.c **** 		{
  59:lib/lufa/LUFA/Drivers/USB/Core/AVR8/Template/Template_Endpoint_Control_W.c **** 			uint16_t BytesInEndpoint = Endpoint_BytesInEndpoint();
  60:lib/lufa/LUFA/Drivers/USB/Core/AVR8/Template/Template_Endpoint_Control_W.c **** 
  61:lib/lufa/LUFA/Drivers/USB/Core/AVR8/Template/Template_Endpoint_Control_W.c **** 			while (Length && (BytesInEndpoint < USB_Device_ControlEndpointSize))
 2110               		.loc 4 61 0
 2111 005c 6115      		cp r22,__zero_reg__
 2112 005e 7105      		cpc r23,__zero_reg__
 2113 0060 01F0      		breq .L167
 2114               		.loc 4 61 0 is_stmt 0 discriminator 1
 2115 0062 8830      		cpi r24,8
 2116 0064 9105      		cpc r25,__zero_reg__
 2117 0066 00F4      		brsh .L167
  62:lib/lufa/LUFA/Drivers/USB/Core/AVR8/Template/Template_Endpoint_Control_W.c **** 			{
  63:lib/lufa/LUFA/Drivers/USB/Core/AVR8/Template/Template_Endpoint_Control_W.c **** 				TEMPLATE_TRANSFER_BYTE(DataStream);
 2118               		.loc 4 63 0 is_stmt 1
 2119 0068 2191      		ld r18,Z+
 2120               	.LVL243:
 2121               	.LBB354:
 2122               	.LBB355:
 554:lib/lufa/LUFA/Drivers/USB/Core/AVR8/../AVR8/../AVR8/Endpoint_AVR8.h **** 			}
 2123               		.loc 2 554 0
 2124 006a 2093 F100 		sts 241,r18
 2125               	.LVL244:
 2126               	.LBE355:
 2127               	.LBE354:
  64:lib/lufa/LUFA/Drivers/USB/Core/AVR8/Template/Template_Endpoint_Control_W.c **** 				TEMPLATE_BUFFER_MOVE(DataStream, 1);
  65:lib/lufa/LUFA/Drivers/USB/Core/AVR8/Template/Template_Endpoint_Control_W.c **** 				Length--;
 2128               		.loc 4 65 0
 2129 006e 6150      		subi r22,1
 2130 0070 7109      		sbc r23,__zero_reg__
 2131               	.LVL245:
  66:lib/lufa/LUFA/Drivers/USB/Core/AVR8/Template/Template_Endpoint_Control_W.c **** 				BytesInEndpoint++;
 2132               		.loc 4 66 0
 2133 0072 0196      		adiw r24,1
 2134               	.LVL246:
 2135 0074 00C0      		rjmp .L166
 2136               	.L167:
  67:lib/lufa/LUFA/Drivers/USB/Core/AVR8/Template/Template_Endpoint_Control_W.c **** 			}
  68:lib/lufa/LUFA/Drivers/USB/Core/AVR8/Template/Template_Endpoint_Control_W.c **** 
  69:lib/lufa/LUFA/Drivers/USB/Core/AVR8/Template/Template_Endpoint_Control_W.c **** 			LastPacketFull = (BytesInEndpoint == USB_Device_ControlEndpointSize);
 2137               		.loc 4 69 0
 2138 0076 21E0      		ldi r18,lo8(1)
 2139 0078 0897      		sbiw r24,8
 2140 007a 01F0      		breq .L169
 2141 007c 20E0      		ldi r18,0
 2142               	.L169:
 2143               	.LVL247:
 2144               	.LBB356:
 2145               	.LBB357:
 456:lib/lufa/LUFA/Drivers/USB/Core/AVR8/../AVR8/../AVR8/Endpoint_AVR8.h **** 				#else
 2146               		.loc 2 456 0
 2147 007e 8091 E800 		lds r24,232
 2148               	.LVL248:
 2149 0082 8E77      		andi r24,lo8(126)
 2150 0084 8093 E800 		sts 232,r24
 2151 0088 00C0      		rjmp .L165
 2152               	.L188:
 2153               	.LBE357:
 2154               	.LBE356:
 2155               	.LBE351:
 2156               	.LBE344:
  44:lib/lufa/LUFA/Drivers/USB/Core/AVR8/Template/Template_Endpoint_Control_W.c **** 	{
 2157               		.loc 4 44 0 discriminator 1
 2158 008a 2111      		cpse r18,__zero_reg__
 2159 008c 00C0      		rjmp .L170
 2160 008e 00C0      		rjmp .L184
 2161               	.L171:
 2162               	.LBB358:
  70:lib/lufa/LUFA/Drivers/USB/Core/AVR8/Template/Template_Endpoint_Control_W.c **** 			Endpoint_ClearIN();
  71:lib/lufa/LUFA/Drivers/USB/Core/AVR8/Template/Template_Endpoint_Control_W.c **** 		}
  72:lib/lufa/LUFA/Drivers/USB/Core/AVR8/Template/Template_Endpoint_Control_W.c **** 	}
  73:lib/lufa/LUFA/Drivers/USB/Core/AVR8/Template/Template_Endpoint_Control_W.c **** 
  74:lib/lufa/LUFA/Drivers/USB/Core/AVR8/Template/Template_Endpoint_Control_W.c **** 	while (!(Endpoint_IsOUTReceived()))
  75:lib/lufa/LUFA/Drivers/USB/Core/AVR8/Template/Template_Endpoint_Control_W.c **** 	{
  76:lib/lufa/LUFA/Drivers/USB/Core/AVR8/Template/Template_Endpoint_Control_W.c **** 		uint8_t USB_DeviceState_LCL = USB_DeviceState;
 2163               		.loc 4 76 0
 2164 0090 8091 0000 		lds r24,USB_DeviceState
 2165               	.LVL249:
  77:lib/lufa/LUFA/Drivers/USB/Core/AVR8/Template/Template_Endpoint_Control_W.c **** 
  78:lib/lufa/LUFA/Drivers/USB/Core/AVR8/Template/Template_Endpoint_Control_W.c **** 		if (USB_DeviceState_LCL == DEVICE_STATE_Unattached)
 2166               		.loc 4 78 0
 2167 0094 8823      		tst r24
 2168 0096 01F0      		breq .L176
  79:lib/lufa/LUFA/Drivers/USB/Core/AVR8/Template/Template_Endpoint_Control_W.c **** 		  return ENDPOINT_RWCSTREAM_DeviceDisconnected;
  80:lib/lufa/LUFA/Drivers/USB/Core/AVR8/Template/Template_Endpoint_Control_W.c **** 		else if (USB_DeviceState_LCL == DEVICE_STATE_Suspended)
 2169               		.loc 4 80 0
 2170 0098 8530      		cpi r24,lo8(5)
 2171 009a 01F0      		breq .L177
 2172               	.LBB359:
 2173               	.LBB360:
 431:lib/lufa/LUFA/Drivers/USB/Core/AVR8/../AVR8/../AVR8/Endpoint_AVR8.h **** 			}
 2174               		.loc 2 431 0
 2175 009c 8091 E800 		lds r24,232
 2176               	.LVL250:
 2177               	.LBE360:
 2178               	.LBE359:
  81:lib/lufa/LUFA/Drivers/USB/Core/AVR8/Template/Template_Endpoint_Control_W.c **** 		  return ENDPOINT_RWCSTREAM_BusSuspended;
  82:lib/lufa/LUFA/Drivers/USB/Core/AVR8/Template/Template_Endpoint_Control_W.c **** 		else if (Endpoint_IsSETUPReceived())
 2179               		.loc 4 82 0
 2180 00a0 83FD      		sbrc r24,3
 2181 00a2 00C0      		rjmp .L178
 2182               	.L184:
 2183               	.LBE358:
 2184               	.LBB361:
 2185               	.LBB362:
 419:lib/lufa/LUFA/Drivers/USB/Core/AVR8/../AVR8/../AVR8/Endpoint_AVR8.h **** 			}
 2186               		.loc 2 419 0
 2187 00a4 8091 E800 		lds r24,232
 2188               	.LBE362:
 2189               	.LBE361:
  74:lib/lufa/LUFA/Drivers/USB/Core/AVR8/Template/Template_Endpoint_Control_W.c **** 	{
 2190               		.loc 4 74 0
 2191 00a8 82FF      		sbrs r24,2
 2192 00aa 00C0      		rjmp .L171
  83:lib/lufa/LUFA/Drivers/USB/Core/AVR8/Template/Template_Endpoint_Control_W.c **** 		  return ENDPOINT_RWCSTREAM_HostAborted;
  84:lib/lufa/LUFA/Drivers/USB/Core/AVR8/Template/Template_Endpoint_Control_W.c **** 	}
  85:lib/lufa/LUFA/Drivers/USB/Core/AVR8/Template/Template_Endpoint_Control_W.c **** 
  86:lib/lufa/LUFA/Drivers/USB/Core/AVR8/Template/Template_Endpoint_Control_W.c **** 	return ENDPOINT_RWCSTREAM_NoError;
 2193               		.loc 4 86 0
 2194 00ac 80E0      		ldi r24,0
 2195 00ae 0895      		ret
 2196               	.L176:
 2197               	.LBB363:
  49:lib/lufa/LUFA/Drivers/USB/Core/AVR8/Template/Template_Endpoint_Control_W.c **** 		else if (USB_DeviceState_LCL == DEVICE_STATE_Suspended)
 2198               		.loc 4 49 0
 2199 00b0 82E0      		ldi r24,lo8(2)
 2200 00b2 0895      		ret
 2201               	.L177:
  51:lib/lufa/LUFA/Drivers/USB/Core/AVR8/Template/Template_Endpoint_Control_W.c **** 		else if (Endpoint_IsSETUPReceived())
 2202               		.loc 4 51 0
 2203 00b4 83E0      		ldi r24,lo8(3)
 2204 00b6 0895      		ret
 2205               	.L178:
  53:lib/lufa/LUFA/Drivers/USB/Core/AVR8/Template/Template_Endpoint_Control_W.c **** 		else if (Endpoint_IsOUTReceived())
 2206               		.loc 4 53 0
 2207 00b8 81E0      		ldi r24,lo8(1)
 2208               	.LBE363:
  87:lib/lufa/LUFA/Drivers/USB/Core/AVR8/Template/Template_Endpoint_Control_W.c **** }
 2209               		.loc 4 87 0
 2210 00ba 0895      		ret
 2211               		.cfi_endproc
 2212               	.LFE97:
 2214               		.section	.text.Endpoint_Write_Control_Stream_BE,"ax",@progbits
 2215               	.global	Endpoint_Write_Control_Stream_BE
 2217               	Endpoint_Write_Control_Stream_BE:
 2218               	.LFB98:
  35:lib/lufa/LUFA/Drivers/USB/Core/AVR8/Template/Template_Endpoint_Control_W.c **** 	uint8_t* DataStream     = ((uint8_t*)Buffer + TEMPLATE_BUFFER_OFFSET(Length));
 2219               		.loc 4 35 0
 2220               		.cfi_startproc
 2221               	.LVL251:
 2222               	/* prologue: function */
 2223               	/* frame size = 0 */
 2224               	/* stack size = 0 */
 2225               	.L__stack_usage = 0
  36:lib/lufa/LUFA/Drivers/USB/Core/AVR8/Template/Template_Endpoint_Control_W.c **** 	bool     LastPacketFull = false;
 2226               		.loc 4 36 0
 2227 0000 9B01      		movw r18,r22
 2228 0002 2150      		subi r18,1
 2229 0004 3109      		sbc r19,__zero_reg__
 2230 0006 820F      		add r24,r18
 2231 0008 931F      		adc r25,r19
 2232               	.LVL252:
  39:lib/lufa/LUFA/Drivers/USB/Core/AVR8/Template/Template_Endpoint_Control_W.c **** 	  Length = USB_ControlRequest.wLength;
 2233               		.loc 4 39 0
 2234 000a 2091 0000 		lds r18,USB_ControlRequest+6
 2235 000e 3091 0000 		lds r19,USB_ControlRequest+6+1
 2236 0012 2617      		cp r18,r22
 2237 0014 3707      		cpc r19,r23
 2238 0016 00F0      		brlo .L201
  41:lib/lufa/LUFA/Drivers/USB/Core/AVR8/Template/Template_Endpoint_Control_W.c **** 	  Endpoint_ClearIN();
 2239               		.loc 4 41 0
 2240 0018 6115      		cp r22,__zero_reg__
 2241 001a 7105      		cpc r23,__zero_reg__
 2242 001c 01F4      		brne .L190
 2243               	.LBB364:
 2244               	.LBB365:
 456:lib/lufa/LUFA/Drivers/USB/Core/AVR8/../AVR8/../AVR8/Endpoint_AVR8.h **** 				#else
 2245               		.loc 2 456 0
 2246 001e 2091 E800 		lds r18,232
 2247 0022 2E77      		andi r18,lo8(126)
 2248 0024 2093 E800 		sts 232,r18
 2249 0028 00C0      		rjmp .L190
 2250               	.L201:
 2251               	.LBE365:
 2252               	.LBE364:
 2253 002a B901      		movw r22,r18
 2254               	.LVL253:
 2255               	.L190:
 2256 002c 40E0      		ldi r20,0
 2257               	.LVL254:
 2258               	.L194:
  44:lib/lufa/LUFA/Drivers/USB/Core/AVR8/Template/Template_Endpoint_Control_W.c **** 	{
 2259               		.loc 4 44 0
 2260 002e 6115      		cp r22,__zero_reg__
 2261 0030 7105      		cpc r23,__zero_reg__
 2262 0032 01F0      		breq .L217
 2263               	.L199:
 2264               	.LBB366:
  46:lib/lufa/LUFA/Drivers/USB/Core/AVR8/Template/Template_Endpoint_Control_W.c **** 
 2265               		.loc 4 46 0
 2266 0034 2091 0000 		lds r18,USB_DeviceState
 2267               	.LVL255:
  48:lib/lufa/LUFA/Drivers/USB/Core/AVR8/Template/Template_Endpoint_Control_W.c **** 		  return ENDPOINT_RWCSTREAM_DeviceDisconnected;
 2268               		.loc 4 48 0
 2269 0038 2223      		tst r18
 2270 003a 01F4      		brne .+2
 2271 003c 00C0      		rjmp .L205
  50:lib/lufa/LUFA/Drivers/USB/Core/AVR8/Template/Template_Endpoint_Control_W.c **** 		  return ENDPOINT_RWCSTREAM_BusSuspended;
 2272               		.loc 4 50 0
 2273 003e 2530      		cpi r18,lo8(5)
 2274 0040 01F4      		brne .+2
 2275 0042 00C0      		rjmp .L206
 2276               	.LBB367:
 2277               	.LBB368:
 431:lib/lufa/LUFA/Drivers/USB/Core/AVR8/../AVR8/../AVR8/Endpoint_AVR8.h **** 			}
 2278               		.loc 2 431 0
 2279 0044 2091 E800 		lds r18,232
 2280               	.LVL256:
 2281               	.LBE368:
 2282               	.LBE367:
  52:lib/lufa/LUFA/Drivers/USB/Core/AVR8/Template/Template_Endpoint_Control_W.c **** 		  return ENDPOINT_RWCSTREAM_HostAborted;
 2283               		.loc 4 52 0
 2284 0048 23FD      		sbrc r18,3
 2285 004a 00C0      		rjmp .L207
 2286               	.LBB369:
 2287               	.LBB370:
 419:lib/lufa/LUFA/Drivers/USB/Core/AVR8/../AVR8/../AVR8/Endpoint_AVR8.h **** 			}
 2288               		.loc 2 419 0
 2289 004c 2091 E800 		lds r18,232
 2290               	.LBE370:
 2291               	.LBE369:
  54:lib/lufa/LUFA/Drivers/USB/Core/AVR8/Template/Template_Endpoint_Control_W.c **** 		  break;
 2292               		.loc 4 54 0
 2293 0050 22FD      		sbrc r18,2
 2294 0052 00C0      		rjmp .L213
 2295               	.LBB371:
 2296               	.LBB372:
 407:lib/lufa/LUFA/Drivers/USB/Core/AVR8/../AVR8/../AVR8/Endpoint_AVR8.h **** 			}
 2297               		.loc 2 407 0
 2298 0054 2091 E800 		lds r18,232
 2299               	.LBE372:
 2300               	.LBE371:
  57:lib/lufa/LUFA/Drivers/USB/Core/AVR8/Template/Template_Endpoint_Control_W.c **** 		{
 2301               		.loc 4 57 0
 2302 0058 20FF      		sbrs r18,0
 2303 005a 00C0      		rjmp .L194
 2304               	.LBB373:
 2305               	.LBB374:
 2306               	.LBB375:
 227:lib/lufa/LUFA/Drivers/USB/Core/AVR8/../AVR8/../AVR8/Endpoint_AVR8.h **** 				#elif defined(USB_SERIES_2_AVR)
 2307               		.loc 2 227 0
 2308 005c 4091 F300 		lds r20,243
 2309               	.LVL257:
 2310 0060 2091 F200 		lds r18,242
 2311 0064 30E0      		ldi r19,0
 2312 0066 342B      		or r19,r20
 2313               	.L195:
 2314               	.LVL258:
 2315               	.LBE375:
 2316               	.LBE374:
  61:lib/lufa/LUFA/Drivers/USB/Core/AVR8/Template/Template_Endpoint_Control_W.c **** 			{
 2317               		.loc 4 61 0
 2318 0068 6115      		cp r22,__zero_reg__
 2319 006a 7105      		cpc r23,__zero_reg__
 2320 006c 01F0      		breq .L196
  61:lib/lufa/LUFA/Drivers/USB/Core/AVR8/Template/Template_Endpoint_Control_W.c **** 			{
 2321               		.loc 4 61 0 is_stmt 0 discriminator 1
 2322 006e 2830      		cpi r18,8
 2323 0070 3105      		cpc r19,__zero_reg__
 2324 0072 00F4      		brsh .L196
  63:lib/lufa/LUFA/Drivers/USB/Core/AVR8/Template/Template_Endpoint_Control_W.c **** 				TEMPLATE_BUFFER_MOVE(DataStream, 1);
 2325               		.loc 4 63 0 is_stmt 1
 2326 0074 FC01      		movw r30,r24
 2327 0076 4081      		ld r20,Z
 2328               	.LVL259:
 2329               	.LBB376:
 2330               	.LBB377:
 554:lib/lufa/LUFA/Drivers/USB/Core/AVR8/../AVR8/../AVR8/Endpoint_AVR8.h **** 			}
 2331               		.loc 2 554 0
 2332 0078 4093 F100 		sts 241,r20
 2333               	.LVL260:
 2334               	.LBE377:
 2335               	.LBE376:
  64:lib/lufa/LUFA/Drivers/USB/Core/AVR8/Template/Template_Endpoint_Control_W.c **** 				Length--;
 2336               		.loc 4 64 0
 2337 007c 0197      		sbiw r24,1
 2338               	.LVL261:
  65:lib/lufa/LUFA/Drivers/USB/Core/AVR8/Template/Template_Endpoint_Control_W.c **** 				BytesInEndpoint++;
 2339               		.loc 4 65 0
 2340 007e 6150      		subi r22,1
 2341 0080 7109      		sbc r23,__zero_reg__
 2342               	.LVL262:
  66:lib/lufa/LUFA/Drivers/USB/Core/AVR8/Template/Template_Endpoint_Control_W.c **** 			}
 2343               		.loc 4 66 0
 2344 0082 2F5F      		subi r18,-1
 2345 0084 3F4F      		sbci r19,-1
 2346               	.LVL263:
 2347 0086 00C0      		rjmp .L195
 2348               	.L196:
  69:lib/lufa/LUFA/Drivers/USB/Core/AVR8/Template/Template_Endpoint_Control_W.c **** 			Endpoint_ClearIN();
 2349               		.loc 4 69 0
 2350 0088 41E0      		ldi r20,lo8(1)
 2351 008a 2830      		cpi r18,8
 2352 008c 3105      		cpc r19,__zero_reg__
 2353 008e 01F0      		breq .L198
 2354 0090 40E0      		ldi r20,0
 2355               	.L198:
 2356               	.LVL264:
 2357               	.LBB378:
 2358               	.LBB379:
 456:lib/lufa/LUFA/Drivers/USB/Core/AVR8/../AVR8/../AVR8/Endpoint_AVR8.h **** 				#else
 2359               		.loc 2 456 0
 2360 0092 2091 E800 		lds r18,232
 2361               	.LVL265:
 2362 0096 2E77      		andi r18,lo8(126)
 2363 0098 2093 E800 		sts 232,r18
 2364 009c 00C0      		rjmp .L194
 2365               	.L217:
 2366               	.LBE379:
 2367               	.LBE378:
 2368               	.LBE373:
 2369               	.LBE366:
  44:lib/lufa/LUFA/Drivers/USB/Core/AVR8/Template/Template_Endpoint_Control_W.c **** 	{
 2370               		.loc 4 44 0 discriminator 1
 2371 009e 4111      		cpse r20,__zero_reg__
 2372 00a0 00C0      		rjmp .L199
 2373 00a2 00C0      		rjmp .L213
 2374               	.LVL266:
 2375               	.L200:
 2376               	.LBB380:
  76:lib/lufa/LUFA/Drivers/USB/Core/AVR8/Template/Template_Endpoint_Control_W.c **** 
 2377               		.loc 4 76 0
 2378 00a4 8091 0000 		lds r24,USB_DeviceState
 2379               	.LVL267:
  78:lib/lufa/LUFA/Drivers/USB/Core/AVR8/Template/Template_Endpoint_Control_W.c **** 		  return ENDPOINT_RWCSTREAM_DeviceDisconnected;
 2380               		.loc 4 78 0
 2381 00a8 8823      		tst r24
 2382 00aa 01F0      		breq .L205
  80:lib/lufa/LUFA/Drivers/USB/Core/AVR8/Template/Template_Endpoint_Control_W.c **** 		  return ENDPOINT_RWCSTREAM_BusSuspended;
 2383               		.loc 4 80 0
 2384 00ac 8530      		cpi r24,lo8(5)
 2385 00ae 01F0      		breq .L206
 2386               	.LBB381:
 2387               	.LBB382:
 431:lib/lufa/LUFA/Drivers/USB/Core/AVR8/../AVR8/../AVR8/Endpoint_AVR8.h **** 			}
 2388               		.loc 2 431 0
 2389 00b0 8091 E800 		lds r24,232
 2390               	.LVL268:
 2391               	.LBE382:
 2392               	.LBE381:
  82:lib/lufa/LUFA/Drivers/USB/Core/AVR8/Template/Template_Endpoint_Control_W.c **** 		  return ENDPOINT_RWCSTREAM_HostAborted;
 2393               		.loc 4 82 0
 2394 00b4 83FD      		sbrc r24,3
 2395 00b6 00C0      		rjmp .L207
 2396               	.L213:
 2397               	.LBE380:
 2398               	.LBB383:
 2399               	.LBB384:
 419:lib/lufa/LUFA/Drivers/USB/Core/AVR8/../AVR8/../AVR8/Endpoint_AVR8.h **** 			}
 2400               		.loc 2 419 0
 2401 00b8 8091 E800 		lds r24,232
 2402               	.LBE384:
 2403               	.LBE383:
  74:lib/lufa/LUFA/Drivers/USB/Core/AVR8/Template/Template_Endpoint_Control_W.c **** 	{
 2404               		.loc 4 74 0
 2405 00bc 82FF      		sbrs r24,2
 2406 00be 00C0      		rjmp .L200
  86:lib/lufa/LUFA/Drivers/USB/Core/AVR8/Template/Template_Endpoint_Control_W.c **** }
 2407               		.loc 4 86 0
 2408 00c0 80E0      		ldi r24,0
 2409 00c2 0895      		ret
 2410               	.L205:
 2411               	.LBB385:
  49:lib/lufa/LUFA/Drivers/USB/Core/AVR8/Template/Template_Endpoint_Control_W.c **** 		else if (USB_DeviceState_LCL == DEVICE_STATE_Suspended)
 2412               		.loc 4 49 0
 2413 00c4 82E0      		ldi r24,lo8(2)
 2414 00c6 0895      		ret
 2415               	.L206:
  51:lib/lufa/LUFA/Drivers/USB/Core/AVR8/Template/Template_Endpoint_Control_W.c **** 		else if (Endpoint_IsSETUPReceived())
 2416               		.loc 4 51 0
 2417 00c8 83E0      		ldi r24,lo8(3)
 2418 00ca 0895      		ret
 2419               	.L207:
  53:lib/lufa/LUFA/Drivers/USB/Core/AVR8/Template/Template_Endpoint_Control_W.c **** 		else if (Endpoint_IsOUTReceived())
 2420               		.loc 4 53 0
 2421 00cc 81E0      		ldi r24,lo8(1)
 2422               	.LBE385:
 2423               		.loc 4 87 0
 2424 00ce 0895      		ret
 2425               		.cfi_endproc
 2426               	.LFE98:
 2428               		.section	.text.Endpoint_Read_Control_Stream_LE,"ax",@progbits
 2429               	.global	Endpoint_Read_Control_Stream_LE
 2431               	Endpoint_Read_Control_Stream_LE:
 2432               	.LFB99:
 2433               		.file 5 "lib/lufa/LUFA/Drivers/USB/Core/AVR8/Template/Template_Endpoint_Control_R.c"
   1:lib/lufa/LUFA/Drivers/USB/Core/AVR8/Template/Template_Endpoint_Control_R.c **** /*
   2:lib/lufa/LUFA/Drivers/USB/Core/AVR8/Template/Template_Endpoint_Control_R.c ****              LUFA Library
   3:lib/lufa/LUFA/Drivers/USB/Core/AVR8/Template/Template_Endpoint_Control_R.c ****      Copyright (C) Dean Camera, 2017.
   4:lib/lufa/LUFA/Drivers/USB/Core/AVR8/Template/Template_Endpoint_Control_R.c **** 
   5:lib/lufa/LUFA/Drivers/USB/Core/AVR8/Template/Template_Endpoint_Control_R.c ****   dean [at] fourwalledcubicle [dot] com
   6:lib/lufa/LUFA/Drivers/USB/Core/AVR8/Template/Template_Endpoint_Control_R.c ****            www.lufa-lib.org
   7:lib/lufa/LUFA/Drivers/USB/Core/AVR8/Template/Template_Endpoint_Control_R.c **** */
   8:lib/lufa/LUFA/Drivers/USB/Core/AVR8/Template/Template_Endpoint_Control_R.c **** 
   9:lib/lufa/LUFA/Drivers/USB/Core/AVR8/Template/Template_Endpoint_Control_R.c **** /*
  10:lib/lufa/LUFA/Drivers/USB/Core/AVR8/Template/Template_Endpoint_Control_R.c ****   Copyright 2017  Dean Camera (dean [at] fourwalledcubicle [dot] com)
  11:lib/lufa/LUFA/Drivers/USB/Core/AVR8/Template/Template_Endpoint_Control_R.c **** 
  12:lib/lufa/LUFA/Drivers/USB/Core/AVR8/Template/Template_Endpoint_Control_R.c ****   Permission to use, copy, modify, distribute, and sell this
  13:lib/lufa/LUFA/Drivers/USB/Core/AVR8/Template/Template_Endpoint_Control_R.c ****   software and its documentation for any purpose is hereby granted
  14:lib/lufa/LUFA/Drivers/USB/Core/AVR8/Template/Template_Endpoint_Control_R.c ****   without fee, provided that the above copyright notice appear in
  15:lib/lufa/LUFA/Drivers/USB/Core/AVR8/Template/Template_Endpoint_Control_R.c ****   all copies and that both that the copyright notice and this
  16:lib/lufa/LUFA/Drivers/USB/Core/AVR8/Template/Template_Endpoint_Control_R.c ****   permission notice and warranty disclaimer appear in supporting
  17:lib/lufa/LUFA/Drivers/USB/Core/AVR8/Template/Template_Endpoint_Control_R.c ****   documentation, and that the name of the author not be used in
  18:lib/lufa/LUFA/Drivers/USB/Core/AVR8/Template/Template_Endpoint_Control_R.c ****   advertising or publicity pertaining to distribution of the
  19:lib/lufa/LUFA/Drivers/USB/Core/AVR8/Template/Template_Endpoint_Control_R.c ****   software without specific, written prior permission.
  20:lib/lufa/LUFA/Drivers/USB/Core/AVR8/Template/Template_Endpoint_Control_R.c **** 
  21:lib/lufa/LUFA/Drivers/USB/Core/AVR8/Template/Template_Endpoint_Control_R.c ****   The author disclaims all warranties with regard to this
  22:lib/lufa/LUFA/Drivers/USB/Core/AVR8/Template/Template_Endpoint_Control_R.c ****   software, including all implied warranties of merchantability
  23:lib/lufa/LUFA/Drivers/USB/Core/AVR8/Template/Template_Endpoint_Control_R.c ****   and fitness.  In no event shall the author be liable for any
  24:lib/lufa/LUFA/Drivers/USB/Core/AVR8/Template/Template_Endpoint_Control_R.c ****   special, indirect or consequential damages or any damages
  25:lib/lufa/LUFA/Drivers/USB/Core/AVR8/Template/Template_Endpoint_Control_R.c ****   whatsoever resulting from loss of use, data or profits, whether
  26:lib/lufa/LUFA/Drivers/USB/Core/AVR8/Template/Template_Endpoint_Control_R.c ****   in an action of contract, negligence or other tortious action,
  27:lib/lufa/LUFA/Drivers/USB/Core/AVR8/Template/Template_Endpoint_Control_R.c ****   arising out of or in connection with the use or performance of
  28:lib/lufa/LUFA/Drivers/USB/Core/AVR8/Template/Template_Endpoint_Control_R.c ****   this software.
  29:lib/lufa/LUFA/Drivers/USB/Core/AVR8/Template/Template_Endpoint_Control_R.c **** */
  30:lib/lufa/LUFA/Drivers/USB/Core/AVR8/Template/Template_Endpoint_Control_R.c **** 
  31:lib/lufa/LUFA/Drivers/USB/Core/AVR8/Template/Template_Endpoint_Control_R.c **** #if defined(TEMPLATE_FUNC_NAME)
  32:lib/lufa/LUFA/Drivers/USB/Core/AVR8/Template/Template_Endpoint_Control_R.c **** 
  33:lib/lufa/LUFA/Drivers/USB/Core/AVR8/Template/Template_Endpoint_Control_R.c **** uint8_t TEMPLATE_FUNC_NAME (void* const Buffer,
  34:lib/lufa/LUFA/Drivers/USB/Core/AVR8/Template/Template_Endpoint_Control_R.c ****                             uint16_t Length)
  35:lib/lufa/LUFA/Drivers/USB/Core/AVR8/Template/Template_Endpoint_Control_R.c **** {
 2434               		.loc 5 35 0
 2435               		.cfi_startproc
 2436               	.LVL269:
 2437               	/* prologue: function */
 2438               	/* frame size = 0 */
 2439               	/* stack size = 0 */
 2440               	.L__stack_usage = 0
  36:lib/lufa/LUFA/Drivers/USB/Core/AVR8/Template/Template_Endpoint_Control_R.c **** 	uint8_t* DataStream = ((uint8_t*)Buffer + TEMPLATE_BUFFER_OFFSET(Length));
  37:lib/lufa/LUFA/Drivers/USB/Core/AVR8/Template/Template_Endpoint_Control_R.c **** 
  38:lib/lufa/LUFA/Drivers/USB/Core/AVR8/Template/Template_Endpoint_Control_R.c **** 	if (!(Length))
 2441               		.loc 5 38 0
 2442 0000 6115      		cp r22,__zero_reg__
 2443 0002 7105      		cpc r23,__zero_reg__
 2444 0004 01F4      		brne .L219
 2445               	.LBB386:
 2446               	.LBB387:
 471:lib/lufa/LUFA/Drivers/USB/Core/AVR8/../AVR8/../AVR8/Endpoint_AVR8.h **** 				#else
 2447               		.loc 2 471 0
 2448 0006 2091 E800 		lds r18,232
 2449 000a 2B77      		andi r18,lo8(123)
 2450 000c 2093 E800 		sts 232,r18
 2451               	.L219:
 2452               	.LBE387:
 2453               	.LBE386:
  35:lib/lufa/LUFA/Drivers/USB/Core/AVR8/Template/Template_Endpoint_Control_R.c **** 	uint8_t* DataStream = ((uint8_t*)Buffer + TEMPLATE_BUFFER_OFFSET(Length));
 2454               		.loc 5 35 0
 2455 0010 FC01      		movw r30,r24
 2456               	.LVL270:
 2457               	.L223:
  39:lib/lufa/LUFA/Drivers/USB/Core/AVR8/Template/Template_Endpoint_Control_R.c **** 	  Endpoint_ClearOUT();
  40:lib/lufa/LUFA/Drivers/USB/Core/AVR8/Template/Template_Endpoint_Control_R.c **** 
  41:lib/lufa/LUFA/Drivers/USB/Core/AVR8/Template/Template_Endpoint_Control_R.c **** 	while (Length)
 2458               		.loc 5 41 0
 2459 0012 6115      		cp r22,__zero_reg__
 2460 0014 7105      		cpc r23,__zero_reg__
 2461 0016 01F0      		breq .L228
 2462               	.LBB388:
  42:lib/lufa/LUFA/Drivers/USB/Core/AVR8/Template/Template_Endpoint_Control_R.c **** 	{
  43:lib/lufa/LUFA/Drivers/USB/Core/AVR8/Template/Template_Endpoint_Control_R.c **** 		uint8_t USB_DeviceState_LCL = USB_DeviceState;
 2463               		.loc 5 43 0
 2464 0018 8091 0000 		lds r24,USB_DeviceState
 2465               	.LVL271:
  44:lib/lufa/LUFA/Drivers/USB/Core/AVR8/Template/Template_Endpoint_Control_R.c **** 
  45:lib/lufa/LUFA/Drivers/USB/Core/AVR8/Template/Template_Endpoint_Control_R.c **** 		if (USB_DeviceState_LCL == DEVICE_STATE_Unattached)
 2466               		.loc 5 45 0
 2467 001c 8823      		tst r24
 2468 001e 01F0      		breq .L233
  46:lib/lufa/LUFA/Drivers/USB/Core/AVR8/Template/Template_Endpoint_Control_R.c **** 		  return ENDPOINT_RWCSTREAM_DeviceDisconnected;
  47:lib/lufa/LUFA/Drivers/USB/Core/AVR8/Template/Template_Endpoint_Control_R.c **** 		else if (USB_DeviceState_LCL == DEVICE_STATE_Suspended)
 2469               		.loc 5 47 0
 2470 0020 8530      		cpi r24,lo8(5)
 2471 0022 01F0      		breq .L234
 2472               	.LBB389:
 2473               	.LBB390:
 431:lib/lufa/LUFA/Drivers/USB/Core/AVR8/../AVR8/../AVR8/Endpoint_AVR8.h **** 			}
 2474               		.loc 2 431 0
 2475 0024 8091 E800 		lds r24,232
 2476               	.LVL272:
 2477               	.LBE390:
 2478               	.LBE389:
  48:lib/lufa/LUFA/Drivers/USB/Core/AVR8/Template/Template_Endpoint_Control_R.c **** 		  return ENDPOINT_RWCSTREAM_BusSuspended;
  49:lib/lufa/LUFA/Drivers/USB/Core/AVR8/Template/Template_Endpoint_Control_R.c **** 		else if (Endpoint_IsSETUPReceived())
 2479               		.loc 5 49 0
 2480 0028 83FD      		sbrc r24,3
 2481 002a 00C0      		rjmp .L232
 2482               	.LBB391:
 2483               	.LBB392:
 419:lib/lufa/LUFA/Drivers/USB/Core/AVR8/../AVR8/../AVR8/Endpoint_AVR8.h **** 			}
 2484               		.loc 2 419 0
 2485 002c 8091 E800 		lds r24,232
 2486               	.LBE392:
 2487               	.LBE391:
  50:lib/lufa/LUFA/Drivers/USB/Core/AVR8/Template/Template_Endpoint_Control_R.c **** 		  return ENDPOINT_RWCSTREAM_HostAborted;
  51:lib/lufa/LUFA/Drivers/USB/Core/AVR8/Template/Template_Endpoint_Control_R.c **** 
  52:lib/lufa/LUFA/Drivers/USB/Core/AVR8/Template/Template_Endpoint_Control_R.c **** 		if (Endpoint_IsOUTReceived())
 2488               		.loc 5 52 0
 2489 0030 82FF      		sbrs r24,2
 2490 0032 00C0      		rjmp .L223
 2491               	.L224:
 2492               	.LBB393:
 2493               	.LBB394:
 227:lib/lufa/LUFA/Drivers/USB/Core/AVR8/../AVR8/../AVR8/Endpoint_AVR8.h **** 				#elif defined(USB_SERIES_2_AVR)
 2494               		.loc 2 227 0
 2495 0034 2091 F300 		lds r18,243
 2496 0038 8091 F200 		lds r24,242
 2497               	.LBE394:
 2498               	.LBE393:
  53:lib/lufa/LUFA/Drivers/USB/Core/AVR8/Template/Template_Endpoint_Control_R.c **** 		{
  54:lib/lufa/LUFA/Drivers/USB/Core/AVR8/Template/Template_Endpoint_Control_R.c **** 			while (Length && Endpoint_BytesInEndpoint())
 2499               		.loc 5 54 0
 2500 003c 90E0      		ldi r25,0
 2501 003e 922B      		or r25,r18
 2502 0040 892B      		or r24,r25
 2503 0042 01F0      		breq .L225
 2504               	.LBB395:
 2505               	.LBB396:
 542:lib/lufa/LUFA/Drivers/USB/Core/AVR8/../AVR8/../AVR8/Endpoint_AVR8.h **** 			}
 2506               		.loc 2 542 0
 2507 0044 8091 F100 		lds r24,241
 2508               	.LBE396:
 2509               	.LBE395:
  55:lib/lufa/LUFA/Drivers/USB/Core/AVR8/Template/Template_Endpoint_Control_R.c **** 			{
  56:lib/lufa/LUFA/Drivers/USB/Core/AVR8/Template/Template_Endpoint_Control_R.c **** 				TEMPLATE_TRANSFER_BYTE(DataStream);
 2510               		.loc 5 56 0
 2511 0048 8193      		st Z+,r24
 2512               	.LVL273:
  57:lib/lufa/LUFA/Drivers/USB/Core/AVR8/Template/Template_Endpoint_Control_R.c **** 				TEMPLATE_BUFFER_MOVE(DataStream, 1);
  58:lib/lufa/LUFA/Drivers/USB/Core/AVR8/Template/Template_Endpoint_Control_R.c **** 				Length--;
 2513               		.loc 5 58 0
 2514 004a 6150      		subi r22,1
 2515 004c 7109      		sbc r23,__zero_reg__
 2516               	.LVL274:
  54:lib/lufa/LUFA/Drivers/USB/Core/AVR8/Template/Template_Endpoint_Control_R.c **** 			{
 2517               		.loc 5 54 0
 2518 004e 01F4      		brne .L224
 2519               	.L225:
 2520               	.LBB397:
 2521               	.LBB398:
 471:lib/lufa/LUFA/Drivers/USB/Core/AVR8/../AVR8/../AVR8/Endpoint_AVR8.h **** 				#else
 2522               		.loc 2 471 0
 2523 0050 8091 E800 		lds r24,232
 2524 0054 8B77      		andi r24,lo8(123)
 2525 0056 8093 E800 		sts 232,r24
 2526 005a 00C0      		rjmp .L223
 2527               	.L229:
 2528               	.LBE398:
 2529               	.LBE397:
 2530               	.LBE388:
 2531               	.LBB399:
  59:lib/lufa/LUFA/Drivers/USB/Core/AVR8/Template/Template_Endpoint_Control_R.c **** 			}
  60:lib/lufa/LUFA/Drivers/USB/Core/AVR8/Template/Template_Endpoint_Control_R.c **** 
  61:lib/lufa/LUFA/Drivers/USB/Core/AVR8/Template/Template_Endpoint_Control_R.c **** 			Endpoint_ClearOUT();
  62:lib/lufa/LUFA/Drivers/USB/Core/AVR8/Template/Template_Endpoint_Control_R.c **** 		}
  63:lib/lufa/LUFA/Drivers/USB/Core/AVR8/Template/Template_Endpoint_Control_R.c **** 	}
  64:lib/lufa/LUFA/Drivers/USB/Core/AVR8/Template/Template_Endpoint_Control_R.c **** 
  65:lib/lufa/LUFA/Drivers/USB/Core/AVR8/Template/Template_Endpoint_Control_R.c **** 	while (!(Endpoint_IsINReady()))
  66:lib/lufa/LUFA/Drivers/USB/Core/AVR8/Template/Template_Endpoint_Control_R.c **** 	{
  67:lib/lufa/LUFA/Drivers/USB/Core/AVR8/Template/Template_Endpoint_Control_R.c **** 		uint8_t USB_DeviceState_LCL = USB_DeviceState;
 2532               		.loc 5 67 0
 2533 005c 8091 0000 		lds r24,USB_DeviceState
 2534               	.LVL275:
  68:lib/lufa/LUFA/Drivers/USB/Core/AVR8/Template/Template_Endpoint_Control_R.c **** 
  69:lib/lufa/LUFA/Drivers/USB/Core/AVR8/Template/Template_Endpoint_Control_R.c **** 		if (USB_DeviceState_LCL == DEVICE_STATE_Unattached)
 2535               		.loc 5 69 0
 2536 0060 8823      		tst r24
 2537 0062 01F0      		breq .L233
  70:lib/lufa/LUFA/Drivers/USB/Core/AVR8/Template/Template_Endpoint_Control_R.c **** 		  return ENDPOINT_RWCSTREAM_DeviceDisconnected;
  71:lib/lufa/LUFA/Drivers/USB/Core/AVR8/Template/Template_Endpoint_Control_R.c **** 		else if (USB_DeviceState_LCL == DEVICE_STATE_Suspended)
 2538               		.loc 5 71 0
 2539 0064 8530      		cpi r24,lo8(5)
 2540 0066 01F0      		breq .L234
 2541               	.LVL276:
 2542               	.L228:
 2543               	.LBE399:
 2544               	.LBB400:
 2545               	.LBB401:
 407:lib/lufa/LUFA/Drivers/USB/Core/AVR8/../AVR8/../AVR8/Endpoint_AVR8.h **** 			}
 2546               		.loc 2 407 0
 2547 0068 8091 E800 		lds r24,232
 2548               	.LBE401:
 2549               	.LBE400:
  65:lib/lufa/LUFA/Drivers/USB/Core/AVR8/Template/Template_Endpoint_Control_R.c **** 	{
 2550               		.loc 5 65 0
 2551 006c 80FF      		sbrs r24,0
 2552 006e 00C0      		rjmp .L229
  72:lib/lufa/LUFA/Drivers/USB/Core/AVR8/Template/Template_Endpoint_Control_R.c **** 		  return ENDPOINT_RWCSTREAM_BusSuspended;
  73:lib/lufa/LUFA/Drivers/USB/Core/AVR8/Template/Template_Endpoint_Control_R.c **** 	}
  74:lib/lufa/LUFA/Drivers/USB/Core/AVR8/Template/Template_Endpoint_Control_R.c **** 
  75:lib/lufa/LUFA/Drivers/USB/Core/AVR8/Template/Template_Endpoint_Control_R.c **** 	return ENDPOINT_RWCSTREAM_NoError;
 2553               		.loc 5 75 0
 2554 0070 80E0      		ldi r24,0
 2555 0072 0895      		ret
 2556               	.L232:
 2557               	.LBB402:
  50:lib/lufa/LUFA/Drivers/USB/Core/AVR8/Template/Template_Endpoint_Control_R.c **** 
 2558               		.loc 5 50 0
 2559 0074 81E0      		ldi r24,lo8(1)
 2560 0076 0895      		ret
 2561               	.L233:
  46:lib/lufa/LUFA/Drivers/USB/Core/AVR8/Template/Template_Endpoint_Control_R.c **** 		else if (USB_DeviceState_LCL == DEVICE_STATE_Suspended)
 2562               		.loc 5 46 0
 2563 0078 82E0      		ldi r24,lo8(2)
 2564 007a 0895      		ret
 2565               	.L234:
  48:lib/lufa/LUFA/Drivers/USB/Core/AVR8/Template/Template_Endpoint_Control_R.c **** 		else if (Endpoint_IsSETUPReceived())
 2566               		.loc 5 48 0
 2567 007c 83E0      		ldi r24,lo8(3)
 2568               	.LBE402:
  76:lib/lufa/LUFA/Drivers/USB/Core/AVR8/Template/Template_Endpoint_Control_R.c **** }
 2569               		.loc 5 76 0
 2570 007e 0895      		ret
 2571               		.cfi_endproc
 2572               	.LFE99:
 2574               		.section	.text.Endpoint_Read_Control_Stream_BE,"ax",@progbits
 2575               	.global	Endpoint_Read_Control_Stream_BE
 2577               	Endpoint_Read_Control_Stream_BE:
 2578               	.LFB100:
  35:lib/lufa/LUFA/Drivers/USB/Core/AVR8/Template/Template_Endpoint_Control_R.c **** 	uint8_t* DataStream = ((uint8_t*)Buffer + TEMPLATE_BUFFER_OFFSET(Length));
 2579               		.loc 5 35 0
 2580               		.cfi_startproc
 2581               	.LVL277:
 2582               	/* prologue: function */
 2583               	/* frame size = 0 */
 2584               	/* stack size = 0 */
 2585               	.L__stack_usage = 0
  36:lib/lufa/LUFA/Drivers/USB/Core/AVR8/Template/Template_Endpoint_Control_R.c **** 
 2586               		.loc 5 36 0
 2587 0000 9B01      		movw r18,r22
 2588 0002 2150      		subi r18,1
 2589 0004 3109      		sbc r19,__zero_reg__
 2590 0006 820F      		add r24,r18
 2591 0008 931F      		adc r25,r19
 2592               	.LVL278:
  38:lib/lufa/LUFA/Drivers/USB/Core/AVR8/Template/Template_Endpoint_Control_R.c **** 	  Endpoint_ClearOUT();
 2593               		.loc 5 38 0
 2594 000a 6115      		cp r22,__zero_reg__
 2595 000c 7105      		cpc r23,__zero_reg__
 2596 000e 01F4      		brne .L241
 2597               	.L243:
 2598               	.LBB403:
 2599               	.LBB404:
 2600               	.LBB405:
 471:lib/lufa/LUFA/Drivers/USB/Core/AVR8/../AVR8/../AVR8/Endpoint_AVR8.h **** 				#else
 2601               		.loc 2 471 0
 2602 0010 2091 E800 		lds r18,232
 2603 0014 2B77      		andi r18,lo8(123)
 2604 0016 2093 E800 		sts 232,r18
 2605               	.L241:
 2606               	.LBE405:
 2607               	.LBE404:
 2608               	.LBE403:
  41:lib/lufa/LUFA/Drivers/USB/Core/AVR8/Template/Template_Endpoint_Control_R.c **** 	{
 2609               		.loc 5 41 0
 2610 001a 6115      		cp r22,__zero_reg__
 2611 001c 7105      		cpc r23,__zero_reg__
 2612 001e 01F0      		breq .L246
 2613               	.LBB414:
  43:lib/lufa/LUFA/Drivers/USB/Core/AVR8/Template/Template_Endpoint_Control_R.c **** 
 2614               		.loc 5 43 0
 2615 0020 2091 0000 		lds r18,USB_DeviceState
 2616               	.LVL279:
  45:lib/lufa/LUFA/Drivers/USB/Core/AVR8/Template/Template_Endpoint_Control_R.c **** 		  return ENDPOINT_RWCSTREAM_DeviceDisconnected;
 2617               		.loc 5 45 0
 2618 0024 2223      		tst r18
 2619 0026 01F0      		breq .L251
  47:lib/lufa/LUFA/Drivers/USB/Core/AVR8/Template/Template_Endpoint_Control_R.c **** 		  return ENDPOINT_RWCSTREAM_BusSuspended;
 2620               		.loc 5 47 0
 2621 0028 2530      		cpi r18,lo8(5)
 2622 002a 01F0      		breq .L252
 2623               	.LBB406:
 2624               	.LBB407:
 431:lib/lufa/LUFA/Drivers/USB/Core/AVR8/../AVR8/../AVR8/Endpoint_AVR8.h **** 			}
 2625               		.loc 2 431 0
 2626 002c 2091 E800 		lds r18,232
 2627               	.LVL280:
 2628               	.LBE407:
 2629               	.LBE406:
  49:lib/lufa/LUFA/Drivers/USB/Core/AVR8/Template/Template_Endpoint_Control_R.c **** 		  return ENDPOINT_RWCSTREAM_HostAborted;
 2630               		.loc 5 49 0
 2631 0030 23FD      		sbrc r18,3
 2632 0032 00C0      		rjmp .L250
 2633               	.LBB408:
 2634               	.LBB409:
 419:lib/lufa/LUFA/Drivers/USB/Core/AVR8/../AVR8/../AVR8/Endpoint_AVR8.h **** 			}
 2635               		.loc 2 419 0
 2636 0034 2091 E800 		lds r18,232
 2637               	.LBE409:
 2638               	.LBE408:
  52:lib/lufa/LUFA/Drivers/USB/Core/AVR8/Template/Template_Endpoint_Control_R.c **** 		{
 2639               		.loc 5 52 0
 2640 0038 22FF      		sbrs r18,2
 2641 003a 00C0      		rjmp .L241
 2642               	.L242:
 2643               	.LBB410:
 2644               	.LBB411:
 227:lib/lufa/LUFA/Drivers/USB/Core/AVR8/../AVR8/../AVR8/Endpoint_AVR8.h **** 				#elif defined(USB_SERIES_2_AVR)
 2645               		.loc 2 227 0
 2646 003c 4091 F300 		lds r20,243
 2647 0040 2091 F200 		lds r18,242
 2648               	.LBE411:
 2649               	.LBE410:
  54:lib/lufa/LUFA/Drivers/USB/Core/AVR8/Template/Template_Endpoint_Control_R.c **** 			{
 2650               		.loc 5 54 0
 2651 0044 30E0      		ldi r19,0
 2652 0046 342B      		or r19,r20
 2653 0048 232B      		or r18,r19
 2654 004a 01F0      		breq .L243
 2655               	.LBB412:
 2656               	.LBB413:
 542:lib/lufa/LUFA/Drivers/USB/Core/AVR8/../AVR8/../AVR8/Endpoint_AVR8.h **** 			}
 2657               		.loc 2 542 0
 2658 004c 2091 F100 		lds r18,241
 2659               	.LBE413:
 2660               	.LBE412:
  56:lib/lufa/LUFA/Drivers/USB/Core/AVR8/Template/Template_Endpoint_Control_R.c **** 				TEMPLATE_BUFFER_MOVE(DataStream, 1);
 2661               		.loc 5 56 0
 2662 0050 FC01      		movw r30,r24
 2663 0052 2083      		st Z,r18
  57:lib/lufa/LUFA/Drivers/USB/Core/AVR8/Template/Template_Endpoint_Control_R.c **** 				Length--;
 2664               		.loc 5 57 0
 2665 0054 0197      		sbiw r24,1
 2666               	.LVL281:
  58:lib/lufa/LUFA/Drivers/USB/Core/AVR8/Template/Template_Endpoint_Control_R.c **** 			}
 2667               		.loc 5 58 0
 2668 0056 6150      		subi r22,1
 2669 0058 7109      		sbc r23,__zero_reg__
 2670               	.LVL282:
  54:lib/lufa/LUFA/Drivers/USB/Core/AVR8/Template/Template_Endpoint_Control_R.c **** 			{
 2671               		.loc 5 54 0
 2672 005a 01F4      		brne .L242
 2673 005c 00C0      		rjmp .L243
 2674               	.LVL283:
 2675               	.L247:
 2676               	.LBE414:
 2677               	.LBB415:
  67:lib/lufa/LUFA/Drivers/USB/Core/AVR8/Template/Template_Endpoint_Control_R.c **** 
 2678               		.loc 5 67 0
 2679 005e 8091 0000 		lds r24,USB_DeviceState
 2680               	.LVL284:
  69:lib/lufa/LUFA/Drivers/USB/Core/AVR8/Template/Template_Endpoint_Control_R.c **** 		  return ENDPOINT_RWCSTREAM_DeviceDisconnected;
 2681               		.loc 5 69 0
 2682 0062 8823      		tst r24
 2683 0064 01F0      		breq .L251
  71:lib/lufa/LUFA/Drivers/USB/Core/AVR8/Template/Template_Endpoint_Control_R.c **** 		  return ENDPOINT_RWCSTREAM_BusSuspended;
 2684               		.loc 5 71 0
 2685 0066 8530      		cpi r24,lo8(5)
 2686 0068 01F0      		breq .L252
 2687               	.LVL285:
 2688               	.L246:
 2689               	.LBE415:
 2690               	.LBB416:
 2691               	.LBB417:
 407:lib/lufa/LUFA/Drivers/USB/Core/AVR8/../AVR8/../AVR8/Endpoint_AVR8.h **** 			}
 2692               		.loc 2 407 0
 2693 006a 8091 E800 		lds r24,232
 2694               	.LBE417:
 2695               	.LBE416:
  65:lib/lufa/LUFA/Drivers/USB/Core/AVR8/Template/Template_Endpoint_Control_R.c **** 	{
 2696               		.loc 5 65 0
 2697 006e 80FF      		sbrs r24,0
 2698 0070 00C0      		rjmp .L247
  75:lib/lufa/LUFA/Drivers/USB/Core/AVR8/Template/Template_Endpoint_Control_R.c **** }
 2699               		.loc 5 75 0
 2700 0072 80E0      		ldi r24,0
 2701 0074 0895      		ret
 2702               	.LVL286:
 2703               	.L250:
 2704               	.LBB418:
  50:lib/lufa/LUFA/Drivers/USB/Core/AVR8/Template/Template_Endpoint_Control_R.c **** 
 2705               		.loc 5 50 0
 2706 0076 81E0      		ldi r24,lo8(1)
 2707               	.LVL287:
 2708 0078 0895      		ret
 2709               	.L251:
  46:lib/lufa/LUFA/Drivers/USB/Core/AVR8/Template/Template_Endpoint_Control_R.c **** 		else if (USB_DeviceState_LCL == DEVICE_STATE_Suspended)
 2710               		.loc 5 46 0
 2711 007a 82E0      		ldi r24,lo8(2)
 2712 007c 0895      		ret
 2713               	.L252:
  48:lib/lufa/LUFA/Drivers/USB/Core/AVR8/Template/Template_Endpoint_Control_R.c **** 		else if (Endpoint_IsSETUPReceived())
 2714               		.loc 5 48 0
 2715 007e 83E0      		ldi r24,lo8(3)
 2716               	.LBE418:
 2717               		.loc 5 76 0
 2718 0080 0895      		ret
 2719               		.cfi_endproc
 2720               	.LFE100:
 2722               		.section	.text.Endpoint_Write_Control_PStream_LE,"ax",@progbits
 2723               	.global	Endpoint_Write_Control_PStream_LE
 2725               	Endpoint_Write_Control_PStream_LE:
 2726               	.LFB101:
  35:lib/lufa/LUFA/Drivers/USB/Core/AVR8/Template/Template_Endpoint_Control_W.c **** 	uint8_t* DataStream     = ((uint8_t*)Buffer + TEMPLATE_BUFFER_OFFSET(Length));
 2727               		.loc 4 35 0
 2728               		.cfi_startproc
 2729               	.LVL288:
 2730               	/* prologue: function */
 2731               	/* frame size = 0 */
 2732               	/* stack size = 0 */
 2733               	.L__stack_usage = 0
  39:lib/lufa/LUFA/Drivers/USB/Core/AVR8/Template/Template_Endpoint_Control_W.c **** 	  Length = USB_ControlRequest.wLength;
 2734               		.loc 4 39 0
 2735 0000 2091 0000 		lds r18,USB_ControlRequest+6
 2736 0004 3091 0000 		lds r19,USB_ControlRequest+6+1
 2737 0008 2617      		cp r18,r22
 2738 000a 3707      		cpc r19,r23
 2739 000c 00F0      		brlo .L266
  41:lib/lufa/LUFA/Drivers/USB/Core/AVR8/Template/Template_Endpoint_Control_W.c **** 	  Endpoint_ClearIN();
 2740               		.loc 4 41 0
 2741 000e 6115      		cp r22,__zero_reg__
 2742 0010 7105      		cpc r23,__zero_reg__
 2743 0012 01F4      		brne .L255
 2744               	.LBB419:
 2745               	.LBB420:
 456:lib/lufa/LUFA/Drivers/USB/Core/AVR8/../AVR8/../AVR8/Endpoint_AVR8.h **** 				#else
 2746               		.loc 2 456 0
 2747 0014 2091 E800 		lds r18,232
 2748 0018 2E77      		andi r18,lo8(126)
 2749 001a 2093 E800 		sts 232,r18
 2750 001e 00C0      		rjmp .L255
 2751               	.L266:
 2752               	.LBE420:
 2753               	.LBE419:
 2754 0020 B901      		movw r22,r18
 2755               	.LVL289:
 2756               	.L255:
 2757 0022 FC01      		movw r30,r24
 2758 0024 20E0      		ldi r18,0
 2759               	.LVL290:
 2760               	.L259:
  44:lib/lufa/LUFA/Drivers/USB/Core/AVR8/Template/Template_Endpoint_Control_W.c **** 	{
 2761               		.loc 4 44 0
 2762 0026 6115      		cp r22,__zero_reg__
 2763 0028 7105      		cpc r23,__zero_reg__
 2764 002a 01F0      		breq .L282
 2765               	.L264:
 2766               	.LBB421:
  46:lib/lufa/LUFA/Drivers/USB/Core/AVR8/Template/Template_Endpoint_Control_W.c **** 
 2767               		.loc 4 46 0
 2768 002c 8091 0000 		lds r24,USB_DeviceState
 2769               	.LVL291:
  48:lib/lufa/LUFA/Drivers/USB/Core/AVR8/Template/Template_Endpoint_Control_W.c **** 		  return ENDPOINT_RWCSTREAM_DeviceDisconnected;
 2770               		.loc 4 48 0
 2771 0030 8823      		tst r24
 2772 0032 01F4      		brne .+2
 2773 0034 00C0      		rjmp .L270
  50:lib/lufa/LUFA/Drivers/USB/Core/AVR8/Template/Template_Endpoint_Control_W.c **** 		  return ENDPOINT_RWCSTREAM_BusSuspended;
 2774               		.loc 4 50 0
 2775 0036 8530      		cpi r24,lo8(5)
 2776 0038 01F4      		brne .+2
 2777 003a 00C0      		rjmp .L271
 2778               	.LBB422:
 2779               	.LBB423:
 431:lib/lufa/LUFA/Drivers/USB/Core/AVR8/../AVR8/../AVR8/Endpoint_AVR8.h **** 			}
 2780               		.loc 2 431 0
 2781 003c 8091 E800 		lds r24,232
 2782               	.LVL292:
 2783               	.LBE423:
 2784               	.LBE422:
  52:lib/lufa/LUFA/Drivers/USB/Core/AVR8/Template/Template_Endpoint_Control_W.c **** 		  return ENDPOINT_RWCSTREAM_HostAborted;
 2785               		.loc 4 52 0
 2786 0040 83FD      		sbrc r24,3
 2787 0042 00C0      		rjmp .L272
 2788               	.LBB424:
 2789               	.LBB425:
 419:lib/lufa/LUFA/Drivers/USB/Core/AVR8/../AVR8/../AVR8/Endpoint_AVR8.h **** 			}
 2790               		.loc 2 419 0
 2791 0044 8091 E800 		lds r24,232
 2792               	.LBE425:
 2793               	.LBE424:
  54:lib/lufa/LUFA/Drivers/USB/Core/AVR8/Template/Template_Endpoint_Control_W.c **** 		  break;
 2794               		.loc 4 54 0
 2795 0048 82FD      		sbrc r24,2
 2796 004a 00C0      		rjmp .L278
 2797               	.LBB426:
 2798               	.LBB427:
 407:lib/lufa/LUFA/Drivers/USB/Core/AVR8/../AVR8/../AVR8/Endpoint_AVR8.h **** 			}
 2799               		.loc 2 407 0
 2800 004c 8091 E800 		lds r24,232
 2801               	.LBE427:
 2802               	.LBE426:
  57:lib/lufa/LUFA/Drivers/USB/Core/AVR8/Template/Template_Endpoint_Control_W.c **** 		{
 2803               		.loc 4 57 0
 2804 0050 80FF      		sbrs r24,0
 2805 0052 00C0      		rjmp .L259
 2806               	.LBB428:
 2807               	.LBB429:
 2808               	.LBB430:
 227:lib/lufa/LUFA/Drivers/USB/Core/AVR8/../AVR8/../AVR8/Endpoint_AVR8.h **** 				#elif defined(USB_SERIES_2_AVR)
 2809               		.loc 2 227 0
 2810 0054 2091 F300 		lds r18,243
 2811               	.LVL293:
 2812 0058 8091 F200 		lds r24,242
 2813 005c 90E0      		ldi r25,0
 2814 005e 922B      		or r25,r18
 2815               	.L260:
 2816               	.LVL294:
 2817               	.LBE430:
 2818               	.LBE429:
  61:lib/lufa/LUFA/Drivers/USB/Core/AVR8/Template/Template_Endpoint_Control_W.c **** 			{
 2819               		.loc 4 61 0
 2820 0060 6115      		cp r22,__zero_reg__
 2821 0062 7105      		cpc r23,__zero_reg__
 2822 0064 01F0      		breq .L261
  61:lib/lufa/LUFA/Drivers/USB/Core/AVR8/Template/Template_Endpoint_Control_W.c **** 			{
 2823               		.loc 4 61 0 is_stmt 0 discriminator 1
 2824 0066 8830      		cpi r24,8
 2825 0068 9105      		cpc r25,__zero_reg__
 2826 006a 00F4      		brsh .L261
 2827               	.LVL295:
 2828               	.LBB431:
  63:lib/lufa/LUFA/Drivers/USB/Core/AVR8/Template/Template_Endpoint_Control_W.c **** 				TEMPLATE_BUFFER_MOVE(DataStream, 1);
 2829               		.loc 4 63 0 is_stmt 1
 2830               	/* #APP */
 2831               	 ;  63 "lib/lufa/LUFA/Drivers/USB/Core/AVR8/Template/Template_Endpoint_Control_W.c" 1
 2832 006c 2491      		lpm r18, Z
 2833               		
 2834               	 ;  0 "" 2
 2835               	.LVL296:
 2836               	/* #NOAPP */
 2837               	.LBE431:
 2838               	.LBB432:
 2839               	.LBB433:
 554:lib/lufa/LUFA/Drivers/USB/Core/AVR8/../AVR8/../AVR8/Endpoint_AVR8.h **** 			}
 2840               		.loc 2 554 0
 2841 006e 2093 F100 		sts 241,r18
 2842               	.LVL297:
 2843               	.LBE433:
 2844               	.LBE432:
  64:lib/lufa/LUFA/Drivers/USB/Core/AVR8/Template/Template_Endpoint_Control_W.c **** 				Length--;
 2845               		.loc 4 64 0
 2846 0072 3196      		adiw r30,1
 2847               	.LVL298:
  65:lib/lufa/LUFA/Drivers/USB/Core/AVR8/Template/Template_Endpoint_Control_W.c **** 				BytesInEndpoint++;
 2848               		.loc 4 65 0
 2849 0074 6150      		subi r22,1
 2850 0076 7109      		sbc r23,__zero_reg__
 2851               	.LVL299:
  66:lib/lufa/LUFA/Drivers/USB/Core/AVR8/Template/Template_Endpoint_Control_W.c **** 			}
 2852               		.loc 4 66 0
 2853 0078 0196      		adiw r24,1
 2854               	.LVL300:
 2855 007a 00C0      		rjmp .L260
 2856               	.LVL301:
 2857               	.L261:
  69:lib/lufa/LUFA/Drivers/USB/Core/AVR8/Template/Template_Endpoint_Control_W.c **** 			Endpoint_ClearIN();
 2858               		.loc 4 69 0
 2859 007c 21E0      		ldi r18,lo8(1)
 2860 007e 0897      		sbiw r24,8
 2861 0080 01F0      		breq .L263
 2862 0082 20E0      		ldi r18,0
 2863               	.L263:
 2864               	.LVL302:
 2865               	.LBB434:
 2866               	.LBB435:
 456:lib/lufa/LUFA/Drivers/USB/Core/AVR8/../AVR8/../AVR8/Endpoint_AVR8.h **** 				#else
 2867               		.loc 2 456 0
 2868 0084 8091 E800 		lds r24,232
 2869               	.LVL303:
 2870 0088 8E77      		andi r24,lo8(126)
 2871 008a 8093 E800 		sts 232,r24
 2872 008e 00C0      		rjmp .L259
 2873               	.L282:
 2874               	.LBE435:
 2875               	.LBE434:
 2876               	.LBE428:
 2877               	.LBE421:
  44:lib/lufa/LUFA/Drivers/USB/Core/AVR8/Template/Template_Endpoint_Control_W.c **** 	{
 2878               		.loc 4 44 0 discriminator 1
 2879 0090 2111      		cpse r18,__zero_reg__
 2880 0092 00C0      		rjmp .L264
 2881 0094 00C0      		rjmp .L278
 2882               	.L265:
 2883               	.LBB436:
  76:lib/lufa/LUFA/Drivers/USB/Core/AVR8/Template/Template_Endpoint_Control_W.c **** 
 2884               		.loc 4 76 0
 2885 0096 8091 0000 		lds r24,USB_DeviceState
 2886               	.LVL304:
  78:lib/lufa/LUFA/Drivers/USB/Core/AVR8/Template/Template_Endpoint_Control_W.c **** 		  return ENDPOINT_RWCSTREAM_DeviceDisconnected;
 2887               		.loc 4 78 0
 2888 009a 8823      		tst r24
 2889 009c 01F0      		breq .L270
  80:lib/lufa/LUFA/Drivers/USB/Core/AVR8/Template/Template_Endpoint_Control_W.c **** 		  return ENDPOINT_RWCSTREAM_BusSuspended;
 2890               		.loc 4 80 0
 2891 009e 8530      		cpi r24,lo8(5)
 2892 00a0 01F0      		breq .L271
 2893               	.LBB437:
 2894               	.LBB438:
 431:lib/lufa/LUFA/Drivers/USB/Core/AVR8/../AVR8/../AVR8/Endpoint_AVR8.h **** 			}
 2895               		.loc 2 431 0
 2896 00a2 8091 E800 		lds r24,232
 2897               	.LVL305:
 2898               	.LBE438:
 2899               	.LBE437:
  82:lib/lufa/LUFA/Drivers/USB/Core/AVR8/Template/Template_Endpoint_Control_W.c **** 		  return ENDPOINT_RWCSTREAM_HostAborted;
 2900               		.loc 4 82 0
 2901 00a6 83FD      		sbrc r24,3
 2902 00a8 00C0      		rjmp .L272
 2903               	.L278:
 2904               	.LBE436:
 2905               	.LBB439:
 2906               	.LBB440:
 419:lib/lufa/LUFA/Drivers/USB/Core/AVR8/../AVR8/../AVR8/Endpoint_AVR8.h **** 			}
 2907               		.loc 2 419 0
 2908 00aa 8091 E800 		lds r24,232
 2909               	.LBE440:
 2910               	.LBE439:
  74:lib/lufa/LUFA/Drivers/USB/Core/AVR8/Template/Template_Endpoint_Control_W.c **** 	{
 2911               		.loc 4 74 0
 2912 00ae 82FF      		sbrs r24,2
 2913 00b0 00C0      		rjmp .L265
  86:lib/lufa/LUFA/Drivers/USB/Core/AVR8/Template/Template_Endpoint_Control_W.c **** }
 2914               		.loc 4 86 0
 2915 00b2 80E0      		ldi r24,0
 2916 00b4 0895      		ret
 2917               	.L270:
 2918               	.LBB441:
  49:lib/lufa/LUFA/Drivers/USB/Core/AVR8/Template/Template_Endpoint_Control_W.c **** 		else if (USB_DeviceState_LCL == DEVICE_STATE_Suspended)
 2919               		.loc 4 49 0
 2920 00b6 82E0      		ldi r24,lo8(2)
 2921 00b8 0895      		ret
 2922               	.L271:
  51:lib/lufa/LUFA/Drivers/USB/Core/AVR8/Template/Template_Endpoint_Control_W.c **** 		else if (Endpoint_IsSETUPReceived())
 2923               		.loc 4 51 0
 2924 00ba 83E0      		ldi r24,lo8(3)
 2925 00bc 0895      		ret
 2926               	.L272:
  53:lib/lufa/LUFA/Drivers/USB/Core/AVR8/Template/Template_Endpoint_Control_W.c **** 		else if (Endpoint_IsOUTReceived())
 2927               		.loc 4 53 0
 2928 00be 81E0      		ldi r24,lo8(1)
 2929               	.LBE441:
 2930               		.loc 4 87 0
 2931 00c0 0895      		ret
 2932               		.cfi_endproc
 2933               	.LFE101:
 2935               		.section	.text.Endpoint_Write_Control_PStream_BE,"ax",@progbits
 2936               	.global	Endpoint_Write_Control_PStream_BE
 2938               	Endpoint_Write_Control_PStream_BE:
 2939               	.LFB102:
  35:lib/lufa/LUFA/Drivers/USB/Core/AVR8/Template/Template_Endpoint_Control_W.c **** 	uint8_t* DataStream     = ((uint8_t*)Buffer + TEMPLATE_BUFFER_OFFSET(Length));
 2940               		.loc 4 35 0
 2941               		.cfi_startproc
 2942               	.LVL306:
 2943               	/* prologue: function */
 2944               	/* frame size = 0 */
 2945               	/* stack size = 0 */
 2946               	.L__stack_usage = 0
  36:lib/lufa/LUFA/Drivers/USB/Core/AVR8/Template/Template_Endpoint_Control_W.c **** 	bool     LastPacketFull = false;
 2947               		.loc 4 36 0
 2948 0000 FB01      		movw r30,r22
 2949 0002 3197      		sbiw r30,1
 2950 0004 8E0F      		add r24,r30
 2951 0006 9F1F      		adc r25,r31
 2952               	.LVL307:
  39:lib/lufa/LUFA/Drivers/USB/Core/AVR8/Template/Template_Endpoint_Control_W.c **** 	  Length = USB_ControlRequest.wLength;
 2953               		.loc 4 39 0
 2954 0008 2091 0000 		lds r18,USB_ControlRequest+6
 2955 000c 3091 0000 		lds r19,USB_ControlRequest+6+1
 2956 0010 2617      		cp r18,r22
 2957 0012 3707      		cpc r19,r23
 2958 0014 00F0      		brlo .L295
  41:lib/lufa/LUFA/Drivers/USB/Core/AVR8/Template/Template_Endpoint_Control_W.c **** 	  Endpoint_ClearIN();
 2959               		.loc 4 41 0
 2960 0016 6115      		cp r22,__zero_reg__
 2961 0018 7105      		cpc r23,__zero_reg__
 2962 001a 01F4      		brne .L284
 2963               	.LBB442:
 2964               	.LBB443:
 456:lib/lufa/LUFA/Drivers/USB/Core/AVR8/../AVR8/../AVR8/Endpoint_AVR8.h **** 				#else
 2965               		.loc 2 456 0
 2966 001c 2091 E800 		lds r18,232
 2967 0020 2E77      		andi r18,lo8(126)
 2968 0022 2093 E800 		sts 232,r18
 2969 0026 00C0      		rjmp .L284
 2970               	.L295:
 2971               	.LBE443:
 2972               	.LBE442:
 2973 0028 B901      		movw r22,r18
 2974               	.LVL308:
 2975               	.L284:
 2976 002a 40E0      		ldi r20,0
 2977               	.LVL309:
 2978               	.L288:
  44:lib/lufa/LUFA/Drivers/USB/Core/AVR8/Template/Template_Endpoint_Control_W.c **** 	{
 2979               		.loc 4 44 0
 2980 002c 6115      		cp r22,__zero_reg__
 2981 002e 7105      		cpc r23,__zero_reg__
 2982 0030 01F0      		breq .L311
 2983               	.L293:
 2984               	.LBB444:
  46:lib/lufa/LUFA/Drivers/USB/Core/AVR8/Template/Template_Endpoint_Control_W.c **** 
 2985               		.loc 4 46 0
 2986 0032 2091 0000 		lds r18,USB_DeviceState
 2987               	.LVL310:
  48:lib/lufa/LUFA/Drivers/USB/Core/AVR8/Template/Template_Endpoint_Control_W.c **** 		  return ENDPOINT_RWCSTREAM_DeviceDisconnected;
 2988               		.loc 4 48 0
 2989 0036 2223      		tst r18
 2990 0038 01F4      		brne .+2
 2991 003a 00C0      		rjmp .L299
  50:lib/lufa/LUFA/Drivers/USB/Core/AVR8/Template/Template_Endpoint_Control_W.c **** 		  return ENDPOINT_RWCSTREAM_BusSuspended;
 2992               		.loc 4 50 0
 2993 003c 2530      		cpi r18,lo8(5)
 2994 003e 01F4      		brne .+2
 2995 0040 00C0      		rjmp .L300
 2996               	.LBB445:
 2997               	.LBB446:
 431:lib/lufa/LUFA/Drivers/USB/Core/AVR8/../AVR8/../AVR8/Endpoint_AVR8.h **** 			}
 2998               		.loc 2 431 0
 2999 0042 2091 E800 		lds r18,232
 3000               	.LVL311:
 3001               	.LBE446:
 3002               	.LBE445:
  52:lib/lufa/LUFA/Drivers/USB/Core/AVR8/Template/Template_Endpoint_Control_W.c **** 		  return ENDPOINT_RWCSTREAM_HostAborted;
 3003               		.loc 4 52 0
 3004 0046 23FD      		sbrc r18,3
 3005 0048 00C0      		rjmp .L301
 3006               	.LBB447:
 3007               	.LBB448:
 419:lib/lufa/LUFA/Drivers/USB/Core/AVR8/../AVR8/../AVR8/Endpoint_AVR8.h **** 			}
 3008               		.loc 2 419 0
 3009 004a 2091 E800 		lds r18,232
 3010               	.LBE448:
 3011               	.LBE447:
  54:lib/lufa/LUFA/Drivers/USB/Core/AVR8/Template/Template_Endpoint_Control_W.c **** 		  break;
 3012               		.loc 4 54 0
 3013 004e 22FD      		sbrc r18,2
 3014 0050 00C0      		rjmp .L307
 3015               	.LBB449:
 3016               	.LBB450:
 407:lib/lufa/LUFA/Drivers/USB/Core/AVR8/../AVR8/../AVR8/Endpoint_AVR8.h **** 			}
 3017               		.loc 2 407 0
 3018 0052 2091 E800 		lds r18,232
 3019               	.LBE450:
 3020               	.LBE449:
  57:lib/lufa/LUFA/Drivers/USB/Core/AVR8/Template/Template_Endpoint_Control_W.c **** 		{
 3021               		.loc 4 57 0
 3022 0056 20FF      		sbrs r18,0
 3023 0058 00C0      		rjmp .L288
 3024               	.LBB451:
 3025               	.LBB452:
 3026               	.LBB453:
 227:lib/lufa/LUFA/Drivers/USB/Core/AVR8/../AVR8/../AVR8/Endpoint_AVR8.h **** 				#elif defined(USB_SERIES_2_AVR)
 3027               		.loc 2 227 0
 3028 005a 4091 F300 		lds r20,243
 3029               	.LVL312:
 3030 005e 2091 F200 		lds r18,242
 3031 0062 30E0      		ldi r19,0
 3032 0064 342B      		or r19,r20
 3033               	.L289:
 3034               	.LVL313:
 3035               	.LBE453:
 3036               	.LBE452:
  61:lib/lufa/LUFA/Drivers/USB/Core/AVR8/Template/Template_Endpoint_Control_W.c **** 			{
 3037               		.loc 4 61 0
 3038 0066 6115      		cp r22,__zero_reg__
 3039 0068 7105      		cpc r23,__zero_reg__
 3040 006a 01F0      		breq .L290
  61:lib/lufa/LUFA/Drivers/USB/Core/AVR8/Template/Template_Endpoint_Control_W.c **** 			{
 3041               		.loc 4 61 0 is_stmt 0 discriminator 1
 3042 006c 2830      		cpi r18,8
 3043 006e 3105      		cpc r19,__zero_reg__
 3044 0070 00F4      		brsh .L290
 3045               	.LVL314:
 3046               	.LBB454:
  63:lib/lufa/LUFA/Drivers/USB/Core/AVR8/Template/Template_Endpoint_Control_W.c **** 				TEMPLATE_BUFFER_MOVE(DataStream, 1);
 3047               		.loc 4 63 0 is_stmt 1
 3048 0072 FC01      		movw r30,r24
 3049               	/* #APP */
 3050               	 ;  63 "lib/lufa/LUFA/Drivers/USB/Core/AVR8/Template/Template_Endpoint_Control_W.c" 1
 3051 0074 4491      		lpm r20, Z
 3052               		
 3053               	 ;  0 "" 2
 3054               	.LVL315:
 3055               	/* #NOAPP */
 3056               	.LBE454:
 3057               	.LBB455:
 3058               	.LBB456:
 554:lib/lufa/LUFA/Drivers/USB/Core/AVR8/../AVR8/../AVR8/Endpoint_AVR8.h **** 			}
 3059               		.loc 2 554 0
 3060 0076 4093 F100 		sts 241,r20
 3061               	.LVL316:
 3062               	.LBE456:
 3063               	.LBE455:
  64:lib/lufa/LUFA/Drivers/USB/Core/AVR8/Template/Template_Endpoint_Control_W.c **** 				Length--;
 3064               		.loc 4 64 0
 3065 007a 0197      		sbiw r24,1
 3066               	.LVL317:
  65:lib/lufa/LUFA/Drivers/USB/Core/AVR8/Template/Template_Endpoint_Control_W.c **** 				BytesInEndpoint++;
 3067               		.loc 4 65 0
 3068 007c 6150      		subi r22,1
 3069 007e 7109      		sbc r23,__zero_reg__
 3070               	.LVL318:
  66:lib/lufa/LUFA/Drivers/USB/Core/AVR8/Template/Template_Endpoint_Control_W.c **** 			}
 3071               		.loc 4 66 0
 3072 0080 2F5F      		subi r18,-1
 3073 0082 3F4F      		sbci r19,-1
 3074               	.LVL319:
 3075 0084 00C0      		rjmp .L289
 3076               	.LVL320:
 3077               	.L290:
  69:lib/lufa/LUFA/Drivers/USB/Core/AVR8/Template/Template_Endpoint_Control_W.c **** 			Endpoint_ClearIN();
 3078               		.loc 4 69 0
 3079 0086 41E0      		ldi r20,lo8(1)
 3080 0088 2830      		cpi r18,8
 3081 008a 3105      		cpc r19,__zero_reg__
 3082 008c 01F0      		breq .L292
 3083 008e 40E0      		ldi r20,0
 3084               	.L292:
 3085               	.LVL321:
 3086               	.LBB457:
 3087               	.LBB458:
 456:lib/lufa/LUFA/Drivers/USB/Core/AVR8/../AVR8/../AVR8/Endpoint_AVR8.h **** 				#else
 3088               		.loc 2 456 0
 3089 0090 2091 E800 		lds r18,232
 3090               	.LVL322:
 3091 0094 2E77      		andi r18,lo8(126)
 3092 0096 2093 E800 		sts 232,r18
 3093 009a 00C0      		rjmp .L288
 3094               	.L311:
 3095               	.LBE458:
 3096               	.LBE457:
 3097               	.LBE451:
 3098               	.LBE444:
  44:lib/lufa/LUFA/Drivers/USB/Core/AVR8/Template/Template_Endpoint_Control_W.c **** 	{
 3099               		.loc 4 44 0 discriminator 1
 3100 009c 4111      		cpse r20,__zero_reg__
 3101 009e 00C0      		rjmp .L293
 3102 00a0 00C0      		rjmp .L307
 3103               	.LVL323:
 3104               	.L294:
 3105               	.LBB459:
  76:lib/lufa/LUFA/Drivers/USB/Core/AVR8/Template/Template_Endpoint_Control_W.c **** 
 3106               		.loc 4 76 0
 3107 00a2 8091 0000 		lds r24,USB_DeviceState
 3108               	.LVL324:
  78:lib/lufa/LUFA/Drivers/USB/Core/AVR8/Template/Template_Endpoint_Control_W.c **** 		  return ENDPOINT_RWCSTREAM_DeviceDisconnected;
 3109               		.loc 4 78 0
 3110 00a6 8823      		tst r24
 3111 00a8 01F0      		breq .L299
  80:lib/lufa/LUFA/Drivers/USB/Core/AVR8/Template/Template_Endpoint_Control_W.c **** 		  return ENDPOINT_RWCSTREAM_BusSuspended;
 3112               		.loc 4 80 0
 3113 00aa 8530      		cpi r24,lo8(5)
 3114 00ac 01F0      		breq .L300
 3115               	.LBB460:
 3116               	.LBB461:
 431:lib/lufa/LUFA/Drivers/USB/Core/AVR8/../AVR8/../AVR8/Endpoint_AVR8.h **** 			}
 3117               		.loc 2 431 0
 3118 00ae 8091 E800 		lds r24,232
 3119               	.LVL325:
 3120               	.LBE461:
 3121               	.LBE460:
  82:lib/lufa/LUFA/Drivers/USB/Core/AVR8/Template/Template_Endpoint_Control_W.c **** 		  return ENDPOINT_RWCSTREAM_HostAborted;
 3122               		.loc 4 82 0
 3123 00b2 83FD      		sbrc r24,3
 3124 00b4 00C0      		rjmp .L301
 3125               	.L307:
 3126               	.LBE459:
 3127               	.LBB462:
 3128               	.LBB463:
 419:lib/lufa/LUFA/Drivers/USB/Core/AVR8/../AVR8/../AVR8/Endpoint_AVR8.h **** 			}
 3129               		.loc 2 419 0
 3130 00b6 8091 E800 		lds r24,232
 3131               	.LBE463:
 3132               	.LBE462:
  74:lib/lufa/LUFA/Drivers/USB/Core/AVR8/Template/Template_Endpoint_Control_W.c **** 	{
 3133               		.loc 4 74 0
 3134 00ba 82FF      		sbrs r24,2
 3135 00bc 00C0      		rjmp .L294
  86:lib/lufa/LUFA/Drivers/USB/Core/AVR8/Template/Template_Endpoint_Control_W.c **** }
 3136               		.loc 4 86 0
 3137 00be 80E0      		ldi r24,0
 3138 00c0 0895      		ret
 3139               	.L299:
 3140               	.LBB464:
  49:lib/lufa/LUFA/Drivers/USB/Core/AVR8/Template/Template_Endpoint_Control_W.c **** 		else if (USB_DeviceState_LCL == DEVICE_STATE_Suspended)
 3141               		.loc 4 49 0
 3142 00c2 82E0      		ldi r24,lo8(2)
 3143 00c4 0895      		ret
 3144               	.L300:
  51:lib/lufa/LUFA/Drivers/USB/Core/AVR8/Template/Template_Endpoint_Control_W.c **** 		else if (Endpoint_IsSETUPReceived())
 3145               		.loc 4 51 0
 3146 00c6 83E0      		ldi r24,lo8(3)
 3147 00c8 0895      		ret
 3148               	.L301:
  53:lib/lufa/LUFA/Drivers/USB/Core/AVR8/Template/Template_Endpoint_Control_W.c **** 		else if (Endpoint_IsOUTReceived())
 3149               		.loc 4 53 0
 3150 00ca 81E0      		ldi r24,lo8(1)
 3151               	.LBE464:
 3152               		.loc 4 87 0
 3153 00cc 0895      		ret
 3154               		.cfi_endproc
 3155               	.LFE102:
 3157               		.section	.text.Endpoint_Write_Control_EStream_LE,"ax",@progbits
 3158               	.global	Endpoint_Write_Control_EStream_LE
 3160               	Endpoint_Write_Control_EStream_LE:
 3161               	.LFB103:
  35:lib/lufa/LUFA/Drivers/USB/Core/AVR8/Template/Template_Endpoint_Control_W.c **** 	uint8_t* DataStream     = ((uint8_t*)Buffer + TEMPLATE_BUFFER_OFFSET(Length));
 3162               		.loc 4 35 0
 3163               		.cfi_startproc
 3164               	.LVL326:
 3165 0000 CF92      		push r12
 3166               	.LCFI92:
 3167               		.cfi_def_cfa_offset 3
 3168               		.cfi_offset 12, -2
 3169 0002 DF92      		push r13
 3170               	.LCFI93:
 3171               		.cfi_def_cfa_offset 4
 3172               		.cfi_offset 13, -3
 3173 0004 EF92      		push r14
