   1               		.file	"CDCClassDevice.c"
   2               	__SP_H__ = 0x3e
   3               	__SP_L__ = 0x3d
   4               	__SREG__ = 0x3f
   5               	__tmp_reg__ = 0
   6               	__zero_reg__ = 1
   7               		.text
   8               	.Ltext0:
   9               		.cfi_sections	.debug_frame
  10               		.section	.text.CDC_Device_ConfigureEndpoints,"ax",@progbits
  11               	.global	CDC_Device_ConfigureEndpoints
  13               	CDC_Device_ConfigureEndpoints:
  14               	.LFB101:
  15               		.file 1 "lib/lufa/LUFA/Drivers/USB/Class/Device/CDCClassDevice.c"
   1:lib/lufa/LUFA/Drivers/USB/Class/Device/CDCClassDevice.c **** /*
   2:lib/lufa/LUFA/Drivers/USB/Class/Device/CDCClassDevice.c ****              LUFA Library
   3:lib/lufa/LUFA/Drivers/USB/Class/Device/CDCClassDevice.c ****      Copyright (C) Dean Camera, 2017.
   4:lib/lufa/LUFA/Drivers/USB/Class/Device/CDCClassDevice.c **** 
   5:lib/lufa/LUFA/Drivers/USB/Class/Device/CDCClassDevice.c ****   dean [at] fourwalledcubicle [dot] com
   6:lib/lufa/LUFA/Drivers/USB/Class/Device/CDCClassDevice.c ****            www.lufa-lib.org
   7:lib/lufa/LUFA/Drivers/USB/Class/Device/CDCClassDevice.c **** */
   8:lib/lufa/LUFA/Drivers/USB/Class/Device/CDCClassDevice.c **** 
   9:lib/lufa/LUFA/Drivers/USB/Class/Device/CDCClassDevice.c **** /*
  10:lib/lufa/LUFA/Drivers/USB/Class/Device/CDCClassDevice.c ****   Copyright 2017  Dean Camera (dean [at] fourwalledcubicle [dot] com)
  11:lib/lufa/LUFA/Drivers/USB/Class/Device/CDCClassDevice.c **** 
  12:lib/lufa/LUFA/Drivers/USB/Class/Device/CDCClassDevice.c ****   Permission to use, copy, modify, distribute, and sell this
  13:lib/lufa/LUFA/Drivers/USB/Class/Device/CDCClassDevice.c ****   software and its documentation for any purpose is hereby granted
  14:lib/lufa/LUFA/Drivers/USB/Class/Device/CDCClassDevice.c ****   without fee, provided that the above copyright notice appear in
  15:lib/lufa/LUFA/Drivers/USB/Class/Device/CDCClassDevice.c ****   all copies and that both that the copyright notice and this
  16:lib/lufa/LUFA/Drivers/USB/Class/Device/CDCClassDevice.c ****   permission notice and warranty disclaimer appear in supporting
  17:lib/lufa/LUFA/Drivers/USB/Class/Device/CDCClassDevice.c ****   documentation, and that the name of the author not be used in
  18:lib/lufa/LUFA/Drivers/USB/Class/Device/CDCClassDevice.c ****   advertising or publicity pertaining to distribution of the
  19:lib/lufa/LUFA/Drivers/USB/Class/Device/CDCClassDevice.c ****   software without specific, written prior permission.
  20:lib/lufa/LUFA/Drivers/USB/Class/Device/CDCClassDevice.c **** 
  21:lib/lufa/LUFA/Drivers/USB/Class/Device/CDCClassDevice.c ****   The author disclaims all warranties with regard to this
  22:lib/lufa/LUFA/Drivers/USB/Class/Device/CDCClassDevice.c ****   software, including all implied warranties of merchantability
  23:lib/lufa/LUFA/Drivers/USB/Class/Device/CDCClassDevice.c ****   and fitness.  In no event shall the author be liable for any
  24:lib/lufa/LUFA/Drivers/USB/Class/Device/CDCClassDevice.c ****   special, indirect or consequential damages or any damages
  25:lib/lufa/LUFA/Drivers/USB/Class/Device/CDCClassDevice.c ****   whatsoever resulting from loss of use, data or profits, whether
  26:lib/lufa/LUFA/Drivers/USB/Class/Device/CDCClassDevice.c ****   in an action of contract, negligence or other tortious action,
  27:lib/lufa/LUFA/Drivers/USB/Class/Device/CDCClassDevice.c ****   arising out of or in connection with the use or performance of
  28:lib/lufa/LUFA/Drivers/USB/Class/Device/CDCClassDevice.c ****   this software.
  29:lib/lufa/LUFA/Drivers/USB/Class/Device/CDCClassDevice.c **** */
  30:lib/lufa/LUFA/Drivers/USB/Class/Device/CDCClassDevice.c **** 
  31:lib/lufa/LUFA/Drivers/USB/Class/Device/CDCClassDevice.c **** #define  __INCLUDE_FROM_USB_DRIVER
  32:lib/lufa/LUFA/Drivers/USB/Class/Device/CDCClassDevice.c **** #include "../../Core/USBMode.h"
  33:lib/lufa/LUFA/Drivers/USB/Class/Device/CDCClassDevice.c **** 
  34:lib/lufa/LUFA/Drivers/USB/Class/Device/CDCClassDevice.c **** #if defined(USB_CAN_BE_DEVICE)
  35:lib/lufa/LUFA/Drivers/USB/Class/Device/CDCClassDevice.c **** 
  36:lib/lufa/LUFA/Drivers/USB/Class/Device/CDCClassDevice.c **** #define  __INCLUDE_FROM_CDC_DRIVER
  37:lib/lufa/LUFA/Drivers/USB/Class/Device/CDCClassDevice.c **** #define  __INCLUDE_FROM_CDC_DEVICE_C
  38:lib/lufa/LUFA/Drivers/USB/Class/Device/CDCClassDevice.c **** #include "CDCClassDevice.h"
  39:lib/lufa/LUFA/Drivers/USB/Class/Device/CDCClassDevice.c **** 
  40:lib/lufa/LUFA/Drivers/USB/Class/Device/CDCClassDevice.c **** void CDC_Device_ProcessControlRequest(USB_ClassInfo_CDC_Device_t* const CDCInterfaceInfo)
  41:lib/lufa/LUFA/Drivers/USB/Class/Device/CDCClassDevice.c **** {
  42:lib/lufa/LUFA/Drivers/USB/Class/Device/CDCClassDevice.c **** 	if (!(Endpoint_IsSETUPReceived()))
  43:lib/lufa/LUFA/Drivers/USB/Class/Device/CDCClassDevice.c **** 	  return;
  44:lib/lufa/LUFA/Drivers/USB/Class/Device/CDCClassDevice.c **** 
  45:lib/lufa/LUFA/Drivers/USB/Class/Device/CDCClassDevice.c **** 	if (USB_ControlRequest.wIndex != CDCInterfaceInfo->Config.ControlInterfaceNumber)
  46:lib/lufa/LUFA/Drivers/USB/Class/Device/CDCClassDevice.c **** 	  return;
  47:lib/lufa/LUFA/Drivers/USB/Class/Device/CDCClassDevice.c **** 
  48:lib/lufa/LUFA/Drivers/USB/Class/Device/CDCClassDevice.c **** 	switch (USB_ControlRequest.bRequest)
  49:lib/lufa/LUFA/Drivers/USB/Class/Device/CDCClassDevice.c **** 	{
  50:lib/lufa/LUFA/Drivers/USB/Class/Device/CDCClassDevice.c **** 		case CDC_REQ_GetLineEncoding:
  51:lib/lufa/LUFA/Drivers/USB/Class/Device/CDCClassDevice.c **** 			if (USB_ControlRequest.bmRequestType == (REQDIR_DEVICETOHOST | REQTYPE_CLASS | REQREC_INTERFACE)
  52:lib/lufa/LUFA/Drivers/USB/Class/Device/CDCClassDevice.c **** 			{
  53:lib/lufa/LUFA/Drivers/USB/Class/Device/CDCClassDevice.c **** 				Endpoint_ClearSETUP();
  54:lib/lufa/LUFA/Drivers/USB/Class/Device/CDCClassDevice.c **** 
  55:lib/lufa/LUFA/Drivers/USB/Class/Device/CDCClassDevice.c **** 				while (!(Endpoint_IsINReady()));
  56:lib/lufa/LUFA/Drivers/USB/Class/Device/CDCClassDevice.c **** 
  57:lib/lufa/LUFA/Drivers/USB/Class/Device/CDCClassDevice.c **** 				Endpoint_Write_32_LE(CDCInterfaceInfo->State.LineEncoding.BaudRateBPS);
  58:lib/lufa/LUFA/Drivers/USB/Class/Device/CDCClassDevice.c **** 				Endpoint_Write_8(CDCInterfaceInfo->State.LineEncoding.CharFormat);
  59:lib/lufa/LUFA/Drivers/USB/Class/Device/CDCClassDevice.c **** 				Endpoint_Write_8(CDCInterfaceInfo->State.LineEncoding.ParityType);
  60:lib/lufa/LUFA/Drivers/USB/Class/Device/CDCClassDevice.c **** 				Endpoint_Write_8(CDCInterfaceInfo->State.LineEncoding.DataBits);
  61:lib/lufa/LUFA/Drivers/USB/Class/Device/CDCClassDevice.c **** 
  62:lib/lufa/LUFA/Drivers/USB/Class/Device/CDCClassDevice.c **** 				Endpoint_ClearIN();
  63:lib/lufa/LUFA/Drivers/USB/Class/Device/CDCClassDevice.c **** 				Endpoint_ClearStatusStage();
  64:lib/lufa/LUFA/Drivers/USB/Class/Device/CDCClassDevice.c **** 			}
  65:lib/lufa/LUFA/Drivers/USB/Class/Device/CDCClassDevice.c **** 
  66:lib/lufa/LUFA/Drivers/USB/Class/Device/CDCClassDevice.c **** 			break;
  67:lib/lufa/LUFA/Drivers/USB/Class/Device/CDCClassDevice.c **** 		case CDC_REQ_SetLineEncoding:
  68:lib/lufa/LUFA/Drivers/USB/Class/Device/CDCClassDevice.c **** 			if (USB_ControlRequest.bmRequestType == (REQDIR_HOSTTODEVICE | REQTYPE_CLASS | REQREC_INTERFACE)
  69:lib/lufa/LUFA/Drivers/USB/Class/Device/CDCClassDevice.c **** 			{
  70:lib/lufa/LUFA/Drivers/USB/Class/Device/CDCClassDevice.c **** 				Endpoint_ClearSETUP();
  71:lib/lufa/LUFA/Drivers/USB/Class/Device/CDCClassDevice.c **** 
  72:lib/lufa/LUFA/Drivers/USB/Class/Device/CDCClassDevice.c **** 				while (!(Endpoint_IsOUTReceived()))
  73:lib/lufa/LUFA/Drivers/USB/Class/Device/CDCClassDevice.c **** 				{
  74:lib/lufa/LUFA/Drivers/USB/Class/Device/CDCClassDevice.c **** 					if (USB_DeviceState == DEVICE_STATE_Unattached)
  75:lib/lufa/LUFA/Drivers/USB/Class/Device/CDCClassDevice.c **** 					  return;
  76:lib/lufa/LUFA/Drivers/USB/Class/Device/CDCClassDevice.c **** 				}
  77:lib/lufa/LUFA/Drivers/USB/Class/Device/CDCClassDevice.c **** 
  78:lib/lufa/LUFA/Drivers/USB/Class/Device/CDCClassDevice.c **** 				CDCInterfaceInfo->State.LineEncoding.BaudRateBPS = Endpoint_Read_32_LE();
  79:lib/lufa/LUFA/Drivers/USB/Class/Device/CDCClassDevice.c **** 				CDCInterfaceInfo->State.LineEncoding.CharFormat  = Endpoint_Read_8();
  80:lib/lufa/LUFA/Drivers/USB/Class/Device/CDCClassDevice.c **** 				CDCInterfaceInfo->State.LineEncoding.ParityType  = Endpoint_Read_8();
  81:lib/lufa/LUFA/Drivers/USB/Class/Device/CDCClassDevice.c **** 				CDCInterfaceInfo->State.LineEncoding.DataBits    = Endpoint_Read_8();
  82:lib/lufa/LUFA/Drivers/USB/Class/Device/CDCClassDevice.c **** 
  83:lib/lufa/LUFA/Drivers/USB/Class/Device/CDCClassDevice.c **** 				Endpoint_ClearOUT();
  84:lib/lufa/LUFA/Drivers/USB/Class/Device/CDCClassDevice.c **** 				Endpoint_ClearStatusStage();
  85:lib/lufa/LUFA/Drivers/USB/Class/Device/CDCClassDevice.c **** 
  86:lib/lufa/LUFA/Drivers/USB/Class/Device/CDCClassDevice.c **** 				EVENT_CDC_Device_LineEncodingChanged(CDCInterfaceInfo);
  87:lib/lufa/LUFA/Drivers/USB/Class/Device/CDCClassDevice.c **** 			}
  88:lib/lufa/LUFA/Drivers/USB/Class/Device/CDCClassDevice.c **** 
  89:lib/lufa/LUFA/Drivers/USB/Class/Device/CDCClassDevice.c **** 			break;
  90:lib/lufa/LUFA/Drivers/USB/Class/Device/CDCClassDevice.c **** 		case CDC_REQ_SetControlLineState:
  91:lib/lufa/LUFA/Drivers/USB/Class/Device/CDCClassDevice.c **** 			if (USB_ControlRequest.bmRequestType == (REQDIR_HOSTTODEVICE | REQTYPE_CLASS | REQREC_INTERFACE)
  92:lib/lufa/LUFA/Drivers/USB/Class/Device/CDCClassDevice.c **** 			{
  93:lib/lufa/LUFA/Drivers/USB/Class/Device/CDCClassDevice.c **** 				Endpoint_ClearSETUP();
  94:lib/lufa/LUFA/Drivers/USB/Class/Device/CDCClassDevice.c **** 				Endpoint_ClearStatusStage();
  95:lib/lufa/LUFA/Drivers/USB/Class/Device/CDCClassDevice.c **** 
  96:lib/lufa/LUFA/Drivers/USB/Class/Device/CDCClassDevice.c **** 				CDCInterfaceInfo->State.ControlLineStates.HostToDevice = USB_ControlRequest.wValue;
  97:lib/lufa/LUFA/Drivers/USB/Class/Device/CDCClassDevice.c **** 
  98:lib/lufa/LUFA/Drivers/USB/Class/Device/CDCClassDevice.c **** 				EVENT_CDC_Device_ControLineStateChanged(CDCInterfaceInfo);
  99:lib/lufa/LUFA/Drivers/USB/Class/Device/CDCClassDevice.c **** 			}
 100:lib/lufa/LUFA/Drivers/USB/Class/Device/CDCClassDevice.c **** 
 101:lib/lufa/LUFA/Drivers/USB/Class/Device/CDCClassDevice.c **** 			break;
 102:lib/lufa/LUFA/Drivers/USB/Class/Device/CDCClassDevice.c **** 		case CDC_REQ_SendBreak:
 103:lib/lufa/LUFA/Drivers/USB/Class/Device/CDCClassDevice.c **** 			if (USB_ControlRequest.bmRequestType == (REQDIR_HOSTTODEVICE | REQTYPE_CLASS | REQREC_INTERFACE)
 104:lib/lufa/LUFA/Drivers/USB/Class/Device/CDCClassDevice.c **** 			{
 105:lib/lufa/LUFA/Drivers/USB/Class/Device/CDCClassDevice.c **** 				Endpoint_ClearSETUP();
 106:lib/lufa/LUFA/Drivers/USB/Class/Device/CDCClassDevice.c **** 				Endpoint_ClearStatusStage();
 107:lib/lufa/LUFA/Drivers/USB/Class/Device/CDCClassDevice.c **** 
 108:lib/lufa/LUFA/Drivers/USB/Class/Device/CDCClassDevice.c **** 				EVENT_CDC_Device_BreakSent(CDCInterfaceInfo, (uint8_t)USB_ControlRequest.wValue);
 109:lib/lufa/LUFA/Drivers/USB/Class/Device/CDCClassDevice.c **** 			}
 110:lib/lufa/LUFA/Drivers/USB/Class/Device/CDCClassDevice.c **** 
 111:lib/lufa/LUFA/Drivers/USB/Class/Device/CDCClassDevice.c **** 			break;
 112:lib/lufa/LUFA/Drivers/USB/Class/Device/CDCClassDevice.c **** 	}
 113:lib/lufa/LUFA/Drivers/USB/Class/Device/CDCClassDevice.c **** }
 114:lib/lufa/LUFA/Drivers/USB/Class/Device/CDCClassDevice.c **** 
 115:lib/lufa/LUFA/Drivers/USB/Class/Device/CDCClassDevice.c **** bool CDC_Device_ConfigureEndpoints(USB_ClassInfo_CDC_Device_t* const CDCInterfaceInfo)
 116:lib/lufa/LUFA/Drivers/USB/Class/Device/CDCClassDevice.c **** {
  16               		.loc 1 116 0
  17               		.cfi_startproc
  18               	.LVL0:
  19 0000 CF93      		push r28
  20               	.LCFI0:
  21               		.cfi_def_cfa_offset 3
  22               		.cfi_offset 28, -2
  23 0002 DF93      		push r29
  24               	.LCFI1:
  25               		.cfi_def_cfa_offset 4
  26               		.cfi_offset 29, -3
  27               	/* prologue: function */
  28               	/* frame size = 0 */
  29               	/* stack size = 2 */
  30               	.L__stack_usage = 2
  31 0004 EC01      		movw r28,r24
 117:lib/lufa/LUFA/Drivers/USB/Class/Device/CDCClassDevice.c **** 	memset(&CDCInterfaceInfo->State, 0x00, sizeof(CDCInterfaceInfo->State));
  32               		.loc 1 117 0
  33 0006 FC01      		movw r30,r24
  34 0008 7096      		adiw r30,16
  35 000a 8BE0      		ldi r24,lo8(11)
  36               	.LVL1:
  37 000c DF01      		movw r26,r30
  38               		0:
  39 000e 1D92      		st X+,__zero_reg__
  40 0010 8A95      		dec r24
  41 0012 01F4      		brne 0b
 118:lib/lufa/LUFA/Drivers/USB/Class/Device/CDCClassDevice.c **** 
 119:lib/lufa/LUFA/Drivers/USB/Class/Device/CDCClassDevice.c **** 	CDCInterfaceInfo->Config.DataINEndpoint.Type       = EP_TYPE_BULK;
  42               		.loc 1 119 0
  43 0014 82E0      		ldi r24,lo8(2)
  44 0016 8C83      		std Y+4,r24
 120:lib/lufa/LUFA/Drivers/USB/Class/Device/CDCClassDevice.c **** 	CDCInterfaceInfo->Config.DataOUTEndpoint.Type      = EP_TYPE_BULK;
  45               		.loc 1 120 0
  46 0018 8987      		std Y+9,r24
 121:lib/lufa/LUFA/Drivers/USB/Class/Device/CDCClassDevice.c **** 	CDCInterfaceInfo->Config.NotificationEndpoint.Type = EP_TYPE_INTERRUPT;
  47               		.loc 1 121 0
  48 001a 83E0      		ldi r24,lo8(3)
  49 001c 8E87      		std Y+14,r24
 122:lib/lufa/LUFA/Drivers/USB/Class/Device/CDCClassDevice.c **** 
 123:lib/lufa/LUFA/Drivers/USB/Class/Device/CDCClassDevice.c **** 	if (!(Endpoint_ConfigureEndpointTable(&CDCInterfaceInfo->Config.DataINEndpoint, 1)))
  50               		.loc 1 123 0
  51 001e 61E0      		ldi r22,lo8(1)
  52 0020 CE01      		movw r24,r28
  53 0022 0196      		adiw r24,1
  54 0024 0E94 0000 		call Endpoint_ConfigureEndpointTable
  55               	.LVL2:
  56 0028 8823      		tst r24
  57 002a 01F0      		breq .L3
 124:lib/lufa/LUFA/Drivers/USB/Class/Device/CDCClassDevice.c **** 	  return false;
 125:lib/lufa/LUFA/Drivers/USB/Class/Device/CDCClassDevice.c **** 
 126:lib/lufa/LUFA/Drivers/USB/Class/Device/CDCClassDevice.c **** 	if (!(Endpoint_ConfigureEndpointTable(&CDCInterfaceInfo->Config.DataOUTEndpoint, 1)))
  58               		.loc 1 126 0
  59 002c 61E0      		ldi r22,lo8(1)
  60 002e CE01      		movw r24,r28
  61 0030 0696      		adiw r24,6
  62 0032 0E94 0000 		call Endpoint_ConfigureEndpointTable
  63               	.LVL3:
  64 0036 8823      		tst r24
  65 0038 01F0      		breq .L3
 127:lib/lufa/LUFA/Drivers/USB/Class/Device/CDCClassDevice.c **** 	  return false;
 128:lib/lufa/LUFA/Drivers/USB/Class/Device/CDCClassDevice.c **** 
 129:lib/lufa/LUFA/Drivers/USB/Class/Device/CDCClassDevice.c **** 	if (!(Endpoint_ConfigureEndpointTable(&CDCInterfaceInfo->Config.NotificationEndpoint, 1)))
  66               		.loc 1 129 0
  67 003a 61E0      		ldi r22,lo8(1)
  68 003c CE01      		movw r24,r28
  69 003e 0B96      		adiw r24,11
  70               	/* epilogue start */
 130:lib/lufa/LUFA/Drivers/USB/Class/Device/CDCClassDevice.c **** 	  return false;
 131:lib/lufa/LUFA/Drivers/USB/Class/Device/CDCClassDevice.c **** 
 132:lib/lufa/LUFA/Drivers/USB/Class/Device/CDCClassDevice.c **** 	return true;
 133:lib/lufa/LUFA/Drivers/USB/Class/Device/CDCClassDevice.c **** }
  71               		.loc 1 133 0
  72 0040 DF91      		pop r29
  73 0042 CF91      		pop r28
  74               	.LVL4:
 129:lib/lufa/LUFA/Drivers/USB/Class/Device/CDCClassDevice.c **** 	  return false;
  75               		.loc 1 129 0
  76 0044 0C94 0000 		jmp Endpoint_ConfigureEndpointTable
  77               	.LVL5:
  78               	.L3:
  79               		.loc 1 133 0
  80 0048 80E0      		ldi r24,0
  81               	/* epilogue start */
  82 004a DF91      		pop r29
  83 004c CF91      		pop r28
  84               	.LVL6:
  85 004e 0895      		ret
  86               		.cfi_endproc
  87               	.LFE101:
  89               		.section	.text.CDC_Device_SendString,"ax",@progbits
  90               	.global	CDC_Device_SendString
  92               	CDC_Device_SendString:
  93               	.LFB103:
 134:lib/lufa/LUFA/Drivers/USB/Class/Device/CDCClassDevice.c **** 
 135:lib/lufa/LUFA/Drivers/USB/Class/Device/CDCClassDevice.c **** void CDC_Device_USBTask(USB_ClassInfo_CDC_Device_t* const CDCInterfaceInfo)
 136:lib/lufa/LUFA/Drivers/USB/Class/Device/CDCClassDevice.c **** {
 137:lib/lufa/LUFA/Drivers/USB/Class/Device/CDCClassDevice.c **** 	if ((USB_DeviceState != DEVICE_STATE_Configured) || !(CDCInterfaceInfo->State.LineEncoding.BaudRat
 138:lib/lufa/LUFA/Drivers/USB/Class/Device/CDCClassDevice.c **** 	  return;
 139:lib/lufa/LUFA/Drivers/USB/Class/Device/CDCClassDevice.c **** 
 140:lib/lufa/LUFA/Drivers/USB/Class/Device/CDCClassDevice.c **** 	#if !defined(NO_CLASS_DRIVER_AUTOFLUSH)
 141:lib/lufa/LUFA/Drivers/USB/Class/Device/CDCClassDevice.c **** 	Endpoint_SelectEndpoint(CDCInterfaceInfo->Config.DataINEndpoint.Address);
 142:lib/lufa/LUFA/Drivers/USB/Class/Device/CDCClassDevice.c **** 
 143:lib/lufa/LUFA/Drivers/USB/Class/Device/CDCClassDevice.c **** 	if (Endpoint_IsINReady())
 144:lib/lufa/LUFA/Drivers/USB/Class/Device/CDCClassDevice.c **** 	  CDC_Device_Flush(CDCInterfaceInfo);
 145:lib/lufa/LUFA/Drivers/USB/Class/Device/CDCClassDevice.c **** 	#endif
 146:lib/lufa/LUFA/Drivers/USB/Class/Device/CDCClassDevice.c **** }
 147:lib/lufa/LUFA/Drivers/USB/Class/Device/CDCClassDevice.c **** 
 148:lib/lufa/LUFA/Drivers/USB/Class/Device/CDCClassDevice.c **** uint8_t CDC_Device_SendString(USB_ClassInfo_CDC_Device_t* const CDCInterfaceInfo,
 149:lib/lufa/LUFA/Drivers/USB/Class/Device/CDCClassDevice.c ****                               const char* const String)
 150:lib/lufa/LUFA/Drivers/USB/Class/Device/CDCClassDevice.c **** {
  94               		.loc 1 150 0
  95               		.cfi_startproc
  96               	.LVL7:
  97               	/* prologue: function */
  98               	/* frame size = 0 */
  99               	/* stack size = 0 */
 100               	.L__stack_usage = 0
 101 0000 DB01      		movw r26,r22
 151:lib/lufa/LUFA/Drivers/USB/Class/Device/CDCClassDevice.c **** 	if ((USB_DeviceState != DEVICE_STATE_Configured) || !(CDCInterfaceInfo->State.LineEncoding.BaudRat
 102               		.loc 1 151 0
 103 0002 2091 0000 		lds r18,USB_DeviceState
 104 0006 2430      		cpi r18,lo8(4)
 105 0008 01F4      		brne .L10
 106               		.loc 1 151 0 is_stmt 0 discriminator 1
 107 000a FC01      		movw r30,r24
 108 000c 4489      		ldd r20,Z+20
 109 000e 5589      		ldd r21,Z+21
 110 0010 6689      		ldd r22,Z+22
 111 0012 7789      		ldd r23,Z+23
 112 0014 452B      		or r20,r21
 113 0016 462B      		or r20,r22
 114 0018 472B      		or r20,r23
 115 001a 01F0      		breq .L10
 116               	.LBB95:
 117               	.LBB96:
 118               		.file 2 "lib/lufa/LUFA/Drivers/USB/Class/Device/../../Core/AVR8/../AVR8/Endpoint_AVR8.h"
   1:lib/lufa/LUFA/Drivers/USB/Class/Device/../../Core/AVR8/../AVR8/Endpoint_AVR8.h **** /*
   2:lib/lufa/LUFA/Drivers/USB/Class/Device/../../Core/AVR8/../AVR8/Endpoint_AVR8.h ****              LUFA Library
   3:lib/lufa/LUFA/Drivers/USB/Class/Device/../../Core/AVR8/../AVR8/Endpoint_AVR8.h ****      Copyright (C) Dean Camera, 2017.
   4:lib/lufa/LUFA/Drivers/USB/Class/Device/../../Core/AVR8/../AVR8/Endpoint_AVR8.h **** 
   5:lib/lufa/LUFA/Drivers/USB/Class/Device/../../Core/AVR8/../AVR8/Endpoint_AVR8.h ****   dean [at] fourwalledcubicle [dot] com
   6:lib/lufa/LUFA/Drivers/USB/Class/Device/../../Core/AVR8/../AVR8/Endpoint_AVR8.h ****            www.lufa-lib.org
   7:lib/lufa/LUFA/Drivers/USB/Class/Device/../../Core/AVR8/../AVR8/Endpoint_AVR8.h **** */
   8:lib/lufa/LUFA/Drivers/USB/Class/Device/../../Core/AVR8/../AVR8/Endpoint_AVR8.h **** 
   9:lib/lufa/LUFA/Drivers/USB/Class/Device/../../Core/AVR8/../AVR8/Endpoint_AVR8.h **** /*
  10:lib/lufa/LUFA/Drivers/USB/Class/Device/../../Core/AVR8/../AVR8/Endpoint_AVR8.h ****   Copyright 2017  Dean Camera (dean [at] fourwalledcubicle [dot] com)
  11:lib/lufa/LUFA/Drivers/USB/Class/Device/../../Core/AVR8/../AVR8/Endpoint_AVR8.h **** 
  12:lib/lufa/LUFA/Drivers/USB/Class/Device/../../Core/AVR8/../AVR8/Endpoint_AVR8.h ****   Permission to use, copy, modify, distribute, and sell this
  13:lib/lufa/LUFA/Drivers/USB/Class/Device/../../Core/AVR8/../AVR8/Endpoint_AVR8.h ****   software and its documentation for any purpose is hereby granted
  14:lib/lufa/LUFA/Drivers/USB/Class/Device/../../Core/AVR8/../AVR8/Endpoint_AVR8.h ****   without fee, provided that the above copyright notice appear in
  15:lib/lufa/LUFA/Drivers/USB/Class/Device/../../Core/AVR8/../AVR8/Endpoint_AVR8.h ****   all copies and that both that the copyright notice and this
  16:lib/lufa/LUFA/Drivers/USB/Class/Device/../../Core/AVR8/../AVR8/Endpoint_AVR8.h ****   permission notice and warranty disclaimer appear in supporting
  17:lib/lufa/LUFA/Drivers/USB/Class/Device/../../Core/AVR8/../AVR8/Endpoint_AVR8.h ****   documentation, and that the name of the author not be used in
  18:lib/lufa/LUFA/Drivers/USB/Class/Device/../../Core/AVR8/../AVR8/Endpoint_AVR8.h ****   advertising or publicity pertaining to distribution of the
  19:lib/lufa/LUFA/Drivers/USB/Class/Device/../../Core/AVR8/../AVR8/Endpoint_AVR8.h ****   software without specific, written prior permission.
  20:lib/lufa/LUFA/Drivers/USB/Class/Device/../../Core/AVR8/../AVR8/Endpoint_AVR8.h **** 
  21:lib/lufa/LUFA/Drivers/USB/Class/Device/../../Core/AVR8/../AVR8/Endpoint_AVR8.h ****   The author disclaims all warranties with regard to this
  22:lib/lufa/LUFA/Drivers/USB/Class/Device/../../Core/AVR8/../AVR8/Endpoint_AVR8.h ****   software, including all implied warranties of merchantability
  23:lib/lufa/LUFA/Drivers/USB/Class/Device/../../Core/AVR8/../AVR8/Endpoint_AVR8.h ****   and fitness.  In no event shall the author be liable for any
  24:lib/lufa/LUFA/Drivers/USB/Class/Device/../../Core/AVR8/../AVR8/Endpoint_AVR8.h ****   special, indirect or consequential damages or any damages
  25:lib/lufa/LUFA/Drivers/USB/Class/Device/../../Core/AVR8/../AVR8/Endpoint_AVR8.h ****   whatsoever resulting from loss of use, data or profits, whether
  26:lib/lufa/LUFA/Drivers/USB/Class/Device/../../Core/AVR8/../AVR8/Endpoint_AVR8.h ****   in an action of contract, negligence or other tortious action,
  27:lib/lufa/LUFA/Drivers/USB/Class/Device/../../Core/AVR8/../AVR8/Endpoint_AVR8.h ****   arising out of or in connection with the use or performance of
  28:lib/lufa/LUFA/Drivers/USB/Class/Device/../../Core/AVR8/../AVR8/Endpoint_AVR8.h ****   this software.
  29:lib/lufa/LUFA/Drivers/USB/Class/Device/../../Core/AVR8/../AVR8/Endpoint_AVR8.h **** */
  30:lib/lufa/LUFA/Drivers/USB/Class/Device/../../Core/AVR8/../AVR8/Endpoint_AVR8.h **** 
  31:lib/lufa/LUFA/Drivers/USB/Class/Device/../../Core/AVR8/../AVR8/Endpoint_AVR8.h **** /** \file
  32:lib/lufa/LUFA/Drivers/USB/Class/Device/../../Core/AVR8/../AVR8/Endpoint_AVR8.h ****  *  \brief USB Endpoint definitions for the AVR8 microcontrollers.
  33:lib/lufa/LUFA/Drivers/USB/Class/Device/../../Core/AVR8/../AVR8/Endpoint_AVR8.h ****  *  \copydetails Group_EndpointManagement_AVR8
  34:lib/lufa/LUFA/Drivers/USB/Class/Device/../../Core/AVR8/../AVR8/Endpoint_AVR8.h ****  *
  35:lib/lufa/LUFA/Drivers/USB/Class/Device/../../Core/AVR8/../AVR8/Endpoint_AVR8.h ****  *  \note This file should not be included directly. It is automatically included as needed by the 
  36:lib/lufa/LUFA/Drivers/USB/Class/Device/../../Core/AVR8/../AVR8/Endpoint_AVR8.h ****  *        dispatch header located in LUFA/Drivers/USB/USB.h.
  37:lib/lufa/LUFA/Drivers/USB/Class/Device/../../Core/AVR8/../AVR8/Endpoint_AVR8.h ****  */
  38:lib/lufa/LUFA/Drivers/USB/Class/Device/../../Core/AVR8/../AVR8/Endpoint_AVR8.h **** 
  39:lib/lufa/LUFA/Drivers/USB/Class/Device/../../Core/AVR8/../AVR8/Endpoint_AVR8.h **** /** \ingroup Group_EndpointRW
  40:lib/lufa/LUFA/Drivers/USB/Class/Device/../../Core/AVR8/../AVR8/Endpoint_AVR8.h ****  *  \defgroup Group_EndpointRW_AVR8 Endpoint Data Reading and Writing (AVR8)
  41:lib/lufa/LUFA/Drivers/USB/Class/Device/../../Core/AVR8/../AVR8/Endpoint_AVR8.h ****  *  \brief Endpoint data read/write definitions for the Atmel AVR8 architecture.
  42:lib/lufa/LUFA/Drivers/USB/Class/Device/../../Core/AVR8/../AVR8/Endpoint_AVR8.h ****  *
  43:lib/lufa/LUFA/Drivers/USB/Class/Device/../../Core/AVR8/../AVR8/Endpoint_AVR8.h ****  *  Functions, macros, variables, enums and types related to data reading and writing from and to e
  44:lib/lufa/LUFA/Drivers/USB/Class/Device/../../Core/AVR8/../AVR8/Endpoint_AVR8.h ****  */
  45:lib/lufa/LUFA/Drivers/USB/Class/Device/../../Core/AVR8/../AVR8/Endpoint_AVR8.h **** 
  46:lib/lufa/LUFA/Drivers/USB/Class/Device/../../Core/AVR8/../AVR8/Endpoint_AVR8.h **** /** \ingroup Group_EndpointPrimitiveRW
  47:lib/lufa/LUFA/Drivers/USB/Class/Device/../../Core/AVR8/../AVR8/Endpoint_AVR8.h ****  *  \defgroup Group_EndpointPrimitiveRW_AVR8 Read/Write of Primitive Data Types (AVR8)
  48:lib/lufa/LUFA/Drivers/USB/Class/Device/../../Core/AVR8/../AVR8/Endpoint_AVR8.h ****  *  \brief Endpoint primitive read/write definitions for the Atmel AVR8 architecture.
  49:lib/lufa/LUFA/Drivers/USB/Class/Device/../../Core/AVR8/../AVR8/Endpoint_AVR8.h ****  *
  50:lib/lufa/LUFA/Drivers/USB/Class/Device/../../Core/AVR8/../AVR8/Endpoint_AVR8.h ****  *  Functions, macros, variables, enums and types related to data reading and writing of primitive 
  51:lib/lufa/LUFA/Drivers/USB/Class/Device/../../Core/AVR8/../AVR8/Endpoint_AVR8.h ****  *  from and to endpoints.
  52:lib/lufa/LUFA/Drivers/USB/Class/Device/../../Core/AVR8/../AVR8/Endpoint_AVR8.h ****  */
  53:lib/lufa/LUFA/Drivers/USB/Class/Device/../../Core/AVR8/../AVR8/Endpoint_AVR8.h **** 
  54:lib/lufa/LUFA/Drivers/USB/Class/Device/../../Core/AVR8/../AVR8/Endpoint_AVR8.h **** /** \ingroup Group_EndpointPacketManagement
  55:lib/lufa/LUFA/Drivers/USB/Class/Device/../../Core/AVR8/../AVR8/Endpoint_AVR8.h ****  *  \defgroup Group_EndpointPacketManagement_AVR8 Endpoint Packet Management (AVR8)
  56:lib/lufa/LUFA/Drivers/USB/Class/Device/../../Core/AVR8/../AVR8/Endpoint_AVR8.h ****  *  \brief Endpoint packet management definitions for the Atmel AVR8 architecture.
  57:lib/lufa/LUFA/Drivers/USB/Class/Device/../../Core/AVR8/../AVR8/Endpoint_AVR8.h ****  *
  58:lib/lufa/LUFA/Drivers/USB/Class/Device/../../Core/AVR8/../AVR8/Endpoint_AVR8.h ****  *  Functions, macros, variables, enums and types related to packet management of endpoints.
  59:lib/lufa/LUFA/Drivers/USB/Class/Device/../../Core/AVR8/../AVR8/Endpoint_AVR8.h ****  */
  60:lib/lufa/LUFA/Drivers/USB/Class/Device/../../Core/AVR8/../AVR8/Endpoint_AVR8.h **** 
  61:lib/lufa/LUFA/Drivers/USB/Class/Device/../../Core/AVR8/../AVR8/Endpoint_AVR8.h **** /** \ingroup Group_EndpointManagement
  62:lib/lufa/LUFA/Drivers/USB/Class/Device/../../Core/AVR8/../AVR8/Endpoint_AVR8.h ****  *  \defgroup Group_EndpointManagement_AVR8 Endpoint Management (AVR8)
  63:lib/lufa/LUFA/Drivers/USB/Class/Device/../../Core/AVR8/../AVR8/Endpoint_AVR8.h ****  *  \brief Endpoint management definitions for the Atmel AVR8 architecture.
  64:lib/lufa/LUFA/Drivers/USB/Class/Device/../../Core/AVR8/../AVR8/Endpoint_AVR8.h ****  *
  65:lib/lufa/LUFA/Drivers/USB/Class/Device/../../Core/AVR8/../AVR8/Endpoint_AVR8.h ****  *  Functions, macros and enums related to endpoint management when in USB Device mode. This
  66:lib/lufa/LUFA/Drivers/USB/Class/Device/../../Core/AVR8/../AVR8/Endpoint_AVR8.h ****  *  module contains the endpoint management macros, as well as endpoint interrupt and data
  67:lib/lufa/LUFA/Drivers/USB/Class/Device/../../Core/AVR8/../AVR8/Endpoint_AVR8.h ****  *  send/receive functions for various data types.
  68:lib/lufa/LUFA/Drivers/USB/Class/Device/../../Core/AVR8/../AVR8/Endpoint_AVR8.h ****  *
  69:lib/lufa/LUFA/Drivers/USB/Class/Device/../../Core/AVR8/../AVR8/Endpoint_AVR8.h ****  *  @{
  70:lib/lufa/LUFA/Drivers/USB/Class/Device/../../Core/AVR8/../AVR8/Endpoint_AVR8.h ****  */
  71:lib/lufa/LUFA/Drivers/USB/Class/Device/../../Core/AVR8/../AVR8/Endpoint_AVR8.h **** 
  72:lib/lufa/LUFA/Drivers/USB/Class/Device/../../Core/AVR8/../AVR8/Endpoint_AVR8.h **** #ifndef __ENDPOINT_AVR8_H__
  73:lib/lufa/LUFA/Drivers/USB/Class/Device/../../Core/AVR8/../AVR8/Endpoint_AVR8.h **** #define __ENDPOINT_AVR8_H__
  74:lib/lufa/LUFA/Drivers/USB/Class/Device/../../Core/AVR8/../AVR8/Endpoint_AVR8.h **** 
  75:lib/lufa/LUFA/Drivers/USB/Class/Device/../../Core/AVR8/../AVR8/Endpoint_AVR8.h **** 	/* Includes: */
  76:lib/lufa/LUFA/Drivers/USB/Class/Device/../../Core/AVR8/../AVR8/Endpoint_AVR8.h **** 		#include "../../../../Common/Common.h"
  77:lib/lufa/LUFA/Drivers/USB/Class/Device/../../Core/AVR8/../AVR8/Endpoint_AVR8.h **** 		#include "../USBTask.h"
  78:lib/lufa/LUFA/Drivers/USB/Class/Device/../../Core/AVR8/../AVR8/Endpoint_AVR8.h **** 		#include "../USBInterrupt.h"
  79:lib/lufa/LUFA/Drivers/USB/Class/Device/../../Core/AVR8/../AVR8/Endpoint_AVR8.h **** 
  80:lib/lufa/LUFA/Drivers/USB/Class/Device/../../Core/AVR8/../AVR8/Endpoint_AVR8.h **** 	/* Enable C linkage for C++ Compilers: */
  81:lib/lufa/LUFA/Drivers/USB/Class/Device/../../Core/AVR8/../AVR8/Endpoint_AVR8.h **** 		#if defined(__cplusplus)
  82:lib/lufa/LUFA/Drivers/USB/Class/Device/../../Core/AVR8/../AVR8/Endpoint_AVR8.h **** 			extern "C" {
  83:lib/lufa/LUFA/Drivers/USB/Class/Device/../../Core/AVR8/../AVR8/Endpoint_AVR8.h **** 		#endif
  84:lib/lufa/LUFA/Drivers/USB/Class/Device/../../Core/AVR8/../AVR8/Endpoint_AVR8.h **** 
  85:lib/lufa/LUFA/Drivers/USB/Class/Device/../../Core/AVR8/../AVR8/Endpoint_AVR8.h **** 	/* Preprocessor Checks: */
  86:lib/lufa/LUFA/Drivers/USB/Class/Device/../../Core/AVR8/../AVR8/Endpoint_AVR8.h **** 		#if !defined(__INCLUDE_FROM_USB_DRIVER)
  87:lib/lufa/LUFA/Drivers/USB/Class/Device/../../Core/AVR8/../AVR8/Endpoint_AVR8.h **** 			#error Do not include this file directly. Include LUFA/Drivers/USB/USB.h instead.
  88:lib/lufa/LUFA/Drivers/USB/Class/Device/../../Core/AVR8/../AVR8/Endpoint_AVR8.h **** 		#endif
  89:lib/lufa/LUFA/Drivers/USB/Class/Device/../../Core/AVR8/../AVR8/Endpoint_AVR8.h **** 
  90:lib/lufa/LUFA/Drivers/USB/Class/Device/../../Core/AVR8/../AVR8/Endpoint_AVR8.h **** 	/* Private Interface - For use in library only: */
  91:lib/lufa/LUFA/Drivers/USB/Class/Device/../../Core/AVR8/../AVR8/Endpoint_AVR8.h **** 	#if !defined(__DOXYGEN__)
  92:lib/lufa/LUFA/Drivers/USB/Class/Device/../../Core/AVR8/../AVR8/Endpoint_AVR8.h **** 		/* Inline Functions: */
  93:lib/lufa/LUFA/Drivers/USB/Class/Device/../../Core/AVR8/../AVR8/Endpoint_AVR8.h **** 			static inline uint8_t Endpoint_BytesToEPSizeMask(const uint16_t Bytes) ATTR_WARN_UNUSED_RESULT A
  94:lib/lufa/LUFA/Drivers/USB/Class/Device/../../Core/AVR8/../AVR8/Endpoint_AVR8.h **** 			                                                                       ATTR_ALWAYS_INLINE;
  95:lib/lufa/LUFA/Drivers/USB/Class/Device/../../Core/AVR8/../AVR8/Endpoint_AVR8.h **** 			static inline uint8_t Endpoint_BytesToEPSizeMask(const uint16_t Bytes)
  96:lib/lufa/LUFA/Drivers/USB/Class/Device/../../Core/AVR8/../AVR8/Endpoint_AVR8.h **** 			{
  97:lib/lufa/LUFA/Drivers/USB/Class/Device/../../Core/AVR8/../AVR8/Endpoint_AVR8.h **** 				uint8_t  MaskVal    = 0;
  98:lib/lufa/LUFA/Drivers/USB/Class/Device/../../Core/AVR8/../AVR8/Endpoint_AVR8.h **** 				uint16_t CheckBytes = 8;
  99:lib/lufa/LUFA/Drivers/USB/Class/Device/../../Core/AVR8/../AVR8/Endpoint_AVR8.h **** 
 100:lib/lufa/LUFA/Drivers/USB/Class/Device/../../Core/AVR8/../AVR8/Endpoint_AVR8.h **** 				while (CheckBytes < Bytes)
 101:lib/lufa/LUFA/Drivers/USB/Class/Device/../../Core/AVR8/../AVR8/Endpoint_AVR8.h **** 				{
 102:lib/lufa/LUFA/Drivers/USB/Class/Device/../../Core/AVR8/../AVR8/Endpoint_AVR8.h **** 					MaskVal++;
 103:lib/lufa/LUFA/Drivers/USB/Class/Device/../../Core/AVR8/../AVR8/Endpoint_AVR8.h **** 					CheckBytes <<= 1;
 104:lib/lufa/LUFA/Drivers/USB/Class/Device/../../Core/AVR8/../AVR8/Endpoint_AVR8.h **** 				}
 105:lib/lufa/LUFA/Drivers/USB/Class/Device/../../Core/AVR8/../AVR8/Endpoint_AVR8.h **** 
 106:lib/lufa/LUFA/Drivers/USB/Class/Device/../../Core/AVR8/../AVR8/Endpoint_AVR8.h **** 				return (MaskVal << EPSIZE0);
 107:lib/lufa/LUFA/Drivers/USB/Class/Device/../../Core/AVR8/../AVR8/Endpoint_AVR8.h **** 			}
 108:lib/lufa/LUFA/Drivers/USB/Class/Device/../../Core/AVR8/../AVR8/Endpoint_AVR8.h **** 
 109:lib/lufa/LUFA/Drivers/USB/Class/Device/../../Core/AVR8/../AVR8/Endpoint_AVR8.h **** 		/* Function Prototypes: */
 110:lib/lufa/LUFA/Drivers/USB/Class/Device/../../Core/AVR8/../AVR8/Endpoint_AVR8.h **** 			void Endpoint_ClearEndpoints(void);
 111:lib/lufa/LUFA/Drivers/USB/Class/Device/../../Core/AVR8/../AVR8/Endpoint_AVR8.h **** 			bool Endpoint_ConfigureEndpoint_Prv(const uint8_t Number,
 112:lib/lufa/LUFA/Drivers/USB/Class/Device/../../Core/AVR8/../AVR8/Endpoint_AVR8.h **** 			                                    const uint8_t UECFG0XData,
 113:lib/lufa/LUFA/Drivers/USB/Class/Device/../../Core/AVR8/../AVR8/Endpoint_AVR8.h **** 			                                    const uint8_t UECFG1XData);
 114:lib/lufa/LUFA/Drivers/USB/Class/Device/../../Core/AVR8/../AVR8/Endpoint_AVR8.h **** 
 115:lib/lufa/LUFA/Drivers/USB/Class/Device/../../Core/AVR8/../AVR8/Endpoint_AVR8.h **** 	#endif
 116:lib/lufa/LUFA/Drivers/USB/Class/Device/../../Core/AVR8/../AVR8/Endpoint_AVR8.h **** 
 117:lib/lufa/LUFA/Drivers/USB/Class/Device/../../Core/AVR8/../AVR8/Endpoint_AVR8.h **** 	/* Public Interface - May be used in end-application: */
 118:lib/lufa/LUFA/Drivers/USB/Class/Device/../../Core/AVR8/../AVR8/Endpoint_AVR8.h **** 		/* Macros: */
 119:lib/lufa/LUFA/Drivers/USB/Class/Device/../../Core/AVR8/../AVR8/Endpoint_AVR8.h **** 			#if (!defined(FIXED_CONTROL_ENDPOINT_SIZE) || defined(__DOXYGEN__))
 120:lib/lufa/LUFA/Drivers/USB/Class/Device/../../Core/AVR8/../AVR8/Endpoint_AVR8.h **** 				/** Default size of the default control endpoint's bank, until altered by the control endpoint 
 121:lib/lufa/LUFA/Drivers/USB/Class/Device/../../Core/AVR8/../AVR8/Endpoint_AVR8.h **** 				 *  value in the device descriptor. Not available if the \c FIXED_CONTROL_ENDPOINT_SIZE token i
 122:lib/lufa/LUFA/Drivers/USB/Class/Device/../../Core/AVR8/../AVR8/Endpoint_AVR8.h **** 				 */
 123:lib/lufa/LUFA/Drivers/USB/Class/Device/../../Core/AVR8/../AVR8/Endpoint_AVR8.h **** 				#define ENDPOINT_CONTROLEP_DEFAULT_SIZE     8
 124:lib/lufa/LUFA/Drivers/USB/Class/Device/../../Core/AVR8/../AVR8/Endpoint_AVR8.h **** 			#endif
 125:lib/lufa/LUFA/Drivers/USB/Class/Device/../../Core/AVR8/../AVR8/Endpoint_AVR8.h **** 
 126:lib/lufa/LUFA/Drivers/USB/Class/Device/../../Core/AVR8/../AVR8/Endpoint_AVR8.h **** 			#if !defined(CONTROL_ONLY_DEVICE) || defined(__DOXYGEN__)
 127:lib/lufa/LUFA/Drivers/USB/Class/Device/../../Core/AVR8/../AVR8/Endpoint_AVR8.h **** 				#if defined(USB_SERIES_4_AVR) || defined(USB_SERIES_6_AVR) || defined(USB_SERIES_7_AVR) || defi
 128:lib/lufa/LUFA/Drivers/USB/Class/Device/../../Core/AVR8/../AVR8/Endpoint_AVR8.h **** 					/** Total number of endpoints (including the default control endpoint at address 0) which may
 129:lib/lufa/LUFA/Drivers/USB/Class/Device/../../Core/AVR8/../AVR8/Endpoint_AVR8.h **** 					 *  be used in the device. Different USB AVR models support different amounts of endpoints,
 130:lib/lufa/LUFA/Drivers/USB/Class/Device/../../Core/AVR8/../AVR8/Endpoint_AVR8.h **** 					 *  this value reflects the maximum number of endpoints for the currently selected AVR model.
 131:lib/lufa/LUFA/Drivers/USB/Class/Device/../../Core/AVR8/../AVR8/Endpoint_AVR8.h **** 					 */
 132:lib/lufa/LUFA/Drivers/USB/Class/Device/../../Core/AVR8/../AVR8/Endpoint_AVR8.h **** 					#define ENDPOINT_TOTAL_ENDPOINTS        7
 133:lib/lufa/LUFA/Drivers/USB/Class/Device/../../Core/AVR8/../AVR8/Endpoint_AVR8.h **** 				#else
 134:lib/lufa/LUFA/Drivers/USB/Class/Device/../../Core/AVR8/../AVR8/Endpoint_AVR8.h **** 					#define ENDPOINT_TOTAL_ENDPOINTS        5
 135:lib/lufa/LUFA/Drivers/USB/Class/Device/../../Core/AVR8/../AVR8/Endpoint_AVR8.h **** 				#endif
 136:lib/lufa/LUFA/Drivers/USB/Class/Device/../../Core/AVR8/../AVR8/Endpoint_AVR8.h **** 			#else
 137:lib/lufa/LUFA/Drivers/USB/Class/Device/../../Core/AVR8/../AVR8/Endpoint_AVR8.h **** 				#define ENDPOINT_TOTAL_ENDPOINTS            1
 138:lib/lufa/LUFA/Drivers/USB/Class/Device/../../Core/AVR8/../AVR8/Endpoint_AVR8.h **** 			#endif
 139:lib/lufa/LUFA/Drivers/USB/Class/Device/../../Core/AVR8/../AVR8/Endpoint_AVR8.h **** 
 140:lib/lufa/LUFA/Drivers/USB/Class/Device/../../Core/AVR8/../AVR8/Endpoint_AVR8.h **** 		/* Enums: */
 141:lib/lufa/LUFA/Drivers/USB/Class/Device/../../Core/AVR8/../AVR8/Endpoint_AVR8.h **** 			/** Enum for the possible error return codes of the \ref Endpoint_WaitUntilReady() function.
 142:lib/lufa/LUFA/Drivers/USB/Class/Device/../../Core/AVR8/../AVR8/Endpoint_AVR8.h **** 			 *
 143:lib/lufa/LUFA/Drivers/USB/Class/Device/../../Core/AVR8/../AVR8/Endpoint_AVR8.h **** 			 *  \ingroup Group_EndpointRW_AVR8
 144:lib/lufa/LUFA/Drivers/USB/Class/Device/../../Core/AVR8/../AVR8/Endpoint_AVR8.h **** 			 */
 145:lib/lufa/LUFA/Drivers/USB/Class/Device/../../Core/AVR8/../AVR8/Endpoint_AVR8.h **** 			enum Endpoint_WaitUntilReady_ErrorCodes_t
 146:lib/lufa/LUFA/Drivers/USB/Class/Device/../../Core/AVR8/../AVR8/Endpoint_AVR8.h **** 			{
 147:lib/lufa/LUFA/Drivers/USB/Class/Device/../../Core/AVR8/../AVR8/Endpoint_AVR8.h **** 				ENDPOINT_READYWAIT_NoError                 = 0, /**< Endpoint is ready for next packet, no erro
 148:lib/lufa/LUFA/Drivers/USB/Class/Device/../../Core/AVR8/../AVR8/Endpoint_AVR8.h **** 				ENDPOINT_READYWAIT_EndpointStalled         = 1, /**< The endpoint was stalled during the stream
 149:lib/lufa/LUFA/Drivers/USB/Class/Device/../../Core/AVR8/../AVR8/Endpoint_AVR8.h **** 				                                                 *   transfer by the host or device.
 150:lib/lufa/LUFA/Drivers/USB/Class/Device/../../Core/AVR8/../AVR8/Endpoint_AVR8.h **** 				                                                 */
 151:lib/lufa/LUFA/Drivers/USB/Class/Device/../../Core/AVR8/../AVR8/Endpoint_AVR8.h **** 				ENDPOINT_READYWAIT_DeviceDisconnected      = 2,	/**< Device was disconnected from the host whil
 152:lib/lufa/LUFA/Drivers/USB/Class/Device/../../Core/AVR8/../AVR8/Endpoint_AVR8.h **** 				                                                 *   waiting for the endpoint to become ready.
 153:lib/lufa/LUFA/Drivers/USB/Class/Device/../../Core/AVR8/../AVR8/Endpoint_AVR8.h **** 				                                                 */
 154:lib/lufa/LUFA/Drivers/USB/Class/Device/../../Core/AVR8/../AVR8/Endpoint_AVR8.h **** 				ENDPOINT_READYWAIT_BusSuspended            = 3, /**< The USB bus has been suspended by the host
 155:lib/lufa/LUFA/Drivers/USB/Class/Device/../../Core/AVR8/../AVR8/Endpoint_AVR8.h **** 				                                                 *   no USB endpoint traffic can occur until th
 156:lib/lufa/LUFA/Drivers/USB/Class/Device/../../Core/AVR8/../AVR8/Endpoint_AVR8.h **** 				                                                 *   has resumed.
 157:lib/lufa/LUFA/Drivers/USB/Class/Device/../../Core/AVR8/../AVR8/Endpoint_AVR8.h **** 				                                                 */
 158:lib/lufa/LUFA/Drivers/USB/Class/Device/../../Core/AVR8/../AVR8/Endpoint_AVR8.h **** 				ENDPOINT_READYWAIT_Timeout                 = 4, /**< The host failed to accept or send the next
 159:lib/lufa/LUFA/Drivers/USB/Class/Device/../../Core/AVR8/../AVR8/Endpoint_AVR8.h **** 				                                                 *   within the software timeout period set by 
 160:lib/lufa/LUFA/Drivers/USB/Class/Device/../../Core/AVR8/../AVR8/Endpoint_AVR8.h **** 				                                                 *   \ref USB_STREAM_TIMEOUT_MS macro.
 161:lib/lufa/LUFA/Drivers/USB/Class/Device/../../Core/AVR8/../AVR8/Endpoint_AVR8.h **** 				                                                 */
 162:lib/lufa/LUFA/Drivers/USB/Class/Device/../../Core/AVR8/../AVR8/Endpoint_AVR8.h **** 			};
 163:lib/lufa/LUFA/Drivers/USB/Class/Device/../../Core/AVR8/../AVR8/Endpoint_AVR8.h **** 
 164:lib/lufa/LUFA/Drivers/USB/Class/Device/../../Core/AVR8/../AVR8/Endpoint_AVR8.h **** 		/* Inline Functions: */
 165:lib/lufa/LUFA/Drivers/USB/Class/Device/../../Core/AVR8/../AVR8/Endpoint_AVR8.h **** 			/** Configures the specified endpoint address with the given endpoint type, bank size and number
 166:lib/lufa/LUFA/Drivers/USB/Class/Device/../../Core/AVR8/../AVR8/Endpoint_AVR8.h **** 			 *  banks. Once configured, the endpoint may be read from or written to, depending on its direct
 167:lib/lufa/LUFA/Drivers/USB/Class/Device/../../Core/AVR8/../AVR8/Endpoint_AVR8.h **** 			 *
 168:lib/lufa/LUFA/Drivers/USB/Class/Device/../../Core/AVR8/../AVR8/Endpoint_AVR8.h **** 			 *  \param[in] Address    Endpoint address to configure.
 169:lib/lufa/LUFA/Drivers/USB/Class/Device/../../Core/AVR8/../AVR8/Endpoint_AVR8.h **** 			 *
 170:lib/lufa/LUFA/Drivers/USB/Class/Device/../../Core/AVR8/../AVR8/Endpoint_AVR8.h **** 			 *  \param[in] Type       Type of endpoint to configure, a \c EP_TYPE_* mask. Not all endpoint t
 171:lib/lufa/LUFA/Drivers/USB/Class/Device/../../Core/AVR8/../AVR8/Endpoint_AVR8.h **** 			 *                        are available on Low Speed USB devices - refer to the USB 2.0 specific
 172:lib/lufa/LUFA/Drivers/USB/Class/Device/../../Core/AVR8/../AVR8/Endpoint_AVR8.h **** 			 *
 173:lib/lufa/LUFA/Drivers/USB/Class/Device/../../Core/AVR8/../AVR8/Endpoint_AVR8.h **** 			 *  \param[in] Size       Size of the endpoint's bank, where packets are stored before they are 
 174:lib/lufa/LUFA/Drivers/USB/Class/Device/../../Core/AVR8/../AVR8/Endpoint_AVR8.h **** 			 *                        to the USB host, or after they have been received from the USB host (d
 175:lib/lufa/LUFA/Drivers/USB/Class/Device/../../Core/AVR8/../AVR8/Endpoint_AVR8.h **** 			 *                        the endpoint's data direction). The bank size must indicate the maximu
 176:lib/lufa/LUFA/Drivers/USB/Class/Device/../../Core/AVR8/../AVR8/Endpoint_AVR8.h **** 			 *                        that the endpoint can handle.
 177:lib/lufa/LUFA/Drivers/USB/Class/Device/../../Core/AVR8/../AVR8/Endpoint_AVR8.h **** 			 *
 178:lib/lufa/LUFA/Drivers/USB/Class/Device/../../Core/AVR8/../AVR8/Endpoint_AVR8.h **** 			 *  \param[in] Banks      Number of banks to use for the endpoint being configured.
 179:lib/lufa/LUFA/Drivers/USB/Class/Device/../../Core/AVR8/../AVR8/Endpoint_AVR8.h **** 			 *
 180:lib/lufa/LUFA/Drivers/USB/Class/Device/../../Core/AVR8/../AVR8/Endpoint_AVR8.h **** 			 *  \attention When the \c ORDERED_EP_CONFIG compile time option is used, Endpoints <b>must</b> 
 181:lib/lufa/LUFA/Drivers/USB/Class/Device/../../Core/AVR8/../AVR8/Endpoint_AVR8.h **** 			 *             ascending order, or bank corruption will occur.
 182:lib/lufa/LUFA/Drivers/USB/Class/Device/../../Core/AVR8/../AVR8/Endpoint_AVR8.h **** 			 *
 183:lib/lufa/LUFA/Drivers/USB/Class/Device/../../Core/AVR8/../AVR8/Endpoint_AVR8.h **** 			 *  \note Different endpoints may have different maximum packet sizes based on the endpoint's in
 184:lib/lufa/LUFA/Drivers/USB/Class/Device/../../Core/AVR8/../AVR8/Endpoint_AVR8.h **** 			 *        refer to the chosen microcontroller model's datasheet to determine the maximum bank si
 185:lib/lufa/LUFA/Drivers/USB/Class/Device/../../Core/AVR8/../AVR8/Endpoint_AVR8.h **** 			 *        \n\n
 186:lib/lufa/LUFA/Drivers/USB/Class/Device/../../Core/AVR8/../AVR8/Endpoint_AVR8.h **** 			 *
 187:lib/lufa/LUFA/Drivers/USB/Class/Device/../../Core/AVR8/../AVR8/Endpoint_AVR8.h **** 			 *  \note The default control endpoint should not be manually configured by the user application
 188:lib/lufa/LUFA/Drivers/USB/Class/Device/../../Core/AVR8/../AVR8/Endpoint_AVR8.h **** 			 *        it is automatically configured by the library internally.
 189:lib/lufa/LUFA/Drivers/USB/Class/Device/../../Core/AVR8/../AVR8/Endpoint_AVR8.h **** 			 *        \n\n
 190:lib/lufa/LUFA/Drivers/USB/Class/Device/../../Core/AVR8/../AVR8/Endpoint_AVR8.h **** 			 *
 191:lib/lufa/LUFA/Drivers/USB/Class/Device/../../Core/AVR8/../AVR8/Endpoint_AVR8.h **** 			 *  \note This routine will automatically select the specified endpoint upon success. Upon failu
 192:lib/lufa/LUFA/Drivers/USB/Class/Device/../../Core/AVR8/../AVR8/Endpoint_AVR8.h **** 			 *        which failed to reconfigure correctly will be selected.
 193:lib/lufa/LUFA/Drivers/USB/Class/Device/../../Core/AVR8/../AVR8/Endpoint_AVR8.h **** 			 *
 194:lib/lufa/LUFA/Drivers/USB/Class/Device/../../Core/AVR8/../AVR8/Endpoint_AVR8.h **** 			 *  \return Boolean \c true if the configuration succeeded, \c false otherwise.
 195:lib/lufa/LUFA/Drivers/USB/Class/Device/../../Core/AVR8/../AVR8/Endpoint_AVR8.h **** 			 */
 196:lib/lufa/LUFA/Drivers/USB/Class/Device/../../Core/AVR8/../AVR8/Endpoint_AVR8.h **** 			static inline bool Endpoint_ConfigureEndpoint(const uint8_t Address,
 197:lib/lufa/LUFA/Drivers/USB/Class/Device/../../Core/AVR8/../AVR8/Endpoint_AVR8.h **** 			                                              const uint8_t Type,
 198:lib/lufa/LUFA/Drivers/USB/Class/Device/../../Core/AVR8/../AVR8/Endpoint_AVR8.h **** 			                                              const uint16_t Size,
 199:lib/lufa/LUFA/Drivers/USB/Class/Device/../../Core/AVR8/../AVR8/Endpoint_AVR8.h **** 			                                              const uint8_t Banks) ATTR_ALWAYS_INLINE;
 200:lib/lufa/LUFA/Drivers/USB/Class/Device/../../Core/AVR8/../AVR8/Endpoint_AVR8.h **** 			static inline bool Endpoint_ConfigureEndpoint(const uint8_t Address,
 201:lib/lufa/LUFA/Drivers/USB/Class/Device/../../Core/AVR8/../AVR8/Endpoint_AVR8.h **** 			                                              const uint8_t Type,
 202:lib/lufa/LUFA/Drivers/USB/Class/Device/../../Core/AVR8/../AVR8/Endpoint_AVR8.h **** 			                                              const uint16_t Size,
 203:lib/lufa/LUFA/Drivers/USB/Class/Device/../../Core/AVR8/../AVR8/Endpoint_AVR8.h **** 			                                              const uint8_t Banks)
 204:lib/lufa/LUFA/Drivers/USB/Class/Device/../../Core/AVR8/../AVR8/Endpoint_AVR8.h **** 			{
 205:lib/lufa/LUFA/Drivers/USB/Class/Device/../../Core/AVR8/../AVR8/Endpoint_AVR8.h **** 				uint8_t Number = (Address & ENDPOINT_EPNUM_MASK);
 206:lib/lufa/LUFA/Drivers/USB/Class/Device/../../Core/AVR8/../AVR8/Endpoint_AVR8.h **** 
 207:lib/lufa/LUFA/Drivers/USB/Class/Device/../../Core/AVR8/../AVR8/Endpoint_AVR8.h **** 				if (Number >= ENDPOINT_TOTAL_ENDPOINTS)
 208:lib/lufa/LUFA/Drivers/USB/Class/Device/../../Core/AVR8/../AVR8/Endpoint_AVR8.h **** 				  return false;
 209:lib/lufa/LUFA/Drivers/USB/Class/Device/../../Core/AVR8/../AVR8/Endpoint_AVR8.h **** 
 210:lib/lufa/LUFA/Drivers/USB/Class/Device/../../Core/AVR8/../AVR8/Endpoint_AVR8.h **** 				return Endpoint_ConfigureEndpoint_Prv(Number,
 211:lib/lufa/LUFA/Drivers/USB/Class/Device/../../Core/AVR8/../AVR8/Endpoint_AVR8.h **** 				                                      ((Type << EPTYPE0) | ((Address & ENDPOINT_DIR_IN) ? (1 <<
 212:lib/lufa/LUFA/Drivers/USB/Class/Device/../../Core/AVR8/../AVR8/Endpoint_AVR8.h **** 				                                      ((1 << ALLOC) | ((Banks > 1) ? (1 << EPBK0) : 0) | Endpoi
 213:lib/lufa/LUFA/Drivers/USB/Class/Device/../../Core/AVR8/../AVR8/Endpoint_AVR8.h **** 			}
 214:lib/lufa/LUFA/Drivers/USB/Class/Device/../../Core/AVR8/../AVR8/Endpoint_AVR8.h **** 
 215:lib/lufa/LUFA/Drivers/USB/Class/Device/../../Core/AVR8/../AVR8/Endpoint_AVR8.h **** 			/** Indicates the number of bytes currently stored in the current endpoint's selected bank.
 216:lib/lufa/LUFA/Drivers/USB/Class/Device/../../Core/AVR8/../AVR8/Endpoint_AVR8.h **** 			 *
 217:lib/lufa/LUFA/Drivers/USB/Class/Device/../../Core/AVR8/../AVR8/Endpoint_AVR8.h **** 			 *  \ingroup Group_EndpointRW_AVR8
 218:lib/lufa/LUFA/Drivers/USB/Class/Device/../../Core/AVR8/../AVR8/Endpoint_AVR8.h **** 			 *
 219:lib/lufa/LUFA/Drivers/USB/Class/Device/../../Core/AVR8/../AVR8/Endpoint_AVR8.h **** 			 *  \return Total number of bytes in the currently selected Endpoint's FIFO buffer.
 220:lib/lufa/LUFA/Drivers/USB/Class/Device/../../Core/AVR8/../AVR8/Endpoint_AVR8.h **** 			 */
 221:lib/lufa/LUFA/Drivers/USB/Class/Device/../../Core/AVR8/../AVR8/Endpoint_AVR8.h **** 			static inline uint16_t Endpoint_BytesInEndpoint(void) ATTR_WARN_UNUSED_RESULT ATTR_ALWAYS_INLINE
 222:lib/lufa/LUFA/Drivers/USB/Class/Device/../../Core/AVR8/../AVR8/Endpoint_AVR8.h **** 			static inline uint16_t Endpoint_BytesInEndpoint(void)
 223:lib/lufa/LUFA/Drivers/USB/Class/Device/../../Core/AVR8/../AVR8/Endpoint_AVR8.h **** 			{
 224:lib/lufa/LUFA/Drivers/USB/Class/Device/../../Core/AVR8/../AVR8/Endpoint_AVR8.h **** 				#if (defined(USB_SERIES_6_AVR) || defined(USB_SERIES_7_AVR))
 225:lib/lufa/LUFA/Drivers/USB/Class/Device/../../Core/AVR8/../AVR8/Endpoint_AVR8.h **** 					return UEBCX;
 226:lib/lufa/LUFA/Drivers/USB/Class/Device/../../Core/AVR8/../AVR8/Endpoint_AVR8.h **** 				#elif defined(USB_SERIES_4_AVR)
 227:lib/lufa/LUFA/Drivers/USB/Class/Device/../../Core/AVR8/../AVR8/Endpoint_AVR8.h **** 					return (((uint16_t)UEBCHX << 8) | UEBCLX);
 228:lib/lufa/LUFA/Drivers/USB/Class/Device/../../Core/AVR8/../AVR8/Endpoint_AVR8.h **** 				#elif defined(USB_SERIES_2_AVR)
 229:lib/lufa/LUFA/Drivers/USB/Class/Device/../../Core/AVR8/../AVR8/Endpoint_AVR8.h **** 					return UEBCLX;
 230:lib/lufa/LUFA/Drivers/USB/Class/Device/../../Core/AVR8/../AVR8/Endpoint_AVR8.h **** 				#endif
 231:lib/lufa/LUFA/Drivers/USB/Class/Device/../../Core/AVR8/../AVR8/Endpoint_AVR8.h **** 			}
 232:lib/lufa/LUFA/Drivers/USB/Class/Device/../../Core/AVR8/../AVR8/Endpoint_AVR8.h **** 
 233:lib/lufa/LUFA/Drivers/USB/Class/Device/../../Core/AVR8/../AVR8/Endpoint_AVR8.h **** 			/** Determines the currently selected endpoint's direction.
 234:lib/lufa/LUFA/Drivers/USB/Class/Device/../../Core/AVR8/../AVR8/Endpoint_AVR8.h **** 			 *
 235:lib/lufa/LUFA/Drivers/USB/Class/Device/../../Core/AVR8/../AVR8/Endpoint_AVR8.h **** 			 *  \return The currently selected endpoint's direction, as a \c ENDPOINT_DIR_* mask.
 236:lib/lufa/LUFA/Drivers/USB/Class/Device/../../Core/AVR8/../AVR8/Endpoint_AVR8.h **** 			 */
 237:lib/lufa/LUFA/Drivers/USB/Class/Device/../../Core/AVR8/../AVR8/Endpoint_AVR8.h **** 			static inline uint8_t Endpoint_GetEndpointDirection(void) ATTR_WARN_UNUSED_RESULT ATTR_ALWAYS_IN
 238:lib/lufa/LUFA/Drivers/USB/Class/Device/../../Core/AVR8/../AVR8/Endpoint_AVR8.h **** 			static inline uint8_t Endpoint_GetEndpointDirection(void)
 239:lib/lufa/LUFA/Drivers/USB/Class/Device/../../Core/AVR8/../AVR8/Endpoint_AVR8.h **** 			{
 240:lib/lufa/LUFA/Drivers/USB/Class/Device/../../Core/AVR8/../AVR8/Endpoint_AVR8.h **** 				return (UECFG0X & (1 << EPDIR)) ? ENDPOINT_DIR_IN : ENDPOINT_DIR_OUT;
 241:lib/lufa/LUFA/Drivers/USB/Class/Device/../../Core/AVR8/../AVR8/Endpoint_AVR8.h **** 			}
 242:lib/lufa/LUFA/Drivers/USB/Class/Device/../../Core/AVR8/../AVR8/Endpoint_AVR8.h **** 
 243:lib/lufa/LUFA/Drivers/USB/Class/Device/../../Core/AVR8/../AVR8/Endpoint_AVR8.h **** 			/** Get the endpoint address of the currently selected endpoint. This is typically used to save
 244:lib/lufa/LUFA/Drivers/USB/Class/Device/../../Core/AVR8/../AVR8/Endpoint_AVR8.h **** 			 *  the currently selected endpoint so that it can be restored after another endpoint has been
 245:lib/lufa/LUFA/Drivers/USB/Class/Device/../../Core/AVR8/../AVR8/Endpoint_AVR8.h **** 			 *  manipulated.
 246:lib/lufa/LUFA/Drivers/USB/Class/Device/../../Core/AVR8/../AVR8/Endpoint_AVR8.h **** 			 *
 247:lib/lufa/LUFA/Drivers/USB/Class/Device/../../Core/AVR8/../AVR8/Endpoint_AVR8.h **** 			 *  \return Index of the currently selected endpoint.
 248:lib/lufa/LUFA/Drivers/USB/Class/Device/../../Core/AVR8/../AVR8/Endpoint_AVR8.h **** 			 */
 249:lib/lufa/LUFA/Drivers/USB/Class/Device/../../Core/AVR8/../AVR8/Endpoint_AVR8.h **** 			static inline uint8_t Endpoint_GetCurrentEndpoint(void) ATTR_WARN_UNUSED_RESULT ATTR_ALWAYS_INLI
 250:lib/lufa/LUFA/Drivers/USB/Class/Device/../../Core/AVR8/../AVR8/Endpoint_AVR8.h **** 			static inline uint8_t Endpoint_GetCurrentEndpoint(void)
 251:lib/lufa/LUFA/Drivers/USB/Class/Device/../../Core/AVR8/../AVR8/Endpoint_AVR8.h **** 			{
 252:lib/lufa/LUFA/Drivers/USB/Class/Device/../../Core/AVR8/../AVR8/Endpoint_AVR8.h **** 				#if !defined(CONTROL_ONLY_DEVICE)
 253:lib/lufa/LUFA/Drivers/USB/Class/Device/../../Core/AVR8/../AVR8/Endpoint_AVR8.h **** 					return ((UENUM & ENDPOINT_EPNUM_MASK) | Endpoint_GetEndpointDirection());
 254:lib/lufa/LUFA/Drivers/USB/Class/Device/../../Core/AVR8/../AVR8/Endpoint_AVR8.h **** 				#else
 255:lib/lufa/LUFA/Drivers/USB/Class/Device/../../Core/AVR8/../AVR8/Endpoint_AVR8.h **** 					return ENDPOINT_CONTROLEP;
 256:lib/lufa/LUFA/Drivers/USB/Class/Device/../../Core/AVR8/../AVR8/Endpoint_AVR8.h **** 				#endif
 257:lib/lufa/LUFA/Drivers/USB/Class/Device/../../Core/AVR8/../AVR8/Endpoint_AVR8.h **** 			}
 258:lib/lufa/LUFA/Drivers/USB/Class/Device/../../Core/AVR8/../AVR8/Endpoint_AVR8.h **** 
 259:lib/lufa/LUFA/Drivers/USB/Class/Device/../../Core/AVR8/../AVR8/Endpoint_AVR8.h **** 			/** Selects the given endpoint address.
 260:lib/lufa/LUFA/Drivers/USB/Class/Device/../../Core/AVR8/../AVR8/Endpoint_AVR8.h **** 			 *
 261:lib/lufa/LUFA/Drivers/USB/Class/Device/../../Core/AVR8/../AVR8/Endpoint_AVR8.h **** 			 *  Any endpoint operations which do not require the endpoint address to be indicated will opera
 262:lib/lufa/LUFA/Drivers/USB/Class/Device/../../Core/AVR8/../AVR8/Endpoint_AVR8.h **** 			 *  the currently selected endpoint.
 263:lib/lufa/LUFA/Drivers/USB/Class/Device/../../Core/AVR8/../AVR8/Endpoint_AVR8.h **** 			 *
 264:lib/lufa/LUFA/Drivers/USB/Class/Device/../../Core/AVR8/../AVR8/Endpoint_AVR8.h **** 			 *  \param[in] Address Endpoint address to select.
 265:lib/lufa/LUFA/Drivers/USB/Class/Device/../../Core/AVR8/../AVR8/Endpoint_AVR8.h **** 			 */
 266:lib/lufa/LUFA/Drivers/USB/Class/Device/../../Core/AVR8/../AVR8/Endpoint_AVR8.h **** 			static inline void Endpoint_SelectEndpoint(const uint8_t Address) ATTR_ALWAYS_INLINE;
 267:lib/lufa/LUFA/Drivers/USB/Class/Device/../../Core/AVR8/../AVR8/Endpoint_AVR8.h **** 			static inline void Endpoint_SelectEndpoint(const uint8_t Address)
 268:lib/lufa/LUFA/Drivers/USB/Class/Device/../../Core/AVR8/../AVR8/Endpoint_AVR8.h **** 			{
 269:lib/lufa/LUFA/Drivers/USB/Class/Device/../../Core/AVR8/../AVR8/Endpoint_AVR8.h **** 				#if !defined(CONTROL_ONLY_DEVICE)
 270:lib/lufa/LUFA/Drivers/USB/Class/Device/../../Core/AVR8/../AVR8/Endpoint_AVR8.h **** 					UENUM = (Address & ENDPOINT_EPNUM_MASK);
 119               		.loc 2 270 0 is_stmt 1
 120 001c 8181      		ldd r24,Z+1
 121               	.LVL8:
 122 001e 8F70      		andi r24,lo8(15)
 123 0020 8093 E900 		sts 233,r24
 124               	.LBE96:
 125               	.LBE95:
 152:lib/lufa/LUFA/Drivers/USB/Class/Device/CDCClassDevice.c **** 	  return ENDPOINT_RWSTREAM_DeviceDisconnected;
 153:lib/lufa/LUFA/Drivers/USB/Class/Device/CDCClassDevice.c **** 
 154:lib/lufa/LUFA/Drivers/USB/Class/Device/CDCClassDevice.c **** 	Endpoint_SelectEndpoint(CDCInterfaceInfo->Config.DataINEndpoint.Address);
 155:lib/lufa/LUFA/Drivers/USB/Class/Device/CDCClassDevice.c **** 	return Endpoint_Write_Stream_LE(String, strlen(String), NULL);
 126               		.loc 1 155 0
 127 0024 FD01      		movw r30,r26
 128               	.LVL9:
 129               		0:
 130 0026 0190      		ld __tmp_reg__,Z+
 131 0028 0020      		tst __tmp_reg__
 132 002a 01F4      		brne 0b
 133 002c 3197      		sbiw r30,1
 134 002e BF01      		movw r22,r30
 135               	.LVL10:
 136 0030 6A1B      		sub r22,r26
 137 0032 7B0B      		sbc r23,r27
 138 0034 40E0      		ldi r20,0
 139 0036 50E0      		ldi r21,0
 140 0038 CD01      		movw r24,r26
 141 003a 0C94 0000 		jmp Endpoint_Write_Stream_LE
 142               	.LVL11:
 143               	.L10:
 156:lib/lufa/LUFA/Drivers/USB/Class/Device/CDCClassDevice.c **** }
 144               		.loc 1 156 0
 145 003e 82E0      		ldi r24,lo8(2)
 146               	.LVL12:
 147 0040 0895      		ret
 148               		.cfi_endproc
 149               	.LFE103:
 151               		.section	.text.CDC_Device_SendString_P,"ax",@progbits
 152               	.global	CDC_Device_SendString_P
 154               	CDC_Device_SendString_P:
 155               	.LFB104:
 157:lib/lufa/LUFA/Drivers/USB/Class/Device/CDCClassDevice.c **** 
 158:lib/lufa/LUFA/Drivers/USB/Class/Device/CDCClassDevice.c **** uint8_t CDC_Device_SendString_P(USB_ClassInfo_CDC_Device_t* const CDCInterfaceInfo,
 159:lib/lufa/LUFA/Drivers/USB/Class/Device/CDCClassDevice.c ****                               const char* const String)
 160:lib/lufa/LUFA/Drivers/USB/Class/Device/CDCClassDevice.c **** {
 156               		.loc 1 160 0
 157               		.cfi_startproc
 158               	.LVL13:
 159 0000 0F93      		push r16
 160               	.LCFI2:
 161               		.cfi_def_cfa_offset 3
 162               		.cfi_offset 16, -2
 163 0002 1F93      		push r17
 164               	.LCFI3:
 165               		.cfi_def_cfa_offset 4
 166               		.cfi_offset 17, -3
 167 0004 CF93      		push r28
 168               	.LCFI4:
 169               		.cfi_def_cfa_offset 5
 170               		.cfi_offset 28, -4
 171 0006 DF93      		push r29
 172               	.LCFI5:
 173               		.cfi_def_cfa_offset 6
 174               		.cfi_offset 29, -5
 175               	/* prologue: function */
 176               	/* frame size = 0 */
 177               	/* stack size = 4 */
 178               	.L__stack_usage = 4
 161:lib/lufa/LUFA/Drivers/USB/Class/Device/CDCClassDevice.c **** 	if ((USB_DeviceState != DEVICE_STATE_Configured) || !(CDCInterfaceInfo->State.LineEncoding.BaudRat
 179               		.loc 1 161 0
 180 0008 2091 0000 		lds r18,USB_DeviceState
 181 000c 2430      		cpi r18,lo8(4)
 182 000e 01F4      		brne .L15
 183               		.loc 1 161 0 is_stmt 0 discriminator 1
 184 0010 FC01      		movw r30,r24
 185 0012 0489      		ldd r16,Z+20
 186 0014 1589      		ldd r17,Z+21
 187 0016 2689      		ldd r18,Z+22
 188 0018 3789      		ldd r19,Z+23
 189 001a 012B      		or r16,r17
 190 001c 022B      		or r16,r18
 191 001e 032B      		or r16,r19
 192 0020 01F0      		breq .L15
 193 0022 EB01      		movw r28,r22
 194               	.LVL14:
 195               	.LBB97:
 196               	.LBB98:
 197               		.loc 2 270 0 is_stmt 1
 198 0024 8181      		ldd r24,Z+1
 199               	.LVL15:
 200 0026 8F70      		andi r24,lo8(15)
 201               	.LVL16:
 202 0028 8093 E900 		sts 233,r24
 203               	.LVL17:
 204               	.LBE98:
 205               	.LBE97:
 206               	.LBB99:
 207               	.LBB100:
 208               		.file 3 "d:\\program files\\msys2\\home\\bnguy\\qmk_utils\\avr8-gnu-toolchain\\avr\\include\\avr\\
   1:d:\program files\msys2\home\bnguy\qmk_utils\avr8-gnu-toolchain\avr\include\avr\pgmspace.h **** /* Copyright (c) 2002-2007  Marek Michalkiewicz
   2:d:\program files\msys2\home\bnguy\qmk_utils\avr8-gnu-toolchain\avr\include\avr\pgmspace.h ****    Copyright (c) 2006, Carlos Lamas
   3:d:\program files\msys2\home\bnguy\qmk_utils\avr8-gnu-toolchain\avr\include\avr\pgmspace.h ****    Copyright (c) 2009-2010, Jan Waclawek
   4:d:\program files\msys2\home\bnguy\qmk_utils\avr8-gnu-toolchain\avr\include\avr\pgmspace.h ****    All rights reserved.
   5:d:\program files\msys2\home\bnguy\qmk_utils\avr8-gnu-toolchain\avr\include\avr\pgmspace.h **** 
   6:d:\program files\msys2\home\bnguy\qmk_utils\avr8-gnu-toolchain\avr\include\avr\pgmspace.h ****    Redistribution and use in source and binary forms, with or without
   7:d:\program files\msys2\home\bnguy\qmk_utils\avr8-gnu-toolchain\avr\include\avr\pgmspace.h ****    modification, are permitted provided that the following conditions are met:
   8:d:\program files\msys2\home\bnguy\qmk_utils\avr8-gnu-toolchain\avr\include\avr\pgmspace.h **** 
   9:d:\program files\msys2\home\bnguy\qmk_utils\avr8-gnu-toolchain\avr\include\avr\pgmspace.h ****    * Redistributions of source code must retain the above copyright
  10:d:\program files\msys2\home\bnguy\qmk_utils\avr8-gnu-toolchain\avr\include\avr\pgmspace.h ****      notice, this list of conditions and the following disclaimer.
  11:d:\program files\msys2\home\bnguy\qmk_utils\avr8-gnu-toolchain\avr\include\avr\pgmspace.h ****    * Redistributions in binary form must reproduce the above copyright
  12:d:\program files\msys2\home\bnguy\qmk_utils\avr8-gnu-toolchain\avr\include\avr\pgmspace.h ****      notice, this list of conditions and the following disclaimer in
  13:d:\program files\msys2\home\bnguy\qmk_utils\avr8-gnu-toolchain\avr\include\avr\pgmspace.h ****      the documentation and/or other materials provided with the
  14:d:\program files\msys2\home\bnguy\qmk_utils\avr8-gnu-toolchain\avr\include\avr\pgmspace.h ****      distribution.
  15:d:\program files\msys2\home\bnguy\qmk_utils\avr8-gnu-toolchain\avr\include\avr\pgmspace.h ****    * Neither the name of the copyright holders nor the names of
  16:d:\program files\msys2\home\bnguy\qmk_utils\avr8-gnu-toolchain\avr\include\avr\pgmspace.h ****      contributors may be used to endorse or promote products derived
  17:d:\program files\msys2\home\bnguy\qmk_utils\avr8-gnu-toolchain\avr\include\avr\pgmspace.h ****      from this software without specific prior written permission.
  18:d:\program files\msys2\home\bnguy\qmk_utils\avr8-gnu-toolchain\avr\include\avr\pgmspace.h **** 
  19:d:\program files\msys2\home\bnguy\qmk_utils\avr8-gnu-toolchain\avr\include\avr\pgmspace.h ****   THIS SOFTWARE IS PROVIDED BY THE COPYRIGHT HOLDERS AND CONTRIBUTORS "AS IS"
  20:d:\program files\msys2\home\bnguy\qmk_utils\avr8-gnu-toolchain\avr\include\avr\pgmspace.h ****   AND ANY EXPRESS OR IMPLIED WARRANTIES, INCLUDING, BUT NOT LIMITED TO, THE
  21:d:\program files\msys2\home\bnguy\qmk_utils\avr8-gnu-toolchain\avr\include\avr\pgmspace.h ****   IMPLIED WARRANTIES OF MERCHANTABILITY AND FITNESS FOR A PARTICULAR PURPOSE
  22:d:\program files\msys2\home\bnguy\qmk_utils\avr8-gnu-toolchain\avr\include\avr\pgmspace.h ****   ARE DISCLAIMED. IN NO EVENT SHALL THE COPYRIGHT OWNER OR CONTRIBUTORS BE
  23:d:\program files\msys2\home\bnguy\qmk_utils\avr8-gnu-toolchain\avr\include\avr\pgmspace.h ****   LIABLE FOR ANY DIRECT, INDIRECT, INCIDENTAL, SPECIAL, EXEMPLARY, OR
  24:d:\program files\msys2\home\bnguy\qmk_utils\avr8-gnu-toolchain\avr\include\avr\pgmspace.h ****   CONSEQUENTIAL DAMAGES (INCLUDING, BUT NOT LIMITED TO, PROCUREMENT OF
  25:d:\program files\msys2\home\bnguy\qmk_utils\avr8-gnu-toolchain\avr\include\avr\pgmspace.h ****   SUBSTITUTE GOODS OR SERVICES; LOSS OF USE, DATA, OR PROFITS; OR BUSINESS
  26:d:\program files\msys2\home\bnguy\qmk_utils\avr8-gnu-toolchain\avr\include\avr\pgmspace.h ****   INTERRUPTION) HOWEVER CAUSED AND ON ANY THEORY OF LIABILITY, WHETHER IN
  27:d:\program files\msys2\home\bnguy\qmk_utils\avr8-gnu-toolchain\avr\include\avr\pgmspace.h ****   CONTRACT, STRICT LIABILITY, OR TORT (INCLUDING NEGLIGENCE OR OTHERWISE)
  28:d:\program files\msys2\home\bnguy\qmk_utils\avr8-gnu-toolchain\avr\include\avr\pgmspace.h ****   ARISING IN ANY WAY OUT OF THE USE OF THIS SOFTWARE, EVEN IF ADVISED OF THE
  29:d:\program files\msys2\home\bnguy\qmk_utils\avr8-gnu-toolchain\avr\include\avr\pgmspace.h ****   POSSIBILITY OF SUCH DAMAGE. */
  30:d:\program files\msys2\home\bnguy\qmk_utils\avr8-gnu-toolchain\avr\include\avr\pgmspace.h **** 
  31:d:\program files\msys2\home\bnguy\qmk_utils\avr8-gnu-toolchain\avr\include\avr\pgmspace.h **** /* $Id$ */
  32:d:\program files\msys2\home\bnguy\qmk_utils\avr8-gnu-toolchain\avr\include\avr\pgmspace.h **** 
  33:d:\program files\msys2\home\bnguy\qmk_utils\avr8-gnu-toolchain\avr\include\avr\pgmspace.h **** /*
  34:d:\program files\msys2\home\bnguy\qmk_utils\avr8-gnu-toolchain\avr\include\avr\pgmspace.h ****    pgmspace.h
  35:d:\program files\msys2\home\bnguy\qmk_utils\avr8-gnu-toolchain\avr\include\avr\pgmspace.h **** 
  36:d:\program files\msys2\home\bnguy\qmk_utils\avr8-gnu-toolchain\avr\include\avr\pgmspace.h ****    Contributors:
  37:d:\program files\msys2\home\bnguy\qmk_utils\avr8-gnu-toolchain\avr\include\avr\pgmspace.h ****      Created by Marek Michalkiewicz <marekm@linux.org.pl>
  38:d:\program files\msys2\home\bnguy\qmk_utils\avr8-gnu-toolchain\avr\include\avr\pgmspace.h ****      Eric B. Weddington <eric@ecentral.com>
  39:d:\program files\msys2\home\bnguy\qmk_utils\avr8-gnu-toolchain\avr\include\avr\pgmspace.h ****      Wolfgang Haidinger <wh@vmars.tuwien.ac.at> (pgm_read_dword())
  40:d:\program files\msys2\home\bnguy\qmk_utils\avr8-gnu-toolchain\avr\include\avr\pgmspace.h ****      Ivanov Anton <anton@arc.com.ru> (pgm_read_float())
  41:d:\program files\msys2\home\bnguy\qmk_utils\avr8-gnu-toolchain\avr\include\avr\pgmspace.h ****  */
  42:d:\program files\msys2\home\bnguy\qmk_utils\avr8-gnu-toolchain\avr\include\avr\pgmspace.h **** 
  43:d:\program files\msys2\home\bnguy\qmk_utils\avr8-gnu-toolchain\avr\include\avr\pgmspace.h **** /** \file */
  44:d:\program files\msys2\home\bnguy\qmk_utils\avr8-gnu-toolchain\avr\include\avr\pgmspace.h **** /** \defgroup avr_pgmspace <avr/pgmspace.h>: Program Space Utilities
  45:d:\program files\msys2\home\bnguy\qmk_utils\avr8-gnu-toolchain\avr\include\avr\pgmspace.h ****     \code
  46:d:\program files\msys2\home\bnguy\qmk_utils\avr8-gnu-toolchain\avr\include\avr\pgmspace.h ****     #include <avr/io.h>
  47:d:\program files\msys2\home\bnguy\qmk_utils\avr8-gnu-toolchain\avr\include\avr\pgmspace.h ****     #include <avr/pgmspace.h>
  48:d:\program files\msys2\home\bnguy\qmk_utils\avr8-gnu-toolchain\avr\include\avr\pgmspace.h ****     \endcode
  49:d:\program files\msys2\home\bnguy\qmk_utils\avr8-gnu-toolchain\avr\include\avr\pgmspace.h **** 
  50:d:\program files\msys2\home\bnguy\qmk_utils\avr8-gnu-toolchain\avr\include\avr\pgmspace.h ****     The functions in this module provide interfaces for a program to access
  51:d:\program files\msys2\home\bnguy\qmk_utils\avr8-gnu-toolchain\avr\include\avr\pgmspace.h ****     data stored in program space (flash memory) of the device.  In order to
  52:d:\program files\msys2\home\bnguy\qmk_utils\avr8-gnu-toolchain\avr\include\avr\pgmspace.h ****     use these functions, the target device must support either the \c LPM or
  53:d:\program files\msys2\home\bnguy\qmk_utils\avr8-gnu-toolchain\avr\include\avr\pgmspace.h ****     \c ELPM instructions.
  54:d:\program files\msys2\home\bnguy\qmk_utils\avr8-gnu-toolchain\avr\include\avr\pgmspace.h **** 
  55:d:\program files\msys2\home\bnguy\qmk_utils\avr8-gnu-toolchain\avr\include\avr\pgmspace.h ****     \note These functions are an attempt to provide some compatibility with
  56:d:\program files\msys2\home\bnguy\qmk_utils\avr8-gnu-toolchain\avr\include\avr\pgmspace.h ****     header files that come with IAR C, to make porting applications between
  57:d:\program files\msys2\home\bnguy\qmk_utils\avr8-gnu-toolchain\avr\include\avr\pgmspace.h ****     different compilers easier.  This is not 100% compatibility though (GCC
  58:d:\program files\msys2\home\bnguy\qmk_utils\avr8-gnu-toolchain\avr\include\avr\pgmspace.h ****     does not have full support for multiple address spaces yet).
  59:d:\program files\msys2\home\bnguy\qmk_utils\avr8-gnu-toolchain\avr\include\avr\pgmspace.h **** 
  60:d:\program files\msys2\home\bnguy\qmk_utils\avr8-gnu-toolchain\avr\include\avr\pgmspace.h ****     \note If you are working with strings which are completely based in ram,
  61:d:\program files\msys2\home\bnguy\qmk_utils\avr8-gnu-toolchain\avr\include\avr\pgmspace.h ****     use the standard string functions described in \ref avr_string.
  62:d:\program files\msys2\home\bnguy\qmk_utils\avr8-gnu-toolchain\avr\include\avr\pgmspace.h **** 
  63:d:\program files\msys2\home\bnguy\qmk_utils\avr8-gnu-toolchain\avr\include\avr\pgmspace.h ****     \note If possible, put your constant tables in the lower 64 KB and use
  64:d:\program files\msys2\home\bnguy\qmk_utils\avr8-gnu-toolchain\avr\include\avr\pgmspace.h ****     pgm_read_byte_near() or pgm_read_word_near() instead of
  65:d:\program files\msys2\home\bnguy\qmk_utils\avr8-gnu-toolchain\avr\include\avr\pgmspace.h ****     pgm_read_byte_far() or pgm_read_word_far() since it is more efficient that
  66:d:\program files\msys2\home\bnguy\qmk_utils\avr8-gnu-toolchain\avr\include\avr\pgmspace.h ****     way, and you can still use the upper 64K for executable code.
  67:d:\program files\msys2\home\bnguy\qmk_utils\avr8-gnu-toolchain\avr\include\avr\pgmspace.h ****     All functions that are suffixed with a \c _P \e require their
  68:d:\program files\msys2\home\bnguy\qmk_utils\avr8-gnu-toolchain\avr\include\avr\pgmspace.h ****     arguments to be in the lower 64 KB of the flash ROM, as they do
  69:d:\program files\msys2\home\bnguy\qmk_utils\avr8-gnu-toolchain\avr\include\avr\pgmspace.h ****     not use ELPM instructions.  This is normally not a big concern as
  70:d:\program files\msys2\home\bnguy\qmk_utils\avr8-gnu-toolchain\avr\include\avr\pgmspace.h ****     the linker setup arranges any program space constants declared
  71:d:\program files\msys2\home\bnguy\qmk_utils\avr8-gnu-toolchain\avr\include\avr\pgmspace.h ****     using the macros from this header file so they are placed right after
  72:d:\program files\msys2\home\bnguy\qmk_utils\avr8-gnu-toolchain\avr\include\avr\pgmspace.h ****     the interrupt vectors, and in front of any executable code.  However,
  73:d:\program files\msys2\home\bnguy\qmk_utils\avr8-gnu-toolchain\avr\include\avr\pgmspace.h ****     it can become a problem if there are too many of these constants, or
  74:d:\program files\msys2\home\bnguy\qmk_utils\avr8-gnu-toolchain\avr\include\avr\pgmspace.h ****     for bootloaders on devices with more than 64 KB of ROM.
  75:d:\program files\msys2\home\bnguy\qmk_utils\avr8-gnu-toolchain\avr\include\avr\pgmspace.h ****     <em>All these functions will not work in that situation.</em>
  76:d:\program files\msys2\home\bnguy\qmk_utils\avr8-gnu-toolchain\avr\include\avr\pgmspace.h **** 
  77:d:\program files\msys2\home\bnguy\qmk_utils\avr8-gnu-toolchain\avr\include\avr\pgmspace.h ****     \note For <b>Xmega</b> devices, make sure the NVM controller
  78:d:\program files\msys2\home\bnguy\qmk_utils\avr8-gnu-toolchain\avr\include\avr\pgmspace.h ****     command register (\c NVM.CMD or \c NVM_CMD) is set to 0x00 (NOP)
  79:d:\program files\msys2\home\bnguy\qmk_utils\avr8-gnu-toolchain\avr\include\avr\pgmspace.h ****     before using any of these functions.
  80:d:\program files\msys2\home\bnguy\qmk_utils\avr8-gnu-toolchain\avr\include\avr\pgmspace.h **** */
  81:d:\program files\msys2\home\bnguy\qmk_utils\avr8-gnu-toolchain\avr\include\avr\pgmspace.h **** 
  82:d:\program files\msys2\home\bnguy\qmk_utils\avr8-gnu-toolchain\avr\include\avr\pgmspace.h **** #ifndef __PGMSPACE_H_
  83:d:\program files\msys2\home\bnguy\qmk_utils\avr8-gnu-toolchain\avr\include\avr\pgmspace.h **** #define __PGMSPACE_H_ 1
  84:d:\program files\msys2\home\bnguy\qmk_utils\avr8-gnu-toolchain\avr\include\avr\pgmspace.h **** 
  85:d:\program files\msys2\home\bnguy\qmk_utils\avr8-gnu-toolchain\avr\include\avr\pgmspace.h **** #ifndef __DOXYGEN__
  86:d:\program files\msys2\home\bnguy\qmk_utils\avr8-gnu-toolchain\avr\include\avr\pgmspace.h **** #define __need_size_t
  87:d:\program files\msys2\home\bnguy\qmk_utils\avr8-gnu-toolchain\avr\include\avr\pgmspace.h **** #endif
  88:d:\program files\msys2\home\bnguy\qmk_utils\avr8-gnu-toolchain\avr\include\avr\pgmspace.h **** #include <inttypes.h>
  89:d:\program files\msys2\home\bnguy\qmk_utils\avr8-gnu-toolchain\avr\include\avr\pgmspace.h **** #include <stddef.h>
  90:d:\program files\msys2\home\bnguy\qmk_utils\avr8-gnu-toolchain\avr\include\avr\pgmspace.h **** #include <avr/io.h>
  91:d:\program files\msys2\home\bnguy\qmk_utils\avr8-gnu-toolchain\avr\include\avr\pgmspace.h **** 
  92:d:\program files\msys2\home\bnguy\qmk_utils\avr8-gnu-toolchain\avr\include\avr\pgmspace.h **** #ifndef __DOXYGEN__
  93:d:\program files\msys2\home\bnguy\qmk_utils\avr8-gnu-toolchain\avr\include\avr\pgmspace.h **** #ifndef __ATTR_CONST__
  94:d:\program files\msys2\home\bnguy\qmk_utils\avr8-gnu-toolchain\avr\include\avr\pgmspace.h **** #define __ATTR_CONST__ __attribute__((__const__))
  95:d:\program files\msys2\home\bnguy\qmk_utils\avr8-gnu-toolchain\avr\include\avr\pgmspace.h **** #endif
  96:d:\program files\msys2\home\bnguy\qmk_utils\avr8-gnu-toolchain\avr\include\avr\pgmspace.h **** 
  97:d:\program files\msys2\home\bnguy\qmk_utils\avr8-gnu-toolchain\avr\include\avr\pgmspace.h **** #ifndef __ATTR_PROGMEM__
  98:d:\program files\msys2\home\bnguy\qmk_utils\avr8-gnu-toolchain\avr\include\avr\pgmspace.h **** #define __ATTR_PROGMEM__ __attribute__((__progmem__))
  99:d:\program files\msys2\home\bnguy\qmk_utils\avr8-gnu-toolchain\avr\include\avr\pgmspace.h **** #endif
 100:d:\program files\msys2\home\bnguy\qmk_utils\avr8-gnu-toolchain\avr\include\avr\pgmspace.h **** 
 101:d:\program files\msys2\home\bnguy\qmk_utils\avr8-gnu-toolchain\avr\include\avr\pgmspace.h **** #ifndef __ATTR_PURE__
 102:d:\program files\msys2\home\bnguy\qmk_utils\avr8-gnu-toolchain\avr\include\avr\pgmspace.h **** #define __ATTR_PURE__ __attribute__((__pure__))
 103:d:\program files\msys2\home\bnguy\qmk_utils\avr8-gnu-toolchain\avr\include\avr\pgmspace.h **** #endif
 104:d:\program files\msys2\home\bnguy\qmk_utils\avr8-gnu-toolchain\avr\include\avr\pgmspace.h **** #endif	/* !__DOXYGEN__ */
 105:d:\program files\msys2\home\bnguy\qmk_utils\avr8-gnu-toolchain\avr\include\avr\pgmspace.h **** 
 106:d:\program files\msys2\home\bnguy\qmk_utils\avr8-gnu-toolchain\avr\include\avr\pgmspace.h **** /**
 107:d:\program files\msys2\home\bnguy\qmk_utils\avr8-gnu-toolchain\avr\include\avr\pgmspace.h ****    \ingroup avr_pgmspace
 108:d:\program files\msys2\home\bnguy\qmk_utils\avr8-gnu-toolchain\avr\include\avr\pgmspace.h ****    \def PROGMEM
 109:d:\program files\msys2\home\bnguy\qmk_utils\avr8-gnu-toolchain\avr\include\avr\pgmspace.h **** 
 110:d:\program files\msys2\home\bnguy\qmk_utils\avr8-gnu-toolchain\avr\include\avr\pgmspace.h ****    Attribute to use in order to declare an object being located in
 111:d:\program files\msys2\home\bnguy\qmk_utils\avr8-gnu-toolchain\avr\include\avr\pgmspace.h ****    flash ROM.
 112:d:\program files\msys2\home\bnguy\qmk_utils\avr8-gnu-toolchain\avr\include\avr\pgmspace.h ****  */
 113:d:\program files\msys2\home\bnguy\qmk_utils\avr8-gnu-toolchain\avr\include\avr\pgmspace.h **** #define PROGMEM __ATTR_PROGMEM__
 114:d:\program files\msys2\home\bnguy\qmk_utils\avr8-gnu-toolchain\avr\include\avr\pgmspace.h **** 
 115:d:\program files\msys2\home\bnguy\qmk_utils\avr8-gnu-toolchain\avr\include\avr\pgmspace.h **** #ifdef __cplusplus
 116:d:\program files\msys2\home\bnguy\qmk_utils\avr8-gnu-toolchain\avr\include\avr\pgmspace.h **** extern "C" {
 117:d:\program files\msys2\home\bnguy\qmk_utils\avr8-gnu-toolchain\avr\include\avr\pgmspace.h **** #endif
 118:d:\program files\msys2\home\bnguy\qmk_utils\avr8-gnu-toolchain\avr\include\avr\pgmspace.h **** 
 119:d:\program files\msys2\home\bnguy\qmk_utils\avr8-gnu-toolchain\avr\include\avr\pgmspace.h **** #if defined(__DOXYGEN__)
 120:d:\program files\msys2\home\bnguy\qmk_utils\avr8-gnu-toolchain\avr\include\avr\pgmspace.h **** /*
 121:d:\program files\msys2\home\bnguy\qmk_utils\avr8-gnu-toolchain\avr\include\avr\pgmspace.h ****  * Doxygen doesn't grok the appended attribute syntax of
 122:d:\program files\msys2\home\bnguy\qmk_utils\avr8-gnu-toolchain\avr\include\avr\pgmspace.h ****  * GCC, and confuses the typedefs with function decls, so
 123:d:\program files\msys2\home\bnguy\qmk_utils\avr8-gnu-toolchain\avr\include\avr\pgmspace.h ****  * supply a doxygen-friendly view.
 124:d:\program files\msys2\home\bnguy\qmk_utils\avr8-gnu-toolchain\avr\include\avr\pgmspace.h ****  */
 125:d:\program files\msys2\home\bnguy\qmk_utils\avr8-gnu-toolchain\avr\include\avr\pgmspace.h **** 
 126:d:\program files\msys2\home\bnguy\qmk_utils\avr8-gnu-toolchain\avr\include\avr\pgmspace.h **** /**
 127:d:\program files\msys2\home\bnguy\qmk_utils\avr8-gnu-toolchain\avr\include\avr\pgmspace.h ****    \ingroup avr_pgmspace
 128:d:\program files\msys2\home\bnguy\qmk_utils\avr8-gnu-toolchain\avr\include\avr\pgmspace.h ****    \typedef prog_void
 129:d:\program files\msys2\home\bnguy\qmk_utils\avr8-gnu-toolchain\avr\include\avr\pgmspace.h ****    \note DEPRECATED
 130:d:\program files\msys2\home\bnguy\qmk_utils\avr8-gnu-toolchain\avr\include\avr\pgmspace.h **** 
 131:d:\program files\msys2\home\bnguy\qmk_utils\avr8-gnu-toolchain\avr\include\avr\pgmspace.h ****    This typedef is now deprecated because the usage of the __progmem__ 
 132:d:\program files\msys2\home\bnguy\qmk_utils\avr8-gnu-toolchain\avr\include\avr\pgmspace.h ****    attribute on a type is not supported in GCC. However, the use of the 
 133:d:\program files\msys2\home\bnguy\qmk_utils\avr8-gnu-toolchain\avr\include\avr\pgmspace.h ****    __progmem__ attribute on a variable declaration is supported, and this is 
 134:d:\program files\msys2\home\bnguy\qmk_utils\avr8-gnu-toolchain\avr\include\avr\pgmspace.h ****    now the recommended usage.
 135:d:\program files\msys2\home\bnguy\qmk_utils\avr8-gnu-toolchain\avr\include\avr\pgmspace.h **** 
 136:d:\program files\msys2\home\bnguy\qmk_utils\avr8-gnu-toolchain\avr\include\avr\pgmspace.h ****    The typedef is only visible if the macro __PROG_TYPES_COMPAT__
 137:d:\program files\msys2\home\bnguy\qmk_utils\avr8-gnu-toolchain\avr\include\avr\pgmspace.h ****    has been defined before including <avr/pgmspace.h> (either by a
 138:d:\program files\msys2\home\bnguy\qmk_utils\avr8-gnu-toolchain\avr\include\avr\pgmspace.h ****    \c \#define directive, or by a -D compiler option.)
 139:d:\program files\msys2\home\bnguy\qmk_utils\avr8-gnu-toolchain\avr\include\avr\pgmspace.h **** 
 140:d:\program files\msys2\home\bnguy\qmk_utils\avr8-gnu-toolchain\avr\include\avr\pgmspace.h ****    Type of a "void" object located in flash ROM.  Does not make much
 141:d:\program files\msys2\home\bnguy\qmk_utils\avr8-gnu-toolchain\avr\include\avr\pgmspace.h ****    sense by itself, but can be used to declare a "void *" object in
 142:d:\program files\msys2\home\bnguy\qmk_utils\avr8-gnu-toolchain\avr\include\avr\pgmspace.h ****    flash ROM.
 143:d:\program files\msys2\home\bnguy\qmk_utils\avr8-gnu-toolchain\avr\include\avr\pgmspace.h **** */
 144:d:\program files\msys2\home\bnguy\qmk_utils\avr8-gnu-toolchain\avr\include\avr\pgmspace.h **** typedef void PROGMEM prog_void;
 145:d:\program files\msys2\home\bnguy\qmk_utils\avr8-gnu-toolchain\avr\include\avr\pgmspace.h **** 
 146:d:\program files\msys2\home\bnguy\qmk_utils\avr8-gnu-toolchain\avr\include\avr\pgmspace.h **** /**
 147:d:\program files\msys2\home\bnguy\qmk_utils\avr8-gnu-toolchain\avr\include\avr\pgmspace.h ****    \ingroup avr_pgmspace
 148:d:\program files\msys2\home\bnguy\qmk_utils\avr8-gnu-toolchain\avr\include\avr\pgmspace.h ****    \typedef prog_char
 149:d:\program files\msys2\home\bnguy\qmk_utils\avr8-gnu-toolchain\avr\include\avr\pgmspace.h ****    \note DEPRECATED
 150:d:\program files\msys2\home\bnguy\qmk_utils\avr8-gnu-toolchain\avr\include\avr\pgmspace.h **** 
 151:d:\program files\msys2\home\bnguy\qmk_utils\avr8-gnu-toolchain\avr\include\avr\pgmspace.h ****    This typedef is now deprecated because the usage of the __progmem__ 
 152:d:\program files\msys2\home\bnguy\qmk_utils\avr8-gnu-toolchain\avr\include\avr\pgmspace.h ****    attribute on a type is not supported in GCC. However, the use of the 
 153:d:\program files\msys2\home\bnguy\qmk_utils\avr8-gnu-toolchain\avr\include\avr\pgmspace.h ****    __progmem__ attribute on a variable declaration is supported, and this is 
 154:d:\program files\msys2\home\bnguy\qmk_utils\avr8-gnu-toolchain\avr\include\avr\pgmspace.h ****    now the recommended usage.
 155:d:\program files\msys2\home\bnguy\qmk_utils\avr8-gnu-toolchain\avr\include\avr\pgmspace.h **** 
 156:d:\program files\msys2\home\bnguy\qmk_utils\avr8-gnu-toolchain\avr\include\avr\pgmspace.h ****    The typedef is only visible if the macro __PROG_TYPES_COMPAT__
 157:d:\program files\msys2\home\bnguy\qmk_utils\avr8-gnu-toolchain\avr\include\avr\pgmspace.h ****    has been defined before including <avr/pgmspace.h> (either by a
 158:d:\program files\msys2\home\bnguy\qmk_utils\avr8-gnu-toolchain\avr\include\avr\pgmspace.h ****    \c \#define directive, or by a -D compiler option.)
 159:d:\program files\msys2\home\bnguy\qmk_utils\avr8-gnu-toolchain\avr\include\avr\pgmspace.h **** 
 160:d:\program files\msys2\home\bnguy\qmk_utils\avr8-gnu-toolchain\avr\include\avr\pgmspace.h ****    Type of a "char" object located in flash ROM.
 161:d:\program files\msys2\home\bnguy\qmk_utils\avr8-gnu-toolchain\avr\include\avr\pgmspace.h **** */
 162:d:\program files\msys2\home\bnguy\qmk_utils\avr8-gnu-toolchain\avr\include\avr\pgmspace.h **** typedef char PROGMEM prog_char;
 163:d:\program files\msys2\home\bnguy\qmk_utils\avr8-gnu-toolchain\avr\include\avr\pgmspace.h **** 
 164:d:\program files\msys2\home\bnguy\qmk_utils\avr8-gnu-toolchain\avr\include\avr\pgmspace.h **** /**
 165:d:\program files\msys2\home\bnguy\qmk_utils\avr8-gnu-toolchain\avr\include\avr\pgmspace.h ****    \ingroup avr_pgmspace
 166:d:\program files\msys2\home\bnguy\qmk_utils\avr8-gnu-toolchain\avr\include\avr\pgmspace.h ****    \typedef prog_uchar
 167:d:\program files\msys2\home\bnguy\qmk_utils\avr8-gnu-toolchain\avr\include\avr\pgmspace.h ****    \note DEPRECATED
 168:d:\program files\msys2\home\bnguy\qmk_utils\avr8-gnu-toolchain\avr\include\avr\pgmspace.h **** 
 169:d:\program files\msys2\home\bnguy\qmk_utils\avr8-gnu-toolchain\avr\include\avr\pgmspace.h ****    This typedef is now deprecated because the usage of the __progmem__ 
 170:d:\program files\msys2\home\bnguy\qmk_utils\avr8-gnu-toolchain\avr\include\avr\pgmspace.h ****    attribute on a type is not supported in GCC. However, the use of the 
 171:d:\program files\msys2\home\bnguy\qmk_utils\avr8-gnu-toolchain\avr\include\avr\pgmspace.h ****    __progmem__ attribute on a variable declaration is supported, and this is 
 172:d:\program files\msys2\home\bnguy\qmk_utils\avr8-gnu-toolchain\avr\include\avr\pgmspace.h ****    now the recommended usage.
 173:d:\program files\msys2\home\bnguy\qmk_utils\avr8-gnu-toolchain\avr\include\avr\pgmspace.h **** 
 174:d:\program files\msys2\home\bnguy\qmk_utils\avr8-gnu-toolchain\avr\include\avr\pgmspace.h ****    The typedef is only visible if the macro __PROG_TYPES_COMPAT__
 175:d:\program files\msys2\home\bnguy\qmk_utils\avr8-gnu-toolchain\avr\include\avr\pgmspace.h ****    has been defined before including <avr/pgmspace.h> (either by a
 176:d:\program files\msys2\home\bnguy\qmk_utils\avr8-gnu-toolchain\avr\include\avr\pgmspace.h ****    \c \#define directive, or by a -D compiler option.)
 177:d:\program files\msys2\home\bnguy\qmk_utils\avr8-gnu-toolchain\avr\include\avr\pgmspace.h **** 
 178:d:\program files\msys2\home\bnguy\qmk_utils\avr8-gnu-toolchain\avr\include\avr\pgmspace.h ****    Type of an "unsigned char" object located in flash ROM.
 179:d:\program files\msys2\home\bnguy\qmk_utils\avr8-gnu-toolchain\avr\include\avr\pgmspace.h **** */
 180:d:\program files\msys2\home\bnguy\qmk_utils\avr8-gnu-toolchain\avr\include\avr\pgmspace.h **** typedef unsigned char PROGMEM prog_uchar;
 181:d:\program files\msys2\home\bnguy\qmk_utils\avr8-gnu-toolchain\avr\include\avr\pgmspace.h **** 
 182:d:\program files\msys2\home\bnguy\qmk_utils\avr8-gnu-toolchain\avr\include\avr\pgmspace.h **** /**
 183:d:\program files\msys2\home\bnguy\qmk_utils\avr8-gnu-toolchain\avr\include\avr\pgmspace.h ****    \ingroup avr_pgmspace
 184:d:\program files\msys2\home\bnguy\qmk_utils\avr8-gnu-toolchain\avr\include\avr\pgmspace.h ****    \typedef prog_int8_t
 185:d:\program files\msys2\home\bnguy\qmk_utils\avr8-gnu-toolchain\avr\include\avr\pgmspace.h ****    \note DEPRECATED
 186:d:\program files\msys2\home\bnguy\qmk_utils\avr8-gnu-toolchain\avr\include\avr\pgmspace.h **** 
 187:d:\program files\msys2\home\bnguy\qmk_utils\avr8-gnu-toolchain\avr\include\avr\pgmspace.h ****    This typedef is now deprecated because the usage of the __progmem__ 
 188:d:\program files\msys2\home\bnguy\qmk_utils\avr8-gnu-toolchain\avr\include\avr\pgmspace.h ****    attribute on a type is not supported in GCC. However, the use of the 
 189:d:\program files\msys2\home\bnguy\qmk_utils\avr8-gnu-toolchain\avr\include\avr\pgmspace.h ****    __progmem__ attribute on a variable declaration is supported, and this is 
 190:d:\program files\msys2\home\bnguy\qmk_utils\avr8-gnu-toolchain\avr\include\avr\pgmspace.h ****    now the recommended usage.
 191:d:\program files\msys2\home\bnguy\qmk_utils\avr8-gnu-toolchain\avr\include\avr\pgmspace.h **** 
 192:d:\program files\msys2\home\bnguy\qmk_utils\avr8-gnu-toolchain\avr\include\avr\pgmspace.h ****    The typedef is only visible if the macro __PROG_TYPES_COMPAT__
 193:d:\program files\msys2\home\bnguy\qmk_utils\avr8-gnu-toolchain\avr\include\avr\pgmspace.h ****    has been defined before including <avr/pgmspace.h> (either by a
 194:d:\program files\msys2\home\bnguy\qmk_utils\avr8-gnu-toolchain\avr\include\avr\pgmspace.h ****    \c \#define directive, or by a -D compiler option.)
 195:d:\program files\msys2\home\bnguy\qmk_utils\avr8-gnu-toolchain\avr\include\avr\pgmspace.h **** 
 196:d:\program files\msys2\home\bnguy\qmk_utils\avr8-gnu-toolchain\avr\include\avr\pgmspace.h ****    Type of an "int8_t" object located in flash ROM.
 197:d:\program files\msys2\home\bnguy\qmk_utils\avr8-gnu-toolchain\avr\include\avr\pgmspace.h **** */
 198:d:\program files\msys2\home\bnguy\qmk_utils\avr8-gnu-toolchain\avr\include\avr\pgmspace.h **** typedef int8_t PROGMEM prog_int8_t;
 199:d:\program files\msys2\home\bnguy\qmk_utils\avr8-gnu-toolchain\avr\include\avr\pgmspace.h **** 
 200:d:\program files\msys2\home\bnguy\qmk_utils\avr8-gnu-toolchain\avr\include\avr\pgmspace.h **** /**
 201:d:\program files\msys2\home\bnguy\qmk_utils\avr8-gnu-toolchain\avr\include\avr\pgmspace.h ****    \ingroup avr_pgmspace
 202:d:\program files\msys2\home\bnguy\qmk_utils\avr8-gnu-toolchain\avr\include\avr\pgmspace.h ****    \typedef prog_uint8_t
 203:d:\program files\msys2\home\bnguy\qmk_utils\avr8-gnu-toolchain\avr\include\avr\pgmspace.h ****    \note DEPRECATED
 204:d:\program files\msys2\home\bnguy\qmk_utils\avr8-gnu-toolchain\avr\include\avr\pgmspace.h **** 
 205:d:\program files\msys2\home\bnguy\qmk_utils\avr8-gnu-toolchain\avr\include\avr\pgmspace.h ****    This typedef is now deprecated because the usage of the __progmem__ 
 206:d:\program files\msys2\home\bnguy\qmk_utils\avr8-gnu-toolchain\avr\include\avr\pgmspace.h ****    attribute on a type is not supported in GCC. However, the use of the 
 207:d:\program files\msys2\home\bnguy\qmk_utils\avr8-gnu-toolchain\avr\include\avr\pgmspace.h ****    __progmem__ attribute on a variable declaration is supported, and this is 
 208:d:\program files\msys2\home\bnguy\qmk_utils\avr8-gnu-toolchain\avr\include\avr\pgmspace.h ****    now the recommended usage.
 209:d:\program files\msys2\home\bnguy\qmk_utils\avr8-gnu-toolchain\avr\include\avr\pgmspace.h **** 
 210:d:\program files\msys2\home\bnguy\qmk_utils\avr8-gnu-toolchain\avr\include\avr\pgmspace.h ****    The typedef is only visible if the macro __PROG_TYPES_COMPAT__
 211:d:\program files\msys2\home\bnguy\qmk_utils\avr8-gnu-toolchain\avr\include\avr\pgmspace.h ****    has been defined before including <avr/pgmspace.h> (either by a
 212:d:\program files\msys2\home\bnguy\qmk_utils\avr8-gnu-toolchain\avr\include\avr\pgmspace.h ****    \c \#define directive, or by a -D compiler option.)
 213:d:\program files\msys2\home\bnguy\qmk_utils\avr8-gnu-toolchain\avr\include\avr\pgmspace.h **** 
 214:d:\program files\msys2\home\bnguy\qmk_utils\avr8-gnu-toolchain\avr\include\avr\pgmspace.h ****    Type of an "uint8_t" object located in flash ROM.
 215:d:\program files\msys2\home\bnguy\qmk_utils\avr8-gnu-toolchain\avr\include\avr\pgmspace.h **** */
 216:d:\program files\msys2\home\bnguy\qmk_utils\avr8-gnu-toolchain\avr\include\avr\pgmspace.h **** typedef uint8_t PROGMEM prog_uint8_t;
 217:d:\program files\msys2\home\bnguy\qmk_utils\avr8-gnu-toolchain\avr\include\avr\pgmspace.h **** 
 218:d:\program files\msys2\home\bnguy\qmk_utils\avr8-gnu-toolchain\avr\include\avr\pgmspace.h **** /**
 219:d:\program files\msys2\home\bnguy\qmk_utils\avr8-gnu-toolchain\avr\include\avr\pgmspace.h ****    \ingroup avr_pgmspace
 220:d:\program files\msys2\home\bnguy\qmk_utils\avr8-gnu-toolchain\avr\include\avr\pgmspace.h ****    \typedef prog_int16_t
 221:d:\program files\msys2\home\bnguy\qmk_utils\avr8-gnu-toolchain\avr\include\avr\pgmspace.h ****    \note DEPRECATED
 222:d:\program files\msys2\home\bnguy\qmk_utils\avr8-gnu-toolchain\avr\include\avr\pgmspace.h **** 
 223:d:\program files\msys2\home\bnguy\qmk_utils\avr8-gnu-toolchain\avr\include\avr\pgmspace.h ****    This typedef is now deprecated because the usage of the __progmem__ 
 224:d:\program files\msys2\home\bnguy\qmk_utils\avr8-gnu-toolchain\avr\include\avr\pgmspace.h ****    attribute on a type is not supported in GCC. However, the use of the 
 225:d:\program files\msys2\home\bnguy\qmk_utils\avr8-gnu-toolchain\avr\include\avr\pgmspace.h ****    __progmem__ attribute on a variable declaration is supported, and this is 
 226:d:\program files\msys2\home\bnguy\qmk_utils\avr8-gnu-toolchain\avr\include\avr\pgmspace.h ****    now the recommended usage.
 227:d:\program files\msys2\home\bnguy\qmk_utils\avr8-gnu-toolchain\avr\include\avr\pgmspace.h **** 
 228:d:\program files\msys2\home\bnguy\qmk_utils\avr8-gnu-toolchain\avr\include\avr\pgmspace.h ****    The typedef is only visible if the macro __PROG_TYPES_COMPAT__
 229:d:\program files\msys2\home\bnguy\qmk_utils\avr8-gnu-toolchain\avr\include\avr\pgmspace.h ****    has been defined before including <avr/pgmspace.h> (either by a
 230:d:\program files\msys2\home\bnguy\qmk_utils\avr8-gnu-toolchain\avr\include\avr\pgmspace.h ****    \c \#define directive, or by a -D compiler option.)
 231:d:\program files\msys2\home\bnguy\qmk_utils\avr8-gnu-toolchain\avr\include\avr\pgmspace.h **** 
 232:d:\program files\msys2\home\bnguy\qmk_utils\avr8-gnu-toolchain\avr\include\avr\pgmspace.h ****    Type of an "int16_t" object located in flash ROM.
 233:d:\program files\msys2\home\bnguy\qmk_utils\avr8-gnu-toolchain\avr\include\avr\pgmspace.h **** */
 234:d:\program files\msys2\home\bnguy\qmk_utils\avr8-gnu-toolchain\avr\include\avr\pgmspace.h **** typedef int16_t PROGMEM prog_int16_t;
 235:d:\program files\msys2\home\bnguy\qmk_utils\avr8-gnu-toolchain\avr\include\avr\pgmspace.h **** 
 236:d:\program files\msys2\home\bnguy\qmk_utils\avr8-gnu-toolchain\avr\include\avr\pgmspace.h **** /**
 237:d:\program files\msys2\home\bnguy\qmk_utils\avr8-gnu-toolchain\avr\include\avr\pgmspace.h ****    \ingroup avr_pgmspace
 238:d:\program files\msys2\home\bnguy\qmk_utils\avr8-gnu-toolchain\avr\include\avr\pgmspace.h ****    \typedef prog_uint16_t
 239:d:\program files\msys2\home\bnguy\qmk_utils\avr8-gnu-toolchain\avr\include\avr\pgmspace.h ****    \note DEPRECATED
 240:d:\program files\msys2\home\bnguy\qmk_utils\avr8-gnu-toolchain\avr\include\avr\pgmspace.h **** 
 241:d:\program files\msys2\home\bnguy\qmk_utils\avr8-gnu-toolchain\avr\include\avr\pgmspace.h ****    This typedef is now deprecated because the usage of the __progmem__ 
 242:d:\program files\msys2\home\bnguy\qmk_utils\avr8-gnu-toolchain\avr\include\avr\pgmspace.h ****    attribute on a type is not supported in GCC. However, the use of the 
 243:d:\program files\msys2\home\bnguy\qmk_utils\avr8-gnu-toolchain\avr\include\avr\pgmspace.h ****    __progmem__ attribute on a variable declaration is supported, and this is 
 244:d:\program files\msys2\home\bnguy\qmk_utils\avr8-gnu-toolchain\avr\include\avr\pgmspace.h ****    now the recommended usage.
 245:d:\program files\msys2\home\bnguy\qmk_utils\avr8-gnu-toolchain\avr\include\avr\pgmspace.h **** 
 246:d:\program files\msys2\home\bnguy\qmk_utils\avr8-gnu-toolchain\avr\include\avr\pgmspace.h ****    The typedef is only visible if the macro __PROG_TYPES_COMPAT__
 247:d:\program files\msys2\home\bnguy\qmk_utils\avr8-gnu-toolchain\avr\include\avr\pgmspace.h ****    has been defined before including <avr/pgmspace.h> (either by a
 248:d:\program files\msys2\home\bnguy\qmk_utils\avr8-gnu-toolchain\avr\include\avr\pgmspace.h ****    \c \#define directive, or by a -D compiler option.)
 249:d:\program files\msys2\home\bnguy\qmk_utils\avr8-gnu-toolchain\avr\include\avr\pgmspace.h **** 
 250:d:\program files\msys2\home\bnguy\qmk_utils\avr8-gnu-toolchain\avr\include\avr\pgmspace.h ****    Type of an "uint16_t" object located in flash ROM.
 251:d:\program files\msys2\home\bnguy\qmk_utils\avr8-gnu-toolchain\avr\include\avr\pgmspace.h **** */
 252:d:\program files\msys2\home\bnguy\qmk_utils\avr8-gnu-toolchain\avr\include\avr\pgmspace.h **** typedef uint16_t PROGMEM prog_uint16_t;
 253:d:\program files\msys2\home\bnguy\qmk_utils\avr8-gnu-toolchain\avr\include\avr\pgmspace.h **** 
 254:d:\program files\msys2\home\bnguy\qmk_utils\avr8-gnu-toolchain\avr\include\avr\pgmspace.h **** /**
 255:d:\program files\msys2\home\bnguy\qmk_utils\avr8-gnu-toolchain\avr\include\avr\pgmspace.h ****    \ingroup avr_pgmspace
 256:d:\program files\msys2\home\bnguy\qmk_utils\avr8-gnu-toolchain\avr\include\avr\pgmspace.h ****    \typedef prog_int32_t
 257:d:\program files\msys2\home\bnguy\qmk_utils\avr8-gnu-toolchain\avr\include\avr\pgmspace.h ****    \note DEPRECATED
 258:d:\program files\msys2\home\bnguy\qmk_utils\avr8-gnu-toolchain\avr\include\avr\pgmspace.h **** 
 259:d:\program files\msys2\home\bnguy\qmk_utils\avr8-gnu-toolchain\avr\include\avr\pgmspace.h ****    This typedef is now deprecated because the usage of the __progmem__ 
 260:d:\program files\msys2\home\bnguy\qmk_utils\avr8-gnu-toolchain\avr\include\avr\pgmspace.h ****    attribute on a type is not supported in GCC. However, the use of the 
 261:d:\program files\msys2\home\bnguy\qmk_utils\avr8-gnu-toolchain\avr\include\avr\pgmspace.h ****    __progmem__ attribute on a variable declaration is supported, and this is 
 262:d:\program files\msys2\home\bnguy\qmk_utils\avr8-gnu-toolchain\avr\include\avr\pgmspace.h ****    now the recommended usage.
 263:d:\program files\msys2\home\bnguy\qmk_utils\avr8-gnu-toolchain\avr\include\avr\pgmspace.h **** 
 264:d:\program files\msys2\home\bnguy\qmk_utils\avr8-gnu-toolchain\avr\include\avr\pgmspace.h ****    The typedef is only visible if the macro __PROG_TYPES_COMPAT__
 265:d:\program files\msys2\home\bnguy\qmk_utils\avr8-gnu-toolchain\avr\include\avr\pgmspace.h ****    has been defined before including <avr/pgmspace.h> (either by a
 266:d:\program files\msys2\home\bnguy\qmk_utils\avr8-gnu-toolchain\avr\include\avr\pgmspace.h ****    \c \#define directive, or by a -D compiler option.)
 267:d:\program files\msys2\home\bnguy\qmk_utils\avr8-gnu-toolchain\avr\include\avr\pgmspace.h **** 
 268:d:\program files\msys2\home\bnguy\qmk_utils\avr8-gnu-toolchain\avr\include\avr\pgmspace.h ****    Type of an "int32_t" object located in flash ROM.
 269:d:\program files\msys2\home\bnguy\qmk_utils\avr8-gnu-toolchain\avr\include\avr\pgmspace.h **** */
 270:d:\program files\msys2\home\bnguy\qmk_utils\avr8-gnu-toolchain\avr\include\avr\pgmspace.h **** typedef int32_t PROGMEM prog_int32_t;
 271:d:\program files\msys2\home\bnguy\qmk_utils\avr8-gnu-toolchain\avr\include\avr\pgmspace.h **** 
 272:d:\program files\msys2\home\bnguy\qmk_utils\avr8-gnu-toolchain\avr\include\avr\pgmspace.h **** /**
 273:d:\program files\msys2\home\bnguy\qmk_utils\avr8-gnu-toolchain\avr\include\avr\pgmspace.h ****    \ingroup avr_pgmspace
 274:d:\program files\msys2\home\bnguy\qmk_utils\avr8-gnu-toolchain\avr\include\avr\pgmspace.h ****    \typedef prog_uint32_t
 275:d:\program files\msys2\home\bnguy\qmk_utils\avr8-gnu-toolchain\avr\include\avr\pgmspace.h ****    \note DEPRECATED
 276:d:\program files\msys2\home\bnguy\qmk_utils\avr8-gnu-toolchain\avr\include\avr\pgmspace.h **** 
 277:d:\program files\msys2\home\bnguy\qmk_utils\avr8-gnu-toolchain\avr\include\avr\pgmspace.h ****    This typedef is now deprecated because the usage of the __progmem__ 
 278:d:\program files\msys2\home\bnguy\qmk_utils\avr8-gnu-toolchain\avr\include\avr\pgmspace.h ****    attribute on a type is not supported in GCC. However, the use of the 
 279:d:\program files\msys2\home\bnguy\qmk_utils\avr8-gnu-toolchain\avr\include\avr\pgmspace.h ****    __progmem__ attribute on a variable declaration is supported, and this is 
 280:d:\program files\msys2\home\bnguy\qmk_utils\avr8-gnu-toolchain\avr\include\avr\pgmspace.h ****    now the recommended usage.
 281:d:\program files\msys2\home\bnguy\qmk_utils\avr8-gnu-toolchain\avr\include\avr\pgmspace.h **** 
 282:d:\program files\msys2\home\bnguy\qmk_utils\avr8-gnu-toolchain\avr\include\avr\pgmspace.h ****    The typedef is only visible if the macro __PROG_TYPES_COMPAT__
 283:d:\program files\msys2\home\bnguy\qmk_utils\avr8-gnu-toolchain\avr\include\avr\pgmspace.h ****    has been defined before including <avr/pgmspace.h> (either by a
 284:d:\program files\msys2\home\bnguy\qmk_utils\avr8-gnu-toolchain\avr\include\avr\pgmspace.h ****    \c \#define directive, or by a -D compiler option.)
 285:d:\program files\msys2\home\bnguy\qmk_utils\avr8-gnu-toolchain\avr\include\avr\pgmspace.h **** 
 286:d:\program files\msys2\home\bnguy\qmk_utils\avr8-gnu-toolchain\avr\include\avr\pgmspace.h ****    Type of an "uint32_t" object located in flash ROM.
 287:d:\program files\msys2\home\bnguy\qmk_utils\avr8-gnu-toolchain\avr\include\avr\pgmspace.h **** */
 288:d:\program files\msys2\home\bnguy\qmk_utils\avr8-gnu-toolchain\avr\include\avr\pgmspace.h **** typedef uint32_t PROGMEM prog_uint32_t;
 289:d:\program files\msys2\home\bnguy\qmk_utils\avr8-gnu-toolchain\avr\include\avr\pgmspace.h **** 
 290:d:\program files\msys2\home\bnguy\qmk_utils\avr8-gnu-toolchain\avr\include\avr\pgmspace.h **** /**
 291:d:\program files\msys2\home\bnguy\qmk_utils\avr8-gnu-toolchain\avr\include\avr\pgmspace.h ****    \ingroup avr_pgmspace
 292:d:\program files\msys2\home\bnguy\qmk_utils\avr8-gnu-toolchain\avr\include\avr\pgmspace.h ****    \typedef prog_int64_t
 293:d:\program files\msys2\home\bnguy\qmk_utils\avr8-gnu-toolchain\avr\include\avr\pgmspace.h ****    \note DEPRECATED
 294:d:\program files\msys2\home\bnguy\qmk_utils\avr8-gnu-toolchain\avr\include\avr\pgmspace.h **** 
 295:d:\program files\msys2\home\bnguy\qmk_utils\avr8-gnu-toolchain\avr\include\avr\pgmspace.h ****    This typedef is now deprecated because the usage of the __progmem__ 
 296:d:\program files\msys2\home\bnguy\qmk_utils\avr8-gnu-toolchain\avr\include\avr\pgmspace.h ****    attribute on a type is not supported in GCC. However, the use of the 
 297:d:\program files\msys2\home\bnguy\qmk_utils\avr8-gnu-toolchain\avr\include\avr\pgmspace.h ****    __progmem__ attribute on a variable declaration is supported, and this is 
 298:d:\program files\msys2\home\bnguy\qmk_utils\avr8-gnu-toolchain\avr\include\avr\pgmspace.h ****    now the recommended usage.
 299:d:\program files\msys2\home\bnguy\qmk_utils\avr8-gnu-toolchain\avr\include\avr\pgmspace.h **** 
 300:d:\program files\msys2\home\bnguy\qmk_utils\avr8-gnu-toolchain\avr\include\avr\pgmspace.h ****    The typedef is only visible if the macro __PROG_TYPES_COMPAT__
 301:d:\program files\msys2\home\bnguy\qmk_utils\avr8-gnu-toolchain\avr\include\avr\pgmspace.h ****    has been defined before including <avr/pgmspace.h> (either by a
 302:d:\program files\msys2\home\bnguy\qmk_utils\avr8-gnu-toolchain\avr\include\avr\pgmspace.h ****    \c \#define directive, or by a -D compiler option.)
 303:d:\program files\msys2\home\bnguy\qmk_utils\avr8-gnu-toolchain\avr\include\avr\pgmspace.h **** 
 304:d:\program files\msys2\home\bnguy\qmk_utils\avr8-gnu-toolchain\avr\include\avr\pgmspace.h ****    Type of an "int64_t" object located in flash ROM.
 305:d:\program files\msys2\home\bnguy\qmk_utils\avr8-gnu-toolchain\avr\include\avr\pgmspace.h **** 
 306:d:\program files\msys2\home\bnguy\qmk_utils\avr8-gnu-toolchain\avr\include\avr\pgmspace.h ****    \note This type is not available when the compiler
 307:d:\program files\msys2\home\bnguy\qmk_utils\avr8-gnu-toolchain\avr\include\avr\pgmspace.h ****    option -mint8 is in effect.
 308:d:\program files\msys2\home\bnguy\qmk_utils\avr8-gnu-toolchain\avr\include\avr\pgmspace.h **** */
 309:d:\program files\msys2\home\bnguy\qmk_utils\avr8-gnu-toolchain\avr\include\avr\pgmspace.h **** typedef int64_t PROGMEM prog_int64_t;
 310:d:\program files\msys2\home\bnguy\qmk_utils\avr8-gnu-toolchain\avr\include\avr\pgmspace.h **** 
 311:d:\program files\msys2\home\bnguy\qmk_utils\avr8-gnu-toolchain\avr\include\avr\pgmspace.h **** /**
 312:d:\program files\msys2\home\bnguy\qmk_utils\avr8-gnu-toolchain\avr\include\avr\pgmspace.h ****    \ingroup avr_pgmspace
 313:d:\program files\msys2\home\bnguy\qmk_utils\avr8-gnu-toolchain\avr\include\avr\pgmspace.h ****    \typedef prog_uint64_t
 314:d:\program files\msys2\home\bnguy\qmk_utils\avr8-gnu-toolchain\avr\include\avr\pgmspace.h ****    \note DEPRECATED
 315:d:\program files\msys2\home\bnguy\qmk_utils\avr8-gnu-toolchain\avr\include\avr\pgmspace.h **** 
 316:d:\program files\msys2\home\bnguy\qmk_utils\avr8-gnu-toolchain\avr\include\avr\pgmspace.h ****    This typedef is now deprecated because the usage of the __progmem__ 
 317:d:\program files\msys2\home\bnguy\qmk_utils\avr8-gnu-toolchain\avr\include\avr\pgmspace.h ****    attribute on a type is not supported in GCC. However, the use of the 
 318:d:\program files\msys2\home\bnguy\qmk_utils\avr8-gnu-toolchain\avr\include\avr\pgmspace.h ****    __progmem__ attribute on a variable declaration is supported, and this is 
 319:d:\program files\msys2\home\bnguy\qmk_utils\avr8-gnu-toolchain\avr\include\avr\pgmspace.h ****    now the recommended usage.
 320:d:\program files\msys2\home\bnguy\qmk_utils\avr8-gnu-toolchain\avr\include\avr\pgmspace.h **** 
 321:d:\program files\msys2\home\bnguy\qmk_utils\avr8-gnu-toolchain\avr\include\avr\pgmspace.h ****    The typedef is only visible if the macro __PROG_TYPES_COMPAT__
 322:d:\program files\msys2\home\bnguy\qmk_utils\avr8-gnu-toolchain\avr\include\avr\pgmspace.h ****    has been defined before including <avr/pgmspace.h> (either by a
 323:d:\program files\msys2\home\bnguy\qmk_utils\avr8-gnu-toolchain\avr\include\avr\pgmspace.h ****    \c \#define directive, or by a -D compiler option.)
 324:d:\program files\msys2\home\bnguy\qmk_utils\avr8-gnu-toolchain\avr\include\avr\pgmspace.h **** 
 325:d:\program files\msys2\home\bnguy\qmk_utils\avr8-gnu-toolchain\avr\include\avr\pgmspace.h ****    Type of an "uint64_t" object located in flash ROM.
 326:d:\program files\msys2\home\bnguy\qmk_utils\avr8-gnu-toolchain\avr\include\avr\pgmspace.h **** 
 327:d:\program files\msys2\home\bnguy\qmk_utils\avr8-gnu-toolchain\avr\include\avr\pgmspace.h ****    \note This type is not available when the compiler
 328:d:\program files\msys2\home\bnguy\qmk_utils\avr8-gnu-toolchain\avr\include\avr\pgmspace.h ****    option -mint8 is in effect.
 329:d:\program files\msys2\home\bnguy\qmk_utils\avr8-gnu-toolchain\avr\include\avr\pgmspace.h **** */
 330:d:\program files\msys2\home\bnguy\qmk_utils\avr8-gnu-toolchain\avr\include\avr\pgmspace.h **** typedef uint64_t PROGMEM prog_uint64_t;
 331:d:\program files\msys2\home\bnguy\qmk_utils\avr8-gnu-toolchain\avr\include\avr\pgmspace.h **** 
 332:d:\program files\msys2\home\bnguy\qmk_utils\avr8-gnu-toolchain\avr\include\avr\pgmspace.h **** /** \ingroup avr_pgmspace
 333:d:\program files\msys2\home\bnguy\qmk_utils\avr8-gnu-toolchain\avr\include\avr\pgmspace.h ****     \def PGM_P
 334:d:\program files\msys2\home\bnguy\qmk_utils\avr8-gnu-toolchain\avr\include\avr\pgmspace.h **** 
 335:d:\program files\msys2\home\bnguy\qmk_utils\avr8-gnu-toolchain\avr\include\avr\pgmspace.h ****     Used to declare a variable that is a pointer to a string in program
 336:d:\program files\msys2\home\bnguy\qmk_utils\avr8-gnu-toolchain\avr\include\avr\pgmspace.h ****     space. */
 337:d:\program files\msys2\home\bnguy\qmk_utils\avr8-gnu-toolchain\avr\include\avr\pgmspace.h **** 
 338:d:\program files\msys2\home\bnguy\qmk_utils\avr8-gnu-toolchain\avr\include\avr\pgmspace.h **** #ifndef PGM_P
 339:d:\program files\msys2\home\bnguy\qmk_utils\avr8-gnu-toolchain\avr\include\avr\pgmspace.h **** #define PGM_P const char *
 340:d:\program files\msys2\home\bnguy\qmk_utils\avr8-gnu-toolchain\avr\include\avr\pgmspace.h **** #endif
 341:d:\program files\msys2\home\bnguy\qmk_utils\avr8-gnu-toolchain\avr\include\avr\pgmspace.h **** 
 342:d:\program files\msys2\home\bnguy\qmk_utils\avr8-gnu-toolchain\avr\include\avr\pgmspace.h **** /** \ingroup avr_pgmspace
 343:d:\program files\msys2\home\bnguy\qmk_utils\avr8-gnu-toolchain\avr\include\avr\pgmspace.h ****     \def PGM_VOID_P
 344:d:\program files\msys2\home\bnguy\qmk_utils\avr8-gnu-toolchain\avr\include\avr\pgmspace.h **** 
 345:d:\program files\msys2\home\bnguy\qmk_utils\avr8-gnu-toolchain\avr\include\avr\pgmspace.h ****     Used to declare a generic pointer to an object in program space. */
 346:d:\program files\msys2\home\bnguy\qmk_utils\avr8-gnu-toolchain\avr\include\avr\pgmspace.h **** 
 347:d:\program files\msys2\home\bnguy\qmk_utils\avr8-gnu-toolchain\avr\include\avr\pgmspace.h **** #ifndef PGM_VOID_P
 348:d:\program files\msys2\home\bnguy\qmk_utils\avr8-gnu-toolchain\avr\include\avr\pgmspace.h **** #define PGM_VOID_P const void *
 349:d:\program files\msys2\home\bnguy\qmk_utils\avr8-gnu-toolchain\avr\include\avr\pgmspace.h **** #endif
 350:d:\program files\msys2\home\bnguy\qmk_utils\avr8-gnu-toolchain\avr\include\avr\pgmspace.h **** 
 351:d:\program files\msys2\home\bnguy\qmk_utils\avr8-gnu-toolchain\avr\include\avr\pgmspace.h **** #elif defined(__PROG_TYPES_COMPAT__)  /* !DOXYGEN */
 352:d:\program files\msys2\home\bnguy\qmk_utils\avr8-gnu-toolchain\avr\include\avr\pgmspace.h **** 
 353:d:\program files\msys2\home\bnguy\qmk_utils\avr8-gnu-toolchain\avr\include\avr\pgmspace.h **** typedef void prog_void __attribute__((__progmem__,deprecated("prog_void type is deprecated.")));
 354:d:\program files\msys2\home\bnguy\qmk_utils\avr8-gnu-toolchain\avr\include\avr\pgmspace.h **** typedef char prog_char __attribute__((__progmem__,deprecated("prog_char type is deprecated.")));
 355:d:\program files\msys2\home\bnguy\qmk_utils\avr8-gnu-toolchain\avr\include\avr\pgmspace.h **** typedef unsigned char prog_uchar __attribute__((__progmem__,deprecated("prog_uchar type is deprecat
 356:d:\program files\msys2\home\bnguy\qmk_utils\avr8-gnu-toolchain\avr\include\avr\pgmspace.h **** typedef int8_t    prog_int8_t   __attribute__((__progmem__,deprecated("prog_int8_t type is deprecat
 357:d:\program files\msys2\home\bnguy\qmk_utils\avr8-gnu-toolchain\avr\include\avr\pgmspace.h **** typedef uint8_t   prog_uint8_t  __attribute__((__progmem__,deprecated("prog_uint8_t type is depreca
 358:d:\program files\msys2\home\bnguy\qmk_utils\avr8-gnu-toolchain\avr\include\avr\pgmspace.h **** typedef int16_t   prog_int16_t  __attribute__((__progmem__,deprecated("prog_int16_t type is depreca
 359:d:\program files\msys2\home\bnguy\qmk_utils\avr8-gnu-toolchain\avr\include\avr\pgmspace.h **** typedef uint16_t  prog_uint16_t __attribute__((__progmem__,deprecated("prog_uint16_t type is deprec
 360:d:\program files\msys2\home\bnguy\qmk_utils\avr8-gnu-toolchain\avr\include\avr\pgmspace.h **** typedef int32_t   prog_int32_t  __attribute__((__progmem__,deprecated("prog_int32_t type is depreca
 361:d:\program files\msys2\home\bnguy\qmk_utils\avr8-gnu-toolchain\avr\include\avr\pgmspace.h **** typedef uint32_t  prog_uint32_t __attribute__((__progmem__,deprecated("prog_uint32_t type is deprec
 362:d:\program files\msys2\home\bnguy\qmk_utils\avr8-gnu-toolchain\avr\include\avr\pgmspace.h **** #if !__USING_MINT8
 363:d:\program files\msys2\home\bnguy\qmk_utils\avr8-gnu-toolchain\avr\include\avr\pgmspace.h **** typedef int64_t   prog_int64_t  __attribute__((__progmem__,deprecated("prog_int64_t type is depreca
 364:d:\program files\msys2\home\bnguy\qmk_utils\avr8-gnu-toolchain\avr\include\avr\pgmspace.h **** typedef uint64_t  prog_uint64_t __attribute__((__progmem__,deprecated("prog_uint64_t type is deprec
 365:d:\program files\msys2\home\bnguy\qmk_utils\avr8-gnu-toolchain\avr\include\avr\pgmspace.h **** #endif
 366:d:\program files\msys2\home\bnguy\qmk_utils\avr8-gnu-toolchain\avr\include\avr\pgmspace.h **** 
 367:d:\program files\msys2\home\bnguy\qmk_utils\avr8-gnu-toolchain\avr\include\avr\pgmspace.h **** #ifndef PGM_P
 368:d:\program files\msys2\home\bnguy\qmk_utils\avr8-gnu-toolchain\avr\include\avr\pgmspace.h **** #define PGM_P const prog_char *
 369:d:\program files\msys2\home\bnguy\qmk_utils\avr8-gnu-toolchain\avr\include\avr\pgmspace.h **** #endif
 370:d:\program files\msys2\home\bnguy\qmk_utils\avr8-gnu-toolchain\avr\include\avr\pgmspace.h **** 
 371:d:\program files\msys2\home\bnguy\qmk_utils\avr8-gnu-toolchain\avr\include\avr\pgmspace.h **** #ifndef PGM_VOID_P
 372:d:\program files\msys2\home\bnguy\qmk_utils\avr8-gnu-toolchain\avr\include\avr\pgmspace.h **** #define PGM_VOID_P const prog_void *
 373:d:\program files\msys2\home\bnguy\qmk_utils\avr8-gnu-toolchain\avr\include\avr\pgmspace.h **** #endif
 374:d:\program files\msys2\home\bnguy\qmk_utils\avr8-gnu-toolchain\avr\include\avr\pgmspace.h **** 
 375:d:\program files\msys2\home\bnguy\qmk_utils\avr8-gnu-toolchain\avr\include\avr\pgmspace.h **** #else /* !defined(__DOXYGEN__), !defined(__PROG_TYPES_COMPAT__) */
 376:d:\program files\msys2\home\bnguy\qmk_utils\avr8-gnu-toolchain\avr\include\avr\pgmspace.h **** 
 377:d:\program files\msys2\home\bnguy\qmk_utils\avr8-gnu-toolchain\avr\include\avr\pgmspace.h **** #ifndef PGM_P
 378:d:\program files\msys2\home\bnguy\qmk_utils\avr8-gnu-toolchain\avr\include\avr\pgmspace.h **** #define PGM_P const char *
 379:d:\program files\msys2\home\bnguy\qmk_utils\avr8-gnu-toolchain\avr\include\avr\pgmspace.h **** #endif
 380:d:\program files\msys2\home\bnguy\qmk_utils\avr8-gnu-toolchain\avr\include\avr\pgmspace.h **** 
 381:d:\program files\msys2\home\bnguy\qmk_utils\avr8-gnu-toolchain\avr\include\avr\pgmspace.h **** #ifndef PGM_VOID_P
 382:d:\program files\msys2\home\bnguy\qmk_utils\avr8-gnu-toolchain\avr\include\avr\pgmspace.h **** #define PGM_VOID_P const void *
 383:d:\program files\msys2\home\bnguy\qmk_utils\avr8-gnu-toolchain\avr\include\avr\pgmspace.h **** #endif
 384:d:\program files\msys2\home\bnguy\qmk_utils\avr8-gnu-toolchain\avr\include\avr\pgmspace.h **** #endif /* defined(__DOXYGEN__), defined(__PROG_TYPES_COMPAT__) */
 385:d:\program files\msys2\home\bnguy\qmk_utils\avr8-gnu-toolchain\avr\include\avr\pgmspace.h **** 
 386:d:\program files\msys2\home\bnguy\qmk_utils\avr8-gnu-toolchain\avr\include\avr\pgmspace.h **** /* Although in C, we can get away with just using __c, it does not work in
 387:d:\program files\msys2\home\bnguy\qmk_utils\avr8-gnu-toolchain\avr\include\avr\pgmspace.h ****    C++. We need to use &__c[0] to avoid the compiler puking. Dave Hylands
 388:d:\program files\msys2\home\bnguy\qmk_utils\avr8-gnu-toolchain\avr\include\avr\pgmspace.h ****    explaned it thusly,
 389:d:\program files\msys2\home\bnguy\qmk_utils\avr8-gnu-toolchain\avr\include\avr\pgmspace.h **** 
 390:d:\program files\msys2\home\bnguy\qmk_utils\avr8-gnu-toolchain\avr\include\avr\pgmspace.h ****      Let's suppose that we use PSTR("Test"). In this case, the type returned
 391:d:\program files\msys2\home\bnguy\qmk_utils\avr8-gnu-toolchain\avr\include\avr\pgmspace.h ****      by __c is a prog_char[5] and not a prog_char *. While these are
 392:d:\program files\msys2\home\bnguy\qmk_utils\avr8-gnu-toolchain\avr\include\avr\pgmspace.h ****      compatible, they aren't the same thing (especially in C++). The type
 393:d:\program files\msys2\home\bnguy\qmk_utils\avr8-gnu-toolchain\avr\include\avr\pgmspace.h ****      returned by &__c[0] is a prog_char *, which explains why it works
 394:d:\program files\msys2\home\bnguy\qmk_utils\avr8-gnu-toolchain\avr\include\avr\pgmspace.h ****      fine. */
 395:d:\program files\msys2\home\bnguy\qmk_utils\avr8-gnu-toolchain\avr\include\avr\pgmspace.h **** 
 396:d:\program files\msys2\home\bnguy\qmk_utils\avr8-gnu-toolchain\avr\include\avr\pgmspace.h **** #if defined(__DOXYGEN__)
 397:d:\program files\msys2\home\bnguy\qmk_utils\avr8-gnu-toolchain\avr\include\avr\pgmspace.h **** /*
 398:d:\program files\msys2\home\bnguy\qmk_utils\avr8-gnu-toolchain\avr\include\avr\pgmspace.h ****  * The #define below is just a dummy that serves documentation
 399:d:\program files\msys2\home\bnguy\qmk_utils\avr8-gnu-toolchain\avr\include\avr\pgmspace.h ****  * purposes only.
 400:d:\program files\msys2\home\bnguy\qmk_utils\avr8-gnu-toolchain\avr\include\avr\pgmspace.h ****  */
 401:d:\program files\msys2\home\bnguy\qmk_utils\avr8-gnu-toolchain\avr\include\avr\pgmspace.h **** /** \ingroup avr_pgmspace
 402:d:\program files\msys2\home\bnguy\qmk_utils\avr8-gnu-toolchain\avr\include\avr\pgmspace.h ****     \def PSTR(s)
 403:d:\program files\msys2\home\bnguy\qmk_utils\avr8-gnu-toolchain\avr\include\avr\pgmspace.h **** 
 404:d:\program files\msys2\home\bnguy\qmk_utils\avr8-gnu-toolchain\avr\include\avr\pgmspace.h ****     Used to declare a static pointer to a string in program space. */
 405:d:\program files\msys2\home\bnguy\qmk_utils\avr8-gnu-toolchain\avr\include\avr\pgmspace.h **** # define PSTR(s) ((const PROGMEM char *)(s))
 406:d:\program files\msys2\home\bnguy\qmk_utils\avr8-gnu-toolchain\avr\include\avr\pgmspace.h **** #else  /* !DOXYGEN */
 407:d:\program files\msys2\home\bnguy\qmk_utils\avr8-gnu-toolchain\avr\include\avr\pgmspace.h **** /* The real thing. */
 408:d:\program files\msys2\home\bnguy\qmk_utils\avr8-gnu-toolchain\avr\include\avr\pgmspace.h **** # define PSTR(s) (__extension__({static const char __c[] PROGMEM = (s); &__c[0];}))
 409:d:\program files\msys2\home\bnguy\qmk_utils\avr8-gnu-toolchain\avr\include\avr\pgmspace.h **** #endif /* DOXYGEN */
 410:d:\program files\msys2\home\bnguy\qmk_utils\avr8-gnu-toolchain\avr\include\avr\pgmspace.h **** 
 411:d:\program files\msys2\home\bnguy\qmk_utils\avr8-gnu-toolchain\avr\include\avr\pgmspace.h **** #ifndef __DOXYGEN__ /* Internal macros, not documented. */
 412:d:\program files\msys2\home\bnguy\qmk_utils\avr8-gnu-toolchain\avr\include\avr\pgmspace.h **** #define __LPM_classic__(addr)   \
 413:d:\program files\msys2\home\bnguy\qmk_utils\avr8-gnu-toolchain\avr\include\avr\pgmspace.h **** (__extension__({                \
 414:d:\program files\msys2\home\bnguy\qmk_utils\avr8-gnu-toolchain\avr\include\avr\pgmspace.h ****     uint16_t __addr16 = (uint16_t)(addr); \
 415:d:\program files\msys2\home\bnguy\qmk_utils\avr8-gnu-toolchain\avr\include\avr\pgmspace.h ****     uint8_t __result;           \
 416:d:\program files\msys2\home\bnguy\qmk_utils\avr8-gnu-toolchain\avr\include\avr\pgmspace.h ****     __asm__ __volatile__        \
 417:d:\program files\msys2\home\bnguy\qmk_utils\avr8-gnu-toolchain\avr\include\avr\pgmspace.h ****     (                           \
 418:d:\program files\msys2\home\bnguy\qmk_utils\avr8-gnu-toolchain\avr\include\avr\pgmspace.h ****         "lpm" "\n\t"            \
 419:d:\program files\msys2\home\bnguy\qmk_utils\avr8-gnu-toolchain\avr\include\avr\pgmspace.h ****         "mov %0, r0" "\n\t"     \
 420:d:\program files\msys2\home\bnguy\qmk_utils\avr8-gnu-toolchain\avr\include\avr\pgmspace.h ****         : "=r" (__result)       \
 421:d:\program files\msys2\home\bnguy\qmk_utils\avr8-gnu-toolchain\avr\include\avr\pgmspace.h ****         : "z" (__addr16)        \
 422:d:\program files\msys2\home\bnguy\qmk_utils\avr8-gnu-toolchain\avr\include\avr\pgmspace.h ****         : "r0"                  \
 423:d:\program files\msys2\home\bnguy\qmk_utils\avr8-gnu-toolchain\avr\include\avr\pgmspace.h ****     );                          \
 424:d:\program files\msys2\home\bnguy\qmk_utils\avr8-gnu-toolchain\avr\include\avr\pgmspace.h ****     __result;                   \
 425:d:\program files\msys2\home\bnguy\qmk_utils\avr8-gnu-toolchain\avr\include\avr\pgmspace.h **** }))
 426:d:\program files\msys2\home\bnguy\qmk_utils\avr8-gnu-toolchain\avr\include\avr\pgmspace.h **** 
 427:d:\program files\msys2\home\bnguy\qmk_utils\avr8-gnu-toolchain\avr\include\avr\pgmspace.h **** #define __LPM_tiny__(addr)      \
 428:d:\program files\msys2\home\bnguy\qmk_utils\avr8-gnu-toolchain\avr\include\avr\pgmspace.h **** (__extension__({                \
 429:d:\program files\msys2\home\bnguy\qmk_utils\avr8-gnu-toolchain\avr\include\avr\pgmspace.h ****     uint16_t __addr16 = (uint16_t)(addr) + __AVR_TINY_PM_BASE_ADDRESS__; \
 430:d:\program files\msys2\home\bnguy\qmk_utils\avr8-gnu-toolchain\avr\include\avr\pgmspace.h ****     uint8_t __result;           \
 431:d:\program files\msys2\home\bnguy\qmk_utils\avr8-gnu-toolchain\avr\include\avr\pgmspace.h ****     __asm__                     \
 432:d:\program files\msys2\home\bnguy\qmk_utils\avr8-gnu-toolchain\avr\include\avr\pgmspace.h ****     (                           \
 433:d:\program files\msys2\home\bnguy\qmk_utils\avr8-gnu-toolchain\avr\include\avr\pgmspace.h ****         "ld %0, z" "\n\t"       \
 434:d:\program files\msys2\home\bnguy\qmk_utils\avr8-gnu-toolchain\avr\include\avr\pgmspace.h ****         : "=r" (__result)       \
 435:d:\program files\msys2\home\bnguy\qmk_utils\avr8-gnu-toolchain\avr\include\avr\pgmspace.h ****         : "z" (__addr16)        \
 436:d:\program files\msys2\home\bnguy\qmk_utils\avr8-gnu-toolchain\avr\include\avr\pgmspace.h ****     );                          \
 437:d:\program files\msys2\home\bnguy\qmk_utils\avr8-gnu-toolchain\avr\include\avr\pgmspace.h ****     __result;                   \
 438:d:\program files\msys2\home\bnguy\qmk_utils\avr8-gnu-toolchain\avr\include\avr\pgmspace.h **** }))
 439:d:\program files\msys2\home\bnguy\qmk_utils\avr8-gnu-toolchain\avr\include\avr\pgmspace.h **** 
 440:d:\program files\msys2\home\bnguy\qmk_utils\avr8-gnu-toolchain\avr\include\avr\pgmspace.h **** #define __LPM_enhanced__(addr)  \
 441:d:\program files\msys2\home\bnguy\qmk_utils\avr8-gnu-toolchain\avr\include\avr\pgmspace.h **** (__extension__({                \
 442:d:\program files\msys2\home\bnguy\qmk_utils\avr8-gnu-toolchain\avr\include\avr\pgmspace.h ****     uint16_t __addr16 = (uint16_t)(addr); \
 443:d:\program files\msys2\home\bnguy\qmk_utils\avr8-gnu-toolchain\avr\include\avr\pgmspace.h ****     uint8_t __result;           \
 444:d:\program files\msys2\home\bnguy\qmk_utils\avr8-gnu-toolchain\avr\include\avr\pgmspace.h ****     __asm__ __volatile__        \
 445:d:\program files\msys2\home\bnguy\qmk_utils\avr8-gnu-toolchain\avr\include\avr\pgmspace.h ****     (                           \
 446:d:\program files\msys2\home\bnguy\qmk_utils\avr8-gnu-toolchain\avr\include\avr\pgmspace.h ****         "lpm %0, Z" "\n\t"      \
 447:d:\program files\msys2\home\bnguy\qmk_utils\avr8-gnu-toolchain\avr\include\avr\pgmspace.h ****         : "=r" (__result)       \
 448:d:\program files\msys2\home\bnguy\qmk_utils\avr8-gnu-toolchain\avr\include\avr\pgmspace.h ****         : "z" (__addr16)        \
 449:d:\program files\msys2\home\bnguy\qmk_utils\avr8-gnu-toolchain\avr\include\avr\pgmspace.h ****     );                          \
 450:d:\program files\msys2\home\bnguy\qmk_utils\avr8-gnu-toolchain\avr\include\avr\pgmspace.h ****     __result;                   \
 451:d:\program files\msys2\home\bnguy\qmk_utils\avr8-gnu-toolchain\avr\include\avr\pgmspace.h **** }))
 452:d:\program files\msys2\home\bnguy\qmk_utils\avr8-gnu-toolchain\avr\include\avr\pgmspace.h **** 
 453:d:\program files\msys2\home\bnguy\qmk_utils\avr8-gnu-toolchain\avr\include\avr\pgmspace.h **** #define __LPM_word_classic__(addr)          \
 454:d:\program files\msys2\home\bnguy\qmk_utils\avr8-gnu-toolchain\avr\include\avr\pgmspace.h **** (__extension__({                            \
 455:d:\program files\msys2\home\bnguy\qmk_utils\avr8-gnu-toolchain\avr\include\avr\pgmspace.h ****     uint16_t __addr16 = (uint16_t)(addr);   \
 456:d:\program files\msys2\home\bnguy\qmk_utils\avr8-gnu-toolchain\avr\include\avr\pgmspace.h ****     uint16_t __result;                      \
 457:d:\program files\msys2\home\bnguy\qmk_utils\avr8-gnu-toolchain\avr\include\avr\pgmspace.h ****     __asm__ __volatile__                    \
 458:d:\program files\msys2\home\bnguy\qmk_utils\avr8-gnu-toolchain\avr\include\avr\pgmspace.h ****     (                                       \
 459:d:\program files\msys2\home\bnguy\qmk_utils\avr8-gnu-toolchain\avr\include\avr\pgmspace.h ****         "lpm"           "\n\t"              \
 460:d:\program files\msys2\home\bnguy\qmk_utils\avr8-gnu-toolchain\avr\include\avr\pgmspace.h ****         "mov %A0, r0"   "\n\t"              \
 461:d:\program files\msys2\home\bnguy\qmk_utils\avr8-gnu-toolchain\avr\include\avr\pgmspace.h ****         "adiw r30, 1"   "\n\t"              \
 462:d:\program files\msys2\home\bnguy\qmk_utils\avr8-gnu-toolchain\avr\include\avr\pgmspace.h ****         "lpm"           "\n\t"              \
 463:d:\program files\msys2\home\bnguy\qmk_utils\avr8-gnu-toolchain\avr\include\avr\pgmspace.h ****         "mov %B0, r0"   "\n\t"              \
 464:d:\program files\msys2\home\bnguy\qmk_utils\avr8-gnu-toolchain\avr\include\avr\pgmspace.h ****         : "=r" (__result), "=z" (__addr16)  \
 465:d:\program files\msys2\home\bnguy\qmk_utils\avr8-gnu-toolchain\avr\include\avr\pgmspace.h ****         : "1" (__addr16)                    \
 466:d:\program files\msys2\home\bnguy\qmk_utils\avr8-gnu-toolchain\avr\include\avr\pgmspace.h ****         : "r0"                              \
 467:d:\program files\msys2\home\bnguy\qmk_utils\avr8-gnu-toolchain\avr\include\avr\pgmspace.h ****     );                                      \
 468:d:\program files\msys2\home\bnguy\qmk_utils\avr8-gnu-toolchain\avr\include\avr\pgmspace.h ****     __result;                               \
 469:d:\program files\msys2\home\bnguy\qmk_utils\avr8-gnu-toolchain\avr\include\avr\pgmspace.h **** }))
 470:d:\program files\msys2\home\bnguy\qmk_utils\avr8-gnu-toolchain\avr\include\avr\pgmspace.h **** 
 471:d:\program files\msys2\home\bnguy\qmk_utils\avr8-gnu-toolchain\avr\include\avr\pgmspace.h **** #define __LPM_word_tiny__(addr)             \
 472:d:\program files\msys2\home\bnguy\qmk_utils\avr8-gnu-toolchain\avr\include\avr\pgmspace.h **** (__extension__({                            \
 473:d:\program files\msys2\home\bnguy\qmk_utils\avr8-gnu-toolchain\avr\include\avr\pgmspace.h ****     uint16_t __addr16 = (uint16_t)(addr) + __AVR_TINY_PM_BASE_ADDRESS__; \
 474:d:\program files\msys2\home\bnguy\qmk_utils\avr8-gnu-toolchain\avr\include\avr\pgmspace.h ****     uint16_t __result;                      \
 475:d:\program files\msys2\home\bnguy\qmk_utils\avr8-gnu-toolchain\avr\include\avr\pgmspace.h ****     __asm__                                 \
 476:d:\program files\msys2\home\bnguy\qmk_utils\avr8-gnu-toolchain\avr\include\avr\pgmspace.h ****     (                                       \
 477:d:\program files\msys2\home\bnguy\qmk_utils\avr8-gnu-toolchain\avr\include\avr\pgmspace.h ****         "ld %A0, z+"     "\n\t"             \
 478:d:\program files\msys2\home\bnguy\qmk_utils\avr8-gnu-toolchain\avr\include\avr\pgmspace.h ****         "ld %B0, z"      "\n\t"             \
 479:d:\program files\msys2\home\bnguy\qmk_utils\avr8-gnu-toolchain\avr\include\avr\pgmspace.h ****         : "=r" (__result), "=z" (__addr16)  \
 480:d:\program files\msys2\home\bnguy\qmk_utils\avr8-gnu-toolchain\avr\include\avr\pgmspace.h ****         : "1" (__addr16)                    \
 481:d:\program files\msys2\home\bnguy\qmk_utils\avr8-gnu-toolchain\avr\include\avr\pgmspace.h ****     );                                      \
 482:d:\program files\msys2\home\bnguy\qmk_utils\avr8-gnu-toolchain\avr\include\avr\pgmspace.h ****     __result;                               \
 483:d:\program files\msys2\home\bnguy\qmk_utils\avr8-gnu-toolchain\avr\include\avr\pgmspace.h **** }))
 484:d:\program files\msys2\home\bnguy\qmk_utils\avr8-gnu-toolchain\avr\include\avr\pgmspace.h **** 
 485:d:\program files\msys2\home\bnguy\qmk_utils\avr8-gnu-toolchain\avr\include\avr\pgmspace.h **** #define __LPM_word_enhanced__(addr)         \
 486:d:\program files\msys2\home\bnguy\qmk_utils\avr8-gnu-toolchain\avr\include\avr\pgmspace.h **** (__extension__({                            \
 487:d:\program files\msys2\home\bnguy\qmk_utils\avr8-gnu-toolchain\avr\include\avr\pgmspace.h ****     uint16_t __addr16 = (uint16_t)(addr);   \
 488:d:\program files\msys2\home\bnguy\qmk_utils\avr8-gnu-toolchain\avr\include\avr\pgmspace.h ****     uint16_t __result;                      \
 489:d:\program files\msys2\home\bnguy\qmk_utils\avr8-gnu-toolchain\avr\include\avr\pgmspace.h ****     __asm__ __volatile__                    \
 490:d:\program files\msys2\home\bnguy\qmk_utils\avr8-gnu-toolchain\avr\include\avr\pgmspace.h ****     (                                       \
 491:d:\program files\msys2\home\bnguy\qmk_utils\avr8-gnu-toolchain\avr\include\avr\pgmspace.h ****         "lpm %A0, Z+"   "\n\t"              \
 492:d:\program files\msys2\home\bnguy\qmk_utils\avr8-gnu-toolchain\avr\include\avr\pgmspace.h ****         "lpm %B0, Z"    "\n\t"              \
 493:d:\program files\msys2\home\bnguy\qmk_utils\avr8-gnu-toolchain\avr\include\avr\pgmspace.h ****         : "=r" (__result), "=z" (__addr16)  \
 494:d:\program files\msys2\home\bnguy\qmk_utils\avr8-gnu-toolchain\avr\include\avr\pgmspace.h ****         : "1" (__addr16)                    \
 495:d:\program files\msys2\home\bnguy\qmk_utils\avr8-gnu-toolchain\avr\include\avr\pgmspace.h ****     );                                      \
 496:d:\program files\msys2\home\bnguy\qmk_utils\avr8-gnu-toolchain\avr\include\avr\pgmspace.h ****     __result;                               \
 497:d:\program files\msys2\home\bnguy\qmk_utils\avr8-gnu-toolchain\avr\include\avr\pgmspace.h **** }))
 498:d:\program files\msys2\home\bnguy\qmk_utils\avr8-gnu-toolchain\avr\include\avr\pgmspace.h **** 
 499:d:\program files\msys2\home\bnguy\qmk_utils\avr8-gnu-toolchain\avr\include\avr\pgmspace.h **** #define __LPM_dword_classic__(addr)         \
 500:d:\program files\msys2\home\bnguy\qmk_utils\avr8-gnu-toolchain\avr\include\avr\pgmspace.h **** (__extension__({                            \
 501:d:\program files\msys2\home\bnguy\qmk_utils\avr8-gnu-toolchain\avr\include\avr\pgmspace.h ****     uint16_t __addr16 = (uint16_t)(addr);   \
 502:d:\program files\msys2\home\bnguy\qmk_utils\avr8-gnu-toolchain\avr\include\avr\pgmspace.h ****     uint32_t __result;                      \
 503:d:\program files\msys2\home\bnguy\qmk_utils\avr8-gnu-toolchain\avr\include\avr\pgmspace.h ****     __asm__ __volatile__                    \
 504:d:\program files\msys2\home\bnguy\qmk_utils\avr8-gnu-toolchain\avr\include\avr\pgmspace.h ****     (                                       \
 505:d:\program files\msys2\home\bnguy\qmk_utils\avr8-gnu-toolchain\avr\include\avr\pgmspace.h ****         "lpm"           "\n\t"              \
 506:d:\program files\msys2\home\bnguy\qmk_utils\avr8-gnu-toolchain\avr\include\avr\pgmspace.h ****         "mov %A0, r0"   "\n\t"              \
 507:d:\program files\msys2\home\bnguy\qmk_utils\avr8-gnu-toolchain\avr\include\avr\pgmspace.h ****         "adiw r30, 1"   "\n\t"              \
 508:d:\program files\msys2\home\bnguy\qmk_utils\avr8-gnu-toolchain\avr\include\avr\pgmspace.h ****         "lpm"           "\n\t"              \
 509:d:\program files\msys2\home\bnguy\qmk_utils\avr8-gnu-toolchain\avr\include\avr\pgmspace.h ****         "mov %B0, r0"   "\n\t"              \
 510:d:\program files\msys2\home\bnguy\qmk_utils\avr8-gnu-toolchain\avr\include\avr\pgmspace.h ****         "adiw r30, 1"   "\n\t"              \
 511:d:\program files\msys2\home\bnguy\qmk_utils\avr8-gnu-toolchain\avr\include\avr\pgmspace.h ****         "lpm"           "\n\t"              \
 512:d:\program files\msys2\home\bnguy\qmk_utils\avr8-gnu-toolchain\avr\include\avr\pgmspace.h ****         "mov %C0, r0"   "\n\t"              \
 513:d:\program files\msys2\home\bnguy\qmk_utils\avr8-gnu-toolchain\avr\include\avr\pgmspace.h ****         "adiw r30, 1"   "\n\t"              \
 514:d:\program files\msys2\home\bnguy\qmk_utils\avr8-gnu-toolchain\avr\include\avr\pgmspace.h ****         "lpm"           "\n\t"              \
 515:d:\program files\msys2\home\bnguy\qmk_utils\avr8-gnu-toolchain\avr\include\avr\pgmspace.h ****         "mov %D0, r0"   "\n\t"              \
 516:d:\program files\msys2\home\bnguy\qmk_utils\avr8-gnu-toolchain\avr\include\avr\pgmspace.h ****         : "=r" (__result), "=z" (__addr16)  \
 517:d:\program files\msys2\home\bnguy\qmk_utils\avr8-gnu-toolchain\avr\include\avr\pgmspace.h ****         : "1" (__addr16)                    \
 518:d:\program files\msys2\home\bnguy\qmk_utils\avr8-gnu-toolchain\avr\include\avr\pgmspace.h ****         : "r0"                              \
 519:d:\program files\msys2\home\bnguy\qmk_utils\avr8-gnu-toolchain\avr\include\avr\pgmspace.h ****     );                                      \
 520:d:\program files\msys2\home\bnguy\qmk_utils\avr8-gnu-toolchain\avr\include\avr\pgmspace.h ****     __result;                               \
 521:d:\program files\msys2\home\bnguy\qmk_utils\avr8-gnu-toolchain\avr\include\avr\pgmspace.h **** }))
 522:d:\program files\msys2\home\bnguy\qmk_utils\avr8-gnu-toolchain\avr\include\avr\pgmspace.h **** 
 523:d:\program files\msys2\home\bnguy\qmk_utils\avr8-gnu-toolchain\avr\include\avr\pgmspace.h **** #define __LPM_dword_tiny__(addr)            \
 524:d:\program files\msys2\home\bnguy\qmk_utils\avr8-gnu-toolchain\avr\include\avr\pgmspace.h **** (__extension__({                            \
 525:d:\program files\msys2\home\bnguy\qmk_utils\avr8-gnu-toolchain\avr\include\avr\pgmspace.h ****     uint16_t __addr16 = (uint16_t)(addr) + __AVR_TINY_PM_BASE_ADDRESS__; \
 526:d:\program files\msys2\home\bnguy\qmk_utils\avr8-gnu-toolchain\avr\include\avr\pgmspace.h ****     uint32_t __result;                      \
 527:d:\program files\msys2\home\bnguy\qmk_utils\avr8-gnu-toolchain\avr\include\avr\pgmspace.h ****     __asm__                                 \
 528:d:\program files\msys2\home\bnguy\qmk_utils\avr8-gnu-toolchain\avr\include\avr\pgmspace.h ****     (                                       \
 529:d:\program files\msys2\home\bnguy\qmk_utils\avr8-gnu-toolchain\avr\include\avr\pgmspace.h ****         "ld %A0, z+"    "\n\t"              \
 530:d:\program files\msys2\home\bnguy\qmk_utils\avr8-gnu-toolchain\avr\include\avr\pgmspace.h ****         "ld %B0, z+"    "\n\t"              \
 531:d:\program files\msys2\home\bnguy\qmk_utils\avr8-gnu-toolchain\avr\include\avr\pgmspace.h ****         "ld %C0, z+"    "\n\t"              \
 532:d:\program files\msys2\home\bnguy\qmk_utils\avr8-gnu-toolchain\avr\include\avr\pgmspace.h ****         "ld %D0, z"     "\n\t"              \
 533:d:\program files\msys2\home\bnguy\qmk_utils\avr8-gnu-toolchain\avr\include\avr\pgmspace.h ****         : "=r" (__result), "=z" (__addr16)  \
 534:d:\program files\msys2\home\bnguy\qmk_utils\avr8-gnu-toolchain\avr\include\avr\pgmspace.h ****         : "1" (__addr16)                    \
 535:d:\program files\msys2\home\bnguy\qmk_utils\avr8-gnu-toolchain\avr\include\avr\pgmspace.h ****     );                                      \
 536:d:\program files\msys2\home\bnguy\qmk_utils\avr8-gnu-toolchain\avr\include\avr\pgmspace.h ****     __result;                               \
 537:d:\program files\msys2\home\bnguy\qmk_utils\avr8-gnu-toolchain\avr\include\avr\pgmspace.h **** }))
 538:d:\program files\msys2\home\bnguy\qmk_utils\avr8-gnu-toolchain\avr\include\avr\pgmspace.h **** 
 539:d:\program files\msys2\home\bnguy\qmk_utils\avr8-gnu-toolchain\avr\include\avr\pgmspace.h **** #define __LPM_dword_enhanced__(addr)        \
 540:d:\program files\msys2\home\bnguy\qmk_utils\avr8-gnu-toolchain\avr\include\avr\pgmspace.h **** (__extension__({                            \
 541:d:\program files\msys2\home\bnguy\qmk_utils\avr8-gnu-toolchain\avr\include\avr\pgmspace.h ****     uint16_t __addr16 = (uint16_t)(addr);   \
 542:d:\program files\msys2\home\bnguy\qmk_utils\avr8-gnu-toolchain\avr\include\avr\pgmspace.h ****     uint32_t __result;                      \
 543:d:\program files\msys2\home\bnguy\qmk_utils\avr8-gnu-toolchain\avr\include\avr\pgmspace.h ****     __asm__ __volatile__                    \
 544:d:\program files\msys2\home\bnguy\qmk_utils\avr8-gnu-toolchain\avr\include\avr\pgmspace.h ****     (                                       \
 545:d:\program files\msys2\home\bnguy\qmk_utils\avr8-gnu-toolchain\avr\include\avr\pgmspace.h ****         "lpm %A0, Z+"   "\n\t"              \
 546:d:\program files\msys2\home\bnguy\qmk_utils\avr8-gnu-toolchain\avr\include\avr\pgmspace.h ****         "lpm %B0, Z+"   "\n\t"              \
 547:d:\program files\msys2\home\bnguy\qmk_utils\avr8-gnu-toolchain\avr\include\avr\pgmspace.h ****         "lpm %C0, Z+"   "\n\t"              \
 548:d:\program files\msys2\home\bnguy\qmk_utils\avr8-gnu-toolchain\avr\include\avr\pgmspace.h ****         "lpm %D0, Z"    "\n\t"              \
 549:d:\program files\msys2\home\bnguy\qmk_utils\avr8-gnu-toolchain\avr\include\avr\pgmspace.h ****         : "=r" (__result), "=z" (__addr16)  \
 550:d:\program files\msys2\home\bnguy\qmk_utils\avr8-gnu-toolchain\avr\include\avr\pgmspace.h ****         : "1" (__addr16)                    \
 551:d:\program files\msys2\home\bnguy\qmk_utils\avr8-gnu-toolchain\avr\include\avr\pgmspace.h ****     );                                      \
 552:d:\program files\msys2\home\bnguy\qmk_utils\avr8-gnu-toolchain\avr\include\avr\pgmspace.h ****     __result;                               \
 553:d:\program files\msys2\home\bnguy\qmk_utils\avr8-gnu-toolchain\avr\include\avr\pgmspace.h **** }))
 554:d:\program files\msys2\home\bnguy\qmk_utils\avr8-gnu-toolchain\avr\include\avr\pgmspace.h **** 
 555:d:\program files\msys2\home\bnguy\qmk_utils\avr8-gnu-toolchain\avr\include\avr\pgmspace.h **** #define __LPM_float_classic__(addr)         \
 556:d:\program files\msys2\home\bnguy\qmk_utils\avr8-gnu-toolchain\avr\include\avr\pgmspace.h **** (__extension__({                            \
 557:d:\program files\msys2\home\bnguy\qmk_utils\avr8-gnu-toolchain\avr\include\avr\pgmspace.h ****     uint16_t __addr16 = (uint16_t)(addr);   \
 558:d:\program files\msys2\home\bnguy\qmk_utils\avr8-gnu-toolchain\avr\include\avr\pgmspace.h ****     float __result;                         \
 559:d:\program files\msys2\home\bnguy\qmk_utils\avr8-gnu-toolchain\avr\include\avr\pgmspace.h ****     __asm__ __volatile__                    \
 560:d:\program files\msys2\home\bnguy\qmk_utils\avr8-gnu-toolchain\avr\include\avr\pgmspace.h ****     (                                       \
 561:d:\program files\msys2\home\bnguy\qmk_utils\avr8-gnu-toolchain\avr\include\avr\pgmspace.h ****         "lpm"           "\n\t"              \
 562:d:\program files\msys2\home\bnguy\qmk_utils\avr8-gnu-toolchain\avr\include\avr\pgmspace.h ****         "mov %A0, r0"   "\n\t"              \
 563:d:\program files\msys2\home\bnguy\qmk_utils\avr8-gnu-toolchain\avr\include\avr\pgmspace.h ****         "adiw r30, 1"   "\n\t"              \
 564:d:\program files\msys2\home\bnguy\qmk_utils\avr8-gnu-toolchain\avr\include\avr\pgmspace.h ****         "lpm"           "\n\t"              \
 565:d:\program files\msys2\home\bnguy\qmk_utils\avr8-gnu-toolchain\avr\include\avr\pgmspace.h ****         "mov %B0, r0"   "\n\t"              \
 566:d:\program files\msys2\home\bnguy\qmk_utils\avr8-gnu-toolchain\avr\include\avr\pgmspace.h ****         "adiw r30, 1"   "\n\t"              \
 567:d:\program files\msys2\home\bnguy\qmk_utils\avr8-gnu-toolchain\avr\include\avr\pgmspace.h ****         "lpm"           "\n\t"              \
 568:d:\program files\msys2\home\bnguy\qmk_utils\avr8-gnu-toolchain\avr\include\avr\pgmspace.h ****         "mov %C0, r0"   "\n\t"              \
 569:d:\program files\msys2\home\bnguy\qmk_utils\avr8-gnu-toolchain\avr\include\avr\pgmspace.h ****         "adiw r30, 1"   "\n\t"              \
 570:d:\program files\msys2\home\bnguy\qmk_utils\avr8-gnu-toolchain\avr\include\avr\pgmspace.h ****         "lpm"           "\n\t"              \
 571:d:\program files\msys2\home\bnguy\qmk_utils\avr8-gnu-toolchain\avr\include\avr\pgmspace.h ****         "mov %D0, r0"   "\n\t"              \
 572:d:\program files\msys2\home\bnguy\qmk_utils\avr8-gnu-toolchain\avr\include\avr\pgmspace.h ****         : "=r" (__result), "=z" (__addr16)  \
 573:d:\program files\msys2\home\bnguy\qmk_utils\avr8-gnu-toolchain\avr\include\avr\pgmspace.h ****         : "1" (__addr16)                    \
 574:d:\program files\msys2\home\bnguy\qmk_utils\avr8-gnu-toolchain\avr\include\avr\pgmspace.h ****         : "r0"                              \
 575:d:\program files\msys2\home\bnguy\qmk_utils\avr8-gnu-toolchain\avr\include\avr\pgmspace.h ****     );                                      \
 576:d:\program files\msys2\home\bnguy\qmk_utils\avr8-gnu-toolchain\avr\include\avr\pgmspace.h ****     __result;                               \
 577:d:\program files\msys2\home\bnguy\qmk_utils\avr8-gnu-toolchain\avr\include\avr\pgmspace.h **** }))
 578:d:\program files\msys2\home\bnguy\qmk_utils\avr8-gnu-toolchain\avr\include\avr\pgmspace.h **** 
 579:d:\program files\msys2\home\bnguy\qmk_utils\avr8-gnu-toolchain\avr\include\avr\pgmspace.h **** #define __LPM_float_tiny__(addr)            \
 580:d:\program files\msys2\home\bnguy\qmk_utils\avr8-gnu-toolchain\avr\include\avr\pgmspace.h **** (__extension__({                            \
 581:d:\program files\msys2\home\bnguy\qmk_utils\avr8-gnu-toolchain\avr\include\avr\pgmspace.h ****     uint16_t __addr16 = (uint16_t)(addr) + __AVR_TINY_PM_BASE_ADDRESS__; \
 582:d:\program files\msys2\home\bnguy\qmk_utils\avr8-gnu-toolchain\avr\include\avr\pgmspace.h ****     float __result;                         \
 583:d:\program files\msys2\home\bnguy\qmk_utils\avr8-gnu-toolchain\avr\include\avr\pgmspace.h ****     __asm__                                 \
 584:d:\program files\msys2\home\bnguy\qmk_utils\avr8-gnu-toolchain\avr\include\avr\pgmspace.h ****     (                                       \
 585:d:\program files\msys2\home\bnguy\qmk_utils\avr8-gnu-toolchain\avr\include\avr\pgmspace.h ****         "ld %A0, z+"   "\n\t"               \
 586:d:\program files\msys2\home\bnguy\qmk_utils\avr8-gnu-toolchain\avr\include\avr\pgmspace.h ****         "ld %B0, z+"   "\n\t"               \
 587:d:\program files\msys2\home\bnguy\qmk_utils\avr8-gnu-toolchain\avr\include\avr\pgmspace.h ****         "ld %C0, z+"   "\n\t"               \
 588:d:\program files\msys2\home\bnguy\qmk_utils\avr8-gnu-toolchain\avr\include\avr\pgmspace.h ****         "ld %D0, z"    "\n\t"               \
 589:d:\program files\msys2\home\bnguy\qmk_utils\avr8-gnu-toolchain\avr\include\avr\pgmspace.h ****         : "=r" (__result), "=z" (__addr16)  \
 590:d:\program files\msys2\home\bnguy\qmk_utils\avr8-gnu-toolchain\avr\include\avr\pgmspace.h ****         : "1" (__addr16)                    \
 591:d:\program files\msys2\home\bnguy\qmk_utils\avr8-gnu-toolchain\avr\include\avr\pgmspace.h ****     );                                      \
 592:d:\program files\msys2\home\bnguy\qmk_utils\avr8-gnu-toolchain\avr\include\avr\pgmspace.h ****     __result;                               \
 593:d:\program files\msys2\home\bnguy\qmk_utils\avr8-gnu-toolchain\avr\include\avr\pgmspace.h **** }))
 594:d:\program files\msys2\home\bnguy\qmk_utils\avr8-gnu-toolchain\avr\include\avr\pgmspace.h **** 
 595:d:\program files\msys2\home\bnguy\qmk_utils\avr8-gnu-toolchain\avr\include\avr\pgmspace.h **** #define __LPM_float_enhanced__(addr)        \
 596:d:\program files\msys2\home\bnguy\qmk_utils\avr8-gnu-toolchain\avr\include\avr\pgmspace.h **** (__extension__({                            \
 597:d:\program files\msys2\home\bnguy\qmk_utils\avr8-gnu-toolchain\avr\include\avr\pgmspace.h ****     uint16_t __addr16 = (uint16_t)(addr);   \
 598:d:\program files\msys2\home\bnguy\qmk_utils\avr8-gnu-toolchain\avr\include\avr\pgmspace.h ****     float __result;                         \
 599:d:\program files\msys2\home\bnguy\qmk_utils\avr8-gnu-toolchain\avr\include\avr\pgmspace.h ****     __asm__ __volatile__                    \
 600:d:\program files\msys2\home\bnguy\qmk_utils\avr8-gnu-toolchain\avr\include\avr\pgmspace.h ****     (                                       \
 601:d:\program files\msys2\home\bnguy\qmk_utils\avr8-gnu-toolchain\avr\include\avr\pgmspace.h ****         "lpm %A0, Z+"   "\n\t"              \
 602:d:\program files\msys2\home\bnguy\qmk_utils\avr8-gnu-toolchain\avr\include\avr\pgmspace.h ****         "lpm %B0, Z+"   "\n\t"              \
 603:d:\program files\msys2\home\bnguy\qmk_utils\avr8-gnu-toolchain\avr\include\avr\pgmspace.h ****         "lpm %C0, Z+"   "\n\t"              \
 604:d:\program files\msys2\home\bnguy\qmk_utils\avr8-gnu-toolchain\avr\include\avr\pgmspace.h ****         "lpm %D0, Z"    "\n\t"              \
 605:d:\program files\msys2\home\bnguy\qmk_utils\avr8-gnu-toolchain\avr\include\avr\pgmspace.h ****         : "=r" (__result), "=z" (__addr16)  \
 606:d:\program files\msys2\home\bnguy\qmk_utils\avr8-gnu-toolchain\avr\include\avr\pgmspace.h ****         : "1" (__addr16)                    \
 607:d:\program files\msys2\home\bnguy\qmk_utils\avr8-gnu-toolchain\avr\include\avr\pgmspace.h ****     );                                      \
 608:d:\program files\msys2\home\bnguy\qmk_utils\avr8-gnu-toolchain\avr\include\avr\pgmspace.h ****     __result;                               \
 609:d:\program files\msys2\home\bnguy\qmk_utils\avr8-gnu-toolchain\avr\include\avr\pgmspace.h **** }))
 610:d:\program files\msys2\home\bnguy\qmk_utils\avr8-gnu-toolchain\avr\include\avr\pgmspace.h **** 
 611:d:\program files\msys2\home\bnguy\qmk_utils\avr8-gnu-toolchain\avr\include\avr\pgmspace.h **** #if defined (__AVR_HAVE_LPMX__)
 612:d:\program files\msys2\home\bnguy\qmk_utils\avr8-gnu-toolchain\avr\include\avr\pgmspace.h **** #define __LPM(addr)         __LPM_enhanced__(addr)
 613:d:\program files\msys2\home\bnguy\qmk_utils\avr8-gnu-toolchain\avr\include\avr\pgmspace.h **** #define __LPM_word(addr)    __LPM_word_enhanced__(addr)
 614:d:\program files\msys2\home\bnguy\qmk_utils\avr8-gnu-toolchain\avr\include\avr\pgmspace.h **** #define __LPM_dword(addr)   __LPM_dword_enhanced__(addr)
 615:d:\program files\msys2\home\bnguy\qmk_utils\avr8-gnu-toolchain\avr\include\avr\pgmspace.h **** #define __LPM_float(addr)   __LPM_float_enhanced__(addr)
 616:d:\program files\msys2\home\bnguy\qmk_utils\avr8-gnu-toolchain\avr\include\avr\pgmspace.h **** /*
 617:d:\program files\msys2\home\bnguy\qmk_utils\avr8-gnu-toolchain\avr\include\avr\pgmspace.h **** Macro to read data from program memory for avr tiny parts(tiny 4/5/9/10/20/40).
 618:d:\program files\msys2\home\bnguy\qmk_utils\avr8-gnu-toolchain\avr\include\avr\pgmspace.h **** why:
 619:d:\program files\msys2\home\bnguy\qmk_utils\avr8-gnu-toolchain\avr\include\avr\pgmspace.h **** - LPM instruction is not available in AVR_TINY instruction set.
 620:d:\program files\msys2\home\bnguy\qmk_utils\avr8-gnu-toolchain\avr\include\avr\pgmspace.h **** - Programs are executed starting from address 0x0000 in program memory.
 621:d:\program files\msys2\home\bnguy\qmk_utils\avr8-gnu-toolchain\avr\include\avr\pgmspace.h **** But it must be addressed starting from 0x4000 when accessed via data memory.
 622:d:\program files\msys2\home\bnguy\qmk_utils\avr8-gnu-toolchain\avr\include\avr\pgmspace.h **** Reference: TINY device (ATTiny 4,5,9,10,20 and 40) datasheets
 623:d:\program files\msys2\home\bnguy\qmk_utils\avr8-gnu-toolchain\avr\include\avr\pgmspace.h **** Bug: avrtc-536
 624:d:\program files\msys2\home\bnguy\qmk_utils\avr8-gnu-toolchain\avr\include\avr\pgmspace.h **** */
 625:d:\program files\msys2\home\bnguy\qmk_utils\avr8-gnu-toolchain\avr\include\avr\pgmspace.h **** #elif defined (__AVR_TINY__)
 626:d:\program files\msys2\home\bnguy\qmk_utils\avr8-gnu-toolchain\avr\include\avr\pgmspace.h **** #define __LPM(addr)         __LPM_tiny__(addr)
 627:d:\program files\msys2\home\bnguy\qmk_utils\avr8-gnu-toolchain\avr\include\avr\pgmspace.h **** #define __LPM_word(addr)    __LPM_word_tiny__(addr)
 628:d:\program files\msys2\home\bnguy\qmk_utils\avr8-gnu-toolchain\avr\include\avr\pgmspace.h **** #define __LPM_dword(addr)   __LPM_dword_tiny__(addr)
 629:d:\program files\msys2\home\bnguy\qmk_utils\avr8-gnu-toolchain\avr\include\avr\pgmspace.h **** #define __LPM_float(addr)   __LPM_float_tiny__(addr)
 630:d:\program files\msys2\home\bnguy\qmk_utils\avr8-gnu-toolchain\avr\include\avr\pgmspace.h **** #else
 631:d:\program files\msys2\home\bnguy\qmk_utils\avr8-gnu-toolchain\avr\include\avr\pgmspace.h **** #define __LPM(addr)         __LPM_classic__(addr)
 632:d:\program files\msys2\home\bnguy\qmk_utils\avr8-gnu-toolchain\avr\include\avr\pgmspace.h **** #define __LPM_word(addr)    __LPM_word_classic__(addr)
 633:d:\program files\msys2\home\bnguy\qmk_utils\avr8-gnu-toolchain\avr\include\avr\pgmspace.h **** #define __LPM_dword(addr)   __LPM_dword_classic__(addr)
 634:d:\program files\msys2\home\bnguy\qmk_utils\avr8-gnu-toolchain\avr\include\avr\pgmspace.h **** #define __LPM_float(addr)   __LPM_float_classic__(addr)
 635:d:\program files\msys2\home\bnguy\qmk_utils\avr8-gnu-toolchain\avr\include\avr\pgmspace.h **** #endif
 636:d:\program files\msys2\home\bnguy\qmk_utils\avr8-gnu-toolchain\avr\include\avr\pgmspace.h **** 
 637:d:\program files\msys2\home\bnguy\qmk_utils\avr8-gnu-toolchain\avr\include\avr\pgmspace.h **** #endif  /* !__DOXYGEN__ */
 638:d:\program files\msys2\home\bnguy\qmk_utils\avr8-gnu-toolchain\avr\include\avr\pgmspace.h **** 
 639:d:\program files\msys2\home\bnguy\qmk_utils\avr8-gnu-toolchain\avr\include\avr\pgmspace.h **** /** \ingroup avr_pgmspace
 640:d:\program files\msys2\home\bnguy\qmk_utils\avr8-gnu-toolchain\avr\include\avr\pgmspace.h ****     \def pgm_read_byte_near(address_short)
 641:d:\program files\msys2\home\bnguy\qmk_utils\avr8-gnu-toolchain\avr\include\avr\pgmspace.h ****     Read a byte from the program space with a 16-bit (near) address. 
 642:d:\program files\msys2\home\bnguy\qmk_utils\avr8-gnu-toolchain\avr\include\avr\pgmspace.h ****     \note The address is a byte address.
 643:d:\program files\msys2\home\bnguy\qmk_utils\avr8-gnu-toolchain\avr\include\avr\pgmspace.h ****     The address is in the program space. */
 644:d:\program files\msys2\home\bnguy\qmk_utils\avr8-gnu-toolchain\avr\include\avr\pgmspace.h **** 
 645:d:\program files\msys2\home\bnguy\qmk_utils\avr8-gnu-toolchain\avr\include\avr\pgmspace.h **** #define pgm_read_byte_near(address_short) __LPM((uint16_t)(address_short))
 646:d:\program files\msys2\home\bnguy\qmk_utils\avr8-gnu-toolchain\avr\include\avr\pgmspace.h **** 
 647:d:\program files\msys2\home\bnguy\qmk_utils\avr8-gnu-toolchain\avr\include\avr\pgmspace.h **** /** \ingroup avr_pgmspace
 648:d:\program files\msys2\home\bnguy\qmk_utils\avr8-gnu-toolchain\avr\include\avr\pgmspace.h ****     \def pgm_read_word_near(address_short)
 649:d:\program files\msys2\home\bnguy\qmk_utils\avr8-gnu-toolchain\avr\include\avr\pgmspace.h ****     Read a word from the program space with a 16-bit (near) address. 
 650:d:\program files\msys2\home\bnguy\qmk_utils\avr8-gnu-toolchain\avr\include\avr\pgmspace.h ****     \note The address is a byte address. 
 651:d:\program files\msys2\home\bnguy\qmk_utils\avr8-gnu-toolchain\avr\include\avr\pgmspace.h ****     The address is in the program space. */
 652:d:\program files\msys2\home\bnguy\qmk_utils\avr8-gnu-toolchain\avr\include\avr\pgmspace.h **** 
 653:d:\program files\msys2\home\bnguy\qmk_utils\avr8-gnu-toolchain\avr\include\avr\pgmspace.h **** #define pgm_read_word_near(address_short) __LPM_word((uint16_t)(address_short))
 654:d:\program files\msys2\home\bnguy\qmk_utils\avr8-gnu-toolchain\avr\include\avr\pgmspace.h **** 
 655:d:\program files\msys2\home\bnguy\qmk_utils\avr8-gnu-toolchain\avr\include\avr\pgmspace.h **** /** \ingroup avr_pgmspace
 656:d:\program files\msys2\home\bnguy\qmk_utils\avr8-gnu-toolchain\avr\include\avr\pgmspace.h ****     \def pgm_read_dword_near(address_short)
 657:d:\program files\msys2\home\bnguy\qmk_utils\avr8-gnu-toolchain\avr\include\avr\pgmspace.h ****     Read a double word from the program space with a 16-bit (near) address. 
 658:d:\program files\msys2\home\bnguy\qmk_utils\avr8-gnu-toolchain\avr\include\avr\pgmspace.h ****     \note The address is a byte address. 
 659:d:\program files\msys2\home\bnguy\qmk_utils\avr8-gnu-toolchain\avr\include\avr\pgmspace.h ****     The address is in the program space. */
 660:d:\program files\msys2\home\bnguy\qmk_utils\avr8-gnu-toolchain\avr\include\avr\pgmspace.h **** 
 661:d:\program files\msys2\home\bnguy\qmk_utils\avr8-gnu-toolchain\avr\include\avr\pgmspace.h **** #define pgm_read_dword_near(address_short) \
 662:d:\program files\msys2\home\bnguy\qmk_utils\avr8-gnu-toolchain\avr\include\avr\pgmspace.h ****     __LPM_dword((uint16_t)(address_short))
 663:d:\program files\msys2\home\bnguy\qmk_utils\avr8-gnu-toolchain\avr\include\avr\pgmspace.h **** 
 664:d:\program files\msys2\home\bnguy\qmk_utils\avr8-gnu-toolchain\avr\include\avr\pgmspace.h **** /** \ingroup avr_pgmspace
 665:d:\program files\msys2\home\bnguy\qmk_utils\avr8-gnu-toolchain\avr\include\avr\pgmspace.h ****     \def pgm_read_float_near(address_short)
 666:d:\program files\msys2\home\bnguy\qmk_utils\avr8-gnu-toolchain\avr\include\avr\pgmspace.h ****     Read a float from the program space with a 16-bit (near) address. 
 667:d:\program files\msys2\home\bnguy\qmk_utils\avr8-gnu-toolchain\avr\include\avr\pgmspace.h ****     \note The address is a byte address. 
 668:d:\program files\msys2\home\bnguy\qmk_utils\avr8-gnu-toolchain\avr\include\avr\pgmspace.h ****     The address is in the program space. */
 669:d:\program files\msys2\home\bnguy\qmk_utils\avr8-gnu-toolchain\avr\include\avr\pgmspace.h **** 
 670:d:\program files\msys2\home\bnguy\qmk_utils\avr8-gnu-toolchain\avr\include\avr\pgmspace.h **** #define pgm_read_float_near(address_short) \
 671:d:\program files\msys2\home\bnguy\qmk_utils\avr8-gnu-toolchain\avr\include\avr\pgmspace.h ****     __LPM_float((uint16_t)(address_short))
 672:d:\program files\msys2\home\bnguy\qmk_utils\avr8-gnu-toolchain\avr\include\avr\pgmspace.h **** 
 673:d:\program files\msys2\home\bnguy\qmk_utils\avr8-gnu-toolchain\avr\include\avr\pgmspace.h **** /** \ingroup avr_pgmspace
 674:d:\program files\msys2\home\bnguy\qmk_utils\avr8-gnu-toolchain\avr\include\avr\pgmspace.h ****     \def pgm_read_ptr_near(address_short)
 675:d:\program files\msys2\home\bnguy\qmk_utils\avr8-gnu-toolchain\avr\include\avr\pgmspace.h ****     Read a pointer from the program space with a 16-bit (near) address. 
 676:d:\program files\msys2\home\bnguy\qmk_utils\avr8-gnu-toolchain\avr\include\avr\pgmspace.h ****     \note The address is a byte address. 
 677:d:\program files\msys2\home\bnguy\qmk_utils\avr8-gnu-toolchain\avr\include\avr\pgmspace.h ****     The address is in the program space. */
 678:d:\program files\msys2\home\bnguy\qmk_utils\avr8-gnu-toolchain\avr\include\avr\pgmspace.h **** 
 679:d:\program files\msys2\home\bnguy\qmk_utils\avr8-gnu-toolchain\avr\include\avr\pgmspace.h **** #define pgm_read_ptr_near(address_short) \
 680:d:\program files\msys2\home\bnguy\qmk_utils\avr8-gnu-toolchain\avr\include\avr\pgmspace.h ****     (void*)__LPM_word((uint16_t)(address_short))
 681:d:\program files\msys2\home\bnguy\qmk_utils\avr8-gnu-toolchain\avr\include\avr\pgmspace.h **** 
 682:d:\program files\msys2\home\bnguy\qmk_utils\avr8-gnu-toolchain\avr\include\avr\pgmspace.h **** #if defined(RAMPZ) || defined(__DOXYGEN__)
 683:d:\program files\msys2\home\bnguy\qmk_utils\avr8-gnu-toolchain\avr\include\avr\pgmspace.h **** 
 684:d:\program files\msys2\home\bnguy\qmk_utils\avr8-gnu-toolchain\avr\include\avr\pgmspace.h **** /* Only for devices with more than 64K of program memory.
 685:d:\program files\msys2\home\bnguy\qmk_utils\avr8-gnu-toolchain\avr\include\avr\pgmspace.h ****    RAMPZ must be defined (see iom103.h, iom128.h).
 686:d:\program files\msys2\home\bnguy\qmk_utils\avr8-gnu-toolchain\avr\include\avr\pgmspace.h **** */
 687:d:\program files\msys2\home\bnguy\qmk_utils\avr8-gnu-toolchain\avr\include\avr\pgmspace.h **** 
 688:d:\program files\msys2\home\bnguy\qmk_utils\avr8-gnu-toolchain\avr\include\avr\pgmspace.h **** /* The classic functions are needed for ATmega103. */
 689:d:\program files\msys2\home\bnguy\qmk_utils\avr8-gnu-toolchain\avr\include\avr\pgmspace.h **** #ifndef __DOXYGEN__		/* These are internal macros, avoid "is
 690:d:\program files\msys2\home\bnguy\qmk_utils\avr8-gnu-toolchain\avr\include\avr\pgmspace.h **** 				   not documented" warnings. */
 691:d:\program files\msys2\home\bnguy\qmk_utils\avr8-gnu-toolchain\avr\include\avr\pgmspace.h **** #define __ELPM_classic__(addr)      \
 692:d:\program files\msys2\home\bnguy\qmk_utils\avr8-gnu-toolchain\avr\include\avr\pgmspace.h **** (__extension__({                    \
 693:d:\program files\msys2\home\bnguy\qmk_utils\avr8-gnu-toolchain\avr\include\avr\pgmspace.h ****     uint32_t __addr32 = (uint32_t)(addr); \
 694:d:\program files\msys2\home\bnguy\qmk_utils\avr8-gnu-toolchain\avr\include\avr\pgmspace.h ****     uint8_t __result;               \
 695:d:\program files\msys2\home\bnguy\qmk_utils\avr8-gnu-toolchain\avr\include\avr\pgmspace.h ****     __asm__ __volatile__            \
 696:d:\program files\msys2\home\bnguy\qmk_utils\avr8-gnu-toolchain\avr\include\avr\pgmspace.h ****     (                               \
 697:d:\program files\msys2\home\bnguy\qmk_utils\avr8-gnu-toolchain\avr\include\avr\pgmspace.h ****         "out %2, %C1" "\n\t"        \
 698:d:\program files\msys2\home\bnguy\qmk_utils\avr8-gnu-toolchain\avr\include\avr\pgmspace.h ****         "mov r31, %B1" "\n\t"       \
 699:d:\program files\msys2\home\bnguy\qmk_utils\avr8-gnu-toolchain\avr\include\avr\pgmspace.h ****         "mov r30, %A1" "\n\t"       \
 700:d:\program files\msys2\home\bnguy\qmk_utils\avr8-gnu-toolchain\avr\include\avr\pgmspace.h ****         "elpm" "\n\t"               \
 701:d:\program files\msys2\home\bnguy\qmk_utils\avr8-gnu-toolchain\avr\include\avr\pgmspace.h ****         "mov %0, r0" "\n\t"         \
 702:d:\program files\msys2\home\bnguy\qmk_utils\avr8-gnu-toolchain\avr\include\avr\pgmspace.h ****         : "=r" (__result)           \
 703:d:\program files\msys2\home\bnguy\qmk_utils\avr8-gnu-toolchain\avr\include\avr\pgmspace.h ****         : "r" (__addr32),           \
 704:d:\program files\msys2\home\bnguy\qmk_utils\avr8-gnu-toolchain\avr\include\avr\pgmspace.h ****           "I" (_SFR_IO_ADDR(RAMPZ)) \
 705:d:\program files\msys2\home\bnguy\qmk_utils\avr8-gnu-toolchain\avr\include\avr\pgmspace.h ****         : "r0", "r30", "r31"        \
 706:d:\program files\msys2\home\bnguy\qmk_utils\avr8-gnu-toolchain\avr\include\avr\pgmspace.h ****     );                              \
 707:d:\program files\msys2\home\bnguy\qmk_utils\avr8-gnu-toolchain\avr\include\avr\pgmspace.h ****     __result;                       \
 708:d:\program files\msys2\home\bnguy\qmk_utils\avr8-gnu-toolchain\avr\include\avr\pgmspace.h **** }))
 709:d:\program files\msys2\home\bnguy\qmk_utils\avr8-gnu-toolchain\avr\include\avr\pgmspace.h **** 
 710:d:\program files\msys2\home\bnguy\qmk_utils\avr8-gnu-toolchain\avr\include\avr\pgmspace.h **** #define __ELPM_enhanced__(addr)     \
 711:d:\program files\msys2\home\bnguy\qmk_utils\avr8-gnu-toolchain\avr\include\avr\pgmspace.h **** (__extension__({                    \
 712:d:\program files\msys2\home\bnguy\qmk_utils\avr8-gnu-toolchain\avr\include\avr\pgmspace.h ****     uint32_t __addr32 = (uint32_t)(addr); \
 713:d:\program files\msys2\home\bnguy\qmk_utils\avr8-gnu-toolchain\avr\include\avr\pgmspace.h ****     uint8_t __result;               \
 714:d:\program files\msys2\home\bnguy\qmk_utils\avr8-gnu-toolchain\avr\include\avr\pgmspace.h ****     __asm__ __volatile__            \
 715:d:\program files\msys2\home\bnguy\qmk_utils\avr8-gnu-toolchain\avr\include\avr\pgmspace.h ****     (                               \
 716:d:\program files\msys2\home\bnguy\qmk_utils\avr8-gnu-toolchain\avr\include\avr\pgmspace.h ****         "out %2, %C1" "\n\t"        \
 717:d:\program files\msys2\home\bnguy\qmk_utils\avr8-gnu-toolchain\avr\include\avr\pgmspace.h ****         "movw r30, %1" "\n\t"       \
 718:d:\program files\msys2\home\bnguy\qmk_utils\avr8-gnu-toolchain\avr\include\avr\pgmspace.h ****         "elpm %0, Z+" "\n\t"        \
 719:d:\program files\msys2\home\bnguy\qmk_utils\avr8-gnu-toolchain\avr\include\avr\pgmspace.h ****         : "=r" (__result)           \
 720:d:\program files\msys2\home\bnguy\qmk_utils\avr8-gnu-toolchain\avr\include\avr\pgmspace.h ****         : "r" (__addr32),           \
 721:d:\program files\msys2\home\bnguy\qmk_utils\avr8-gnu-toolchain\avr\include\avr\pgmspace.h ****           "I" (_SFR_IO_ADDR(RAMPZ)) \
 722:d:\program files\msys2\home\bnguy\qmk_utils\avr8-gnu-toolchain\avr\include\avr\pgmspace.h ****         : "r30", "r31"              \
 723:d:\program files\msys2\home\bnguy\qmk_utils\avr8-gnu-toolchain\avr\include\avr\pgmspace.h ****     );                              \
 724:d:\program files\msys2\home\bnguy\qmk_utils\avr8-gnu-toolchain\avr\include\avr\pgmspace.h ****     __result;                       \
 725:d:\program files\msys2\home\bnguy\qmk_utils\avr8-gnu-toolchain\avr\include\avr\pgmspace.h **** }))
 726:d:\program files\msys2\home\bnguy\qmk_utils\avr8-gnu-toolchain\avr\include\avr\pgmspace.h **** 
 727:d:\program files\msys2\home\bnguy\qmk_utils\avr8-gnu-toolchain\avr\include\avr\pgmspace.h **** #define __ELPM_xmega__(addr)        \
 728:d:\program files\msys2\home\bnguy\qmk_utils\avr8-gnu-toolchain\avr\include\avr\pgmspace.h **** (__extension__({                    \
 729:d:\program files\msys2\home\bnguy\qmk_utils\avr8-gnu-toolchain\avr\include\avr\pgmspace.h ****     uint32_t __addr32 = (uint32_t)(addr); \
 730:d:\program files\msys2\home\bnguy\qmk_utils\avr8-gnu-toolchain\avr\include\avr\pgmspace.h ****     uint8_t __result;               \
 731:d:\program files\msys2\home\bnguy\qmk_utils\avr8-gnu-toolchain\avr\include\avr\pgmspace.h ****     __asm__ __volatile__            \
 732:d:\program files\msys2\home\bnguy\qmk_utils\avr8-gnu-toolchain\avr\include\avr\pgmspace.h ****     (                               \
 733:d:\program files\msys2\home\bnguy\qmk_utils\avr8-gnu-toolchain\avr\include\avr\pgmspace.h ****         "in __tmp_reg__, %2" "\n\t" \
 734:d:\program files\msys2\home\bnguy\qmk_utils\avr8-gnu-toolchain\avr\include\avr\pgmspace.h ****         "out %2, %C1" "\n\t"        \
 735:d:\program files\msys2\home\bnguy\qmk_utils\avr8-gnu-toolchain\avr\include\avr\pgmspace.h ****         "movw r30, %1" "\n\t"       \
 736:d:\program files\msys2\home\bnguy\qmk_utils\avr8-gnu-toolchain\avr\include\avr\pgmspace.h ****         "elpm %0, Z+" "\n\t"        \
 737:d:\program files\msys2\home\bnguy\qmk_utils\avr8-gnu-toolchain\avr\include\avr\pgmspace.h ****         "out %2, __tmp_reg__"       \
 738:d:\program files\msys2\home\bnguy\qmk_utils\avr8-gnu-toolchain\avr\include\avr\pgmspace.h ****         : "=r" (__result)           \
 739:d:\program files\msys2\home\bnguy\qmk_utils\avr8-gnu-toolchain\avr\include\avr\pgmspace.h ****         : "r" (__addr32),           \
 740:d:\program files\msys2\home\bnguy\qmk_utils\avr8-gnu-toolchain\avr\include\avr\pgmspace.h ****           "I" (_SFR_IO_ADDR(RAMPZ)) \
 741:d:\program files\msys2\home\bnguy\qmk_utils\avr8-gnu-toolchain\avr\include\avr\pgmspace.h ****         : "r30", "r31"              \
 742:d:\program files\msys2\home\bnguy\qmk_utils\avr8-gnu-toolchain\avr\include\avr\pgmspace.h ****     );                              \
 743:d:\program files\msys2\home\bnguy\qmk_utils\avr8-gnu-toolchain\avr\include\avr\pgmspace.h ****     __result;                       \
 744:d:\program files\msys2\home\bnguy\qmk_utils\avr8-gnu-toolchain\avr\include\avr\pgmspace.h **** }))
 745:d:\program files\msys2\home\bnguy\qmk_utils\avr8-gnu-toolchain\avr\include\avr\pgmspace.h **** 
 746:d:\program files\msys2\home\bnguy\qmk_utils\avr8-gnu-toolchain\avr\include\avr\pgmspace.h **** #define __ELPM_word_classic__(addr)     \
 747:d:\program files\msys2\home\bnguy\qmk_utils\avr8-gnu-toolchain\avr\include\avr\pgmspace.h **** (__extension__({                        \
 748:d:\program files\msys2\home\bnguy\qmk_utils\avr8-gnu-toolchain\avr\include\avr\pgmspace.h ****     uint32_t __addr32 = (uint32_t)(addr); \
 749:d:\program files\msys2\home\bnguy\qmk_utils\avr8-gnu-toolchain\avr\include\avr\pgmspace.h ****     uint16_t __result;                  \
 750:d:\program files\msys2\home\bnguy\qmk_utils\avr8-gnu-toolchain\avr\include\avr\pgmspace.h ****     __asm__ __volatile__                \
 751:d:\program files\msys2\home\bnguy\qmk_utils\avr8-gnu-toolchain\avr\include\avr\pgmspace.h ****     (                                   \
 752:d:\program files\msys2\home\bnguy\qmk_utils\avr8-gnu-toolchain\avr\include\avr\pgmspace.h ****         "out %2, %C1"   "\n\t"          \
 753:d:\program files\msys2\home\bnguy\qmk_utils\avr8-gnu-toolchain\avr\include\avr\pgmspace.h ****         "mov r31, %B1"  "\n\t"          \
 754:d:\program files\msys2\home\bnguy\qmk_utils\avr8-gnu-toolchain\avr\include\avr\pgmspace.h ****         "mov r30, %A1"  "\n\t"          \
 755:d:\program files\msys2\home\bnguy\qmk_utils\avr8-gnu-toolchain\avr\include\avr\pgmspace.h ****         "elpm"          "\n\t"          \
 756:d:\program files\msys2\home\bnguy\qmk_utils\avr8-gnu-toolchain\avr\include\avr\pgmspace.h ****         "mov %A0, r0"   "\n\t"          \
 757:d:\program files\msys2\home\bnguy\qmk_utils\avr8-gnu-toolchain\avr\include\avr\pgmspace.h ****         "in r0, %2"     "\n\t"          \
 758:d:\program files\msys2\home\bnguy\qmk_utils\avr8-gnu-toolchain\avr\include\avr\pgmspace.h ****         "adiw r30, 1"   "\n\t"          \
 759:d:\program files\msys2\home\bnguy\qmk_utils\avr8-gnu-toolchain\avr\include\avr\pgmspace.h ****         "adc r0, __zero_reg__" "\n\t"   \
 760:d:\program files\msys2\home\bnguy\qmk_utils\avr8-gnu-toolchain\avr\include\avr\pgmspace.h ****         "out %2, r0"    "\n\t"          \
 761:d:\program files\msys2\home\bnguy\qmk_utils\avr8-gnu-toolchain\avr\include\avr\pgmspace.h ****         "elpm"          "\n\t"          \
 762:d:\program files\msys2\home\bnguy\qmk_utils\avr8-gnu-toolchain\avr\include\avr\pgmspace.h ****         "mov %B0, r0"   "\n\t"          \
 763:d:\program files\msys2\home\bnguy\qmk_utils\avr8-gnu-toolchain\avr\include\avr\pgmspace.h ****         : "=r" (__result)               \
 764:d:\program files\msys2\home\bnguy\qmk_utils\avr8-gnu-toolchain\avr\include\avr\pgmspace.h ****         : "r" (__addr32),               \
 765:d:\program files\msys2\home\bnguy\qmk_utils\avr8-gnu-toolchain\avr\include\avr\pgmspace.h ****           "I" (_SFR_IO_ADDR(RAMPZ))     \
 766:d:\program files\msys2\home\bnguy\qmk_utils\avr8-gnu-toolchain\avr\include\avr\pgmspace.h ****         : "r0", "r30", "r31"            \
 767:d:\program files\msys2\home\bnguy\qmk_utils\avr8-gnu-toolchain\avr\include\avr\pgmspace.h ****     );                                  \
 768:d:\program files\msys2\home\bnguy\qmk_utils\avr8-gnu-toolchain\avr\include\avr\pgmspace.h ****     __result;                           \
 769:d:\program files\msys2\home\bnguy\qmk_utils\avr8-gnu-toolchain\avr\include\avr\pgmspace.h **** }))
 770:d:\program files\msys2\home\bnguy\qmk_utils\avr8-gnu-toolchain\avr\include\avr\pgmspace.h **** 
 771:d:\program files\msys2\home\bnguy\qmk_utils\avr8-gnu-toolchain\avr\include\avr\pgmspace.h **** #define __ELPM_word_enhanced__(addr)    \
 772:d:\program files\msys2\home\bnguy\qmk_utils\avr8-gnu-toolchain\avr\include\avr\pgmspace.h **** (__extension__({                        \
 773:d:\program files\msys2\home\bnguy\qmk_utils\avr8-gnu-toolchain\avr\include\avr\pgmspace.h ****     uint32_t __addr32 = (uint32_t)(addr); \
 774:d:\program files\msys2\home\bnguy\qmk_utils\avr8-gnu-toolchain\avr\include\avr\pgmspace.h ****     uint16_t __result;                  \
 775:d:\program files\msys2\home\bnguy\qmk_utils\avr8-gnu-toolchain\avr\include\avr\pgmspace.h ****     __asm__ __volatile__                \
 776:d:\program files\msys2\home\bnguy\qmk_utils\avr8-gnu-toolchain\avr\include\avr\pgmspace.h ****     (                                   \
 777:d:\program files\msys2\home\bnguy\qmk_utils\avr8-gnu-toolchain\avr\include\avr\pgmspace.h ****         "out %2, %C1"   "\n\t"          \
 778:d:\program files\msys2\home\bnguy\qmk_utils\avr8-gnu-toolchain\avr\include\avr\pgmspace.h ****         "movw r30, %1"  "\n\t"          \
 779:d:\program files\msys2\home\bnguy\qmk_utils\avr8-gnu-toolchain\avr\include\avr\pgmspace.h ****         "elpm %A0, Z+"  "\n\t"          \
 780:d:\program files\msys2\home\bnguy\qmk_utils\avr8-gnu-toolchain\avr\include\avr\pgmspace.h ****         "elpm %B0, Z"   "\n\t"          \
 781:d:\program files\msys2\home\bnguy\qmk_utils\avr8-gnu-toolchain\avr\include\avr\pgmspace.h ****         : "=r" (__result)               \
 782:d:\program files\msys2\home\bnguy\qmk_utils\avr8-gnu-toolchain\avr\include\avr\pgmspace.h ****         : "r" (__addr32),               \
 783:d:\program files\msys2\home\bnguy\qmk_utils\avr8-gnu-toolchain\avr\include\avr\pgmspace.h ****           "I" (_SFR_IO_ADDR(RAMPZ))     \
 784:d:\program files\msys2\home\bnguy\qmk_utils\avr8-gnu-toolchain\avr\include\avr\pgmspace.h ****         : "r30", "r31"                  \
 785:d:\program files\msys2\home\bnguy\qmk_utils\avr8-gnu-toolchain\avr\include\avr\pgmspace.h ****     );                                  \
 786:d:\program files\msys2\home\bnguy\qmk_utils\avr8-gnu-toolchain\avr\include\avr\pgmspace.h ****     __result;                           \
 787:d:\program files\msys2\home\bnguy\qmk_utils\avr8-gnu-toolchain\avr\include\avr\pgmspace.h **** }))
 788:d:\program files\msys2\home\bnguy\qmk_utils\avr8-gnu-toolchain\avr\include\avr\pgmspace.h **** 
 789:d:\program files\msys2\home\bnguy\qmk_utils\avr8-gnu-toolchain\avr\include\avr\pgmspace.h **** #define __ELPM_word_xmega__(addr)       \
 790:d:\program files\msys2\home\bnguy\qmk_utils\avr8-gnu-toolchain\avr\include\avr\pgmspace.h **** (__extension__({                        \
 791:d:\program files\msys2\home\bnguy\qmk_utils\avr8-gnu-toolchain\avr\include\avr\pgmspace.h ****     uint32_t __addr32 = (uint32_t)(addr); \
 792:d:\program files\msys2\home\bnguy\qmk_utils\avr8-gnu-toolchain\avr\include\avr\pgmspace.h ****     uint16_t __result;                  \
 793:d:\program files\msys2\home\bnguy\qmk_utils\avr8-gnu-toolchain\avr\include\avr\pgmspace.h ****     __asm__ __volatile__                \
 794:d:\program files\msys2\home\bnguy\qmk_utils\avr8-gnu-toolchain\avr\include\avr\pgmspace.h ****     (                                   \
 795:d:\program files\msys2\home\bnguy\qmk_utils\avr8-gnu-toolchain\avr\include\avr\pgmspace.h ****         "in __tmp_reg__, %2" "\n\t"     \
 796:d:\program files\msys2\home\bnguy\qmk_utils\avr8-gnu-toolchain\avr\include\avr\pgmspace.h ****         "out %2, %C1"   "\n\t"          \
 797:d:\program files\msys2\home\bnguy\qmk_utils\avr8-gnu-toolchain\avr\include\avr\pgmspace.h ****         "movw r30, %1"  "\n\t"          \
 798:d:\program files\msys2\home\bnguy\qmk_utils\avr8-gnu-toolchain\avr\include\avr\pgmspace.h ****         "elpm %A0, Z+"  "\n\t"          \
 799:d:\program files\msys2\home\bnguy\qmk_utils\avr8-gnu-toolchain\avr\include\avr\pgmspace.h ****         "elpm %B0, Z"   "\n\t"          \
 800:d:\program files\msys2\home\bnguy\qmk_utils\avr8-gnu-toolchain\avr\include\avr\pgmspace.h ****         "out %2, __tmp_reg__"           \
 801:d:\program files\msys2\home\bnguy\qmk_utils\avr8-gnu-toolchain\avr\include\avr\pgmspace.h ****         : "=r" (__result)               \
 802:d:\program files\msys2\home\bnguy\qmk_utils\avr8-gnu-toolchain\avr\include\avr\pgmspace.h ****         : "r" (__addr32),               \
 803:d:\program files\msys2\home\bnguy\qmk_utils\avr8-gnu-toolchain\avr\include\avr\pgmspace.h ****           "I" (_SFR_IO_ADDR(RAMPZ))     \
 804:d:\program files\msys2\home\bnguy\qmk_utils\avr8-gnu-toolchain\avr\include\avr\pgmspace.h ****         : "r30", "r31"                  \
 805:d:\program files\msys2\home\bnguy\qmk_utils\avr8-gnu-toolchain\avr\include\avr\pgmspace.h ****     );                                  \
 806:d:\program files\msys2\home\bnguy\qmk_utils\avr8-gnu-toolchain\avr\include\avr\pgmspace.h ****     __result;                           \
 807:d:\program files\msys2\home\bnguy\qmk_utils\avr8-gnu-toolchain\avr\include\avr\pgmspace.h **** }))
 808:d:\program files\msys2\home\bnguy\qmk_utils\avr8-gnu-toolchain\avr\include\avr\pgmspace.h **** 
 809:d:\program files\msys2\home\bnguy\qmk_utils\avr8-gnu-toolchain\avr\include\avr\pgmspace.h **** #define __ELPM_dword_classic__(addr)      \
 810:d:\program files\msys2\home\bnguy\qmk_utils\avr8-gnu-toolchain\avr\include\avr\pgmspace.h **** (__extension__({                          \
 811:d:\program files\msys2\home\bnguy\qmk_utils\avr8-gnu-toolchain\avr\include\avr\pgmspace.h ****     uint32_t __addr32 = (uint32_t)(addr); \
 812:d:\program files\msys2\home\bnguy\qmk_utils\avr8-gnu-toolchain\avr\include\avr\pgmspace.h ****     uint32_t __result;                    \
 813:d:\program files\msys2\home\bnguy\qmk_utils\avr8-gnu-toolchain\avr\include\avr\pgmspace.h ****     __asm__ __volatile__                  \
 814:d:\program files\msys2\home\bnguy\qmk_utils\avr8-gnu-toolchain\avr\include\avr\pgmspace.h ****     (                                     \
 815:d:\program files\msys2\home\bnguy\qmk_utils\avr8-gnu-toolchain\avr\include\avr\pgmspace.h ****         "out %2, %C1"          "\n\t"     \
 816:d:\program files\msys2\home\bnguy\qmk_utils\avr8-gnu-toolchain\avr\include\avr\pgmspace.h ****         "mov r31, %B1"         "\n\t"     \
 817:d:\program files\msys2\home\bnguy\qmk_utils\avr8-gnu-toolchain\avr\include\avr\pgmspace.h ****         "mov r30, %A1"         "\n\t"     \
 818:d:\program files\msys2\home\bnguy\qmk_utils\avr8-gnu-toolchain\avr\include\avr\pgmspace.h ****         "elpm"                 "\n\t"     \
 819:d:\program files\msys2\home\bnguy\qmk_utils\avr8-gnu-toolchain\avr\include\avr\pgmspace.h ****         "mov %A0, r0"          "\n\t"     \
 820:d:\program files\msys2\home\bnguy\qmk_utils\avr8-gnu-toolchain\avr\include\avr\pgmspace.h ****         "in r0, %2"            "\n\t"     \
 821:d:\program files\msys2\home\bnguy\qmk_utils\avr8-gnu-toolchain\avr\include\avr\pgmspace.h ****         "adiw r30, 1"          "\n\t"     \
 822:d:\program files\msys2\home\bnguy\qmk_utils\avr8-gnu-toolchain\avr\include\avr\pgmspace.h ****         "adc r0, __zero_reg__" "\n\t"     \
 823:d:\program files\msys2\home\bnguy\qmk_utils\avr8-gnu-toolchain\avr\include\avr\pgmspace.h ****         "out %2, r0"           "\n\t"     \
 824:d:\program files\msys2\home\bnguy\qmk_utils\avr8-gnu-toolchain\avr\include\avr\pgmspace.h ****         "elpm"                 "\n\t"     \
 825:d:\program files\msys2\home\bnguy\qmk_utils\avr8-gnu-toolchain\avr\include\avr\pgmspace.h ****         "mov %B0, r0"          "\n\t"     \
 826:d:\program files\msys2\home\bnguy\qmk_utils\avr8-gnu-toolchain\avr\include\avr\pgmspace.h ****         "in r0, %2"            "\n\t"     \
 827:d:\program files\msys2\home\bnguy\qmk_utils\avr8-gnu-toolchain\avr\include\avr\pgmspace.h ****         "adiw r30, 1"          "\n\t"     \
 828:d:\program files\msys2\home\bnguy\qmk_utils\avr8-gnu-toolchain\avr\include\avr\pgmspace.h ****         "adc r0, __zero_reg__" "\n\t"     \
 829:d:\program files\msys2\home\bnguy\qmk_utils\avr8-gnu-toolchain\avr\include\avr\pgmspace.h ****         "out %2, r0"           "\n\t"     \
 830:d:\program files\msys2\home\bnguy\qmk_utils\avr8-gnu-toolchain\avr\include\avr\pgmspace.h ****         "elpm"                 "\n\t"     \
 831:d:\program files\msys2\home\bnguy\qmk_utils\avr8-gnu-toolchain\avr\include\avr\pgmspace.h ****         "mov %C0, r0"          "\n\t"     \
 832:d:\program files\msys2\home\bnguy\qmk_utils\avr8-gnu-toolchain\avr\include\avr\pgmspace.h ****         "in r0, %2"            "\n\t"     \
 833:d:\program files\msys2\home\bnguy\qmk_utils\avr8-gnu-toolchain\avr\include\avr\pgmspace.h ****         "adiw r30, 1"          "\n\t"     \
 834:d:\program files\msys2\home\bnguy\qmk_utils\avr8-gnu-toolchain\avr\include\avr\pgmspace.h ****         "adc r0, __zero_reg__" "\n\t"     \
 835:d:\program files\msys2\home\bnguy\qmk_utils\avr8-gnu-toolchain\avr\include\avr\pgmspace.h ****         "out %2, r0"           "\n\t"     \
 836:d:\program files\msys2\home\bnguy\qmk_utils\avr8-gnu-toolchain\avr\include\avr\pgmspace.h ****         "elpm"                 "\n\t"     \
 837:d:\program files\msys2\home\bnguy\qmk_utils\avr8-gnu-toolchain\avr\include\avr\pgmspace.h ****         "mov %D0, r0"          "\n\t"     \
 838:d:\program files\msys2\home\bnguy\qmk_utils\avr8-gnu-toolchain\avr\include\avr\pgmspace.h ****         : "=r" (__result)                 \
 839:d:\program files\msys2\home\bnguy\qmk_utils\avr8-gnu-toolchain\avr\include\avr\pgmspace.h ****         : "r" (__addr32),                 \
 840:d:\program files\msys2\home\bnguy\qmk_utils\avr8-gnu-toolchain\avr\include\avr\pgmspace.h ****           "I" (_SFR_IO_ADDR(RAMPZ))       \
 841:d:\program files\msys2\home\bnguy\qmk_utils\avr8-gnu-toolchain\avr\include\avr\pgmspace.h ****         : "r0", "r30", "r31"              \
 842:d:\program files\msys2\home\bnguy\qmk_utils\avr8-gnu-toolchain\avr\include\avr\pgmspace.h ****     );                                    \
 843:d:\program files\msys2\home\bnguy\qmk_utils\avr8-gnu-toolchain\avr\include\avr\pgmspace.h ****     __result;                             \
 844:d:\program files\msys2\home\bnguy\qmk_utils\avr8-gnu-toolchain\avr\include\avr\pgmspace.h **** }))
 845:d:\program files\msys2\home\bnguy\qmk_utils\avr8-gnu-toolchain\avr\include\avr\pgmspace.h **** 
 846:d:\program files\msys2\home\bnguy\qmk_utils\avr8-gnu-toolchain\avr\include\avr\pgmspace.h **** #define __ELPM_dword_enhanced__(addr)     \
 847:d:\program files\msys2\home\bnguy\qmk_utils\avr8-gnu-toolchain\avr\include\avr\pgmspace.h **** (__extension__({                          \
 848:d:\program files\msys2\home\bnguy\qmk_utils\avr8-gnu-toolchain\avr\include\avr\pgmspace.h ****     uint32_t __addr32 = (uint32_t)(addr); \
 849:d:\program files\msys2\home\bnguy\qmk_utils\avr8-gnu-toolchain\avr\include\avr\pgmspace.h ****     uint32_t __result;                    \
 850:d:\program files\msys2\home\bnguy\qmk_utils\avr8-gnu-toolchain\avr\include\avr\pgmspace.h ****     __asm__ __volatile__                  \
 851:d:\program files\msys2\home\bnguy\qmk_utils\avr8-gnu-toolchain\avr\include\avr\pgmspace.h ****     (                                     \
 852:d:\program files\msys2\home\bnguy\qmk_utils\avr8-gnu-toolchain\avr\include\avr\pgmspace.h ****         "out %2, %C1"   "\n\t"            \
 853:d:\program files\msys2\home\bnguy\qmk_utils\avr8-gnu-toolchain\avr\include\avr\pgmspace.h ****         "movw r30, %1"  "\n\t"            \
 854:d:\program files\msys2\home\bnguy\qmk_utils\avr8-gnu-toolchain\avr\include\avr\pgmspace.h ****         "elpm %A0, Z+"  "\n\t"            \
 855:d:\program files\msys2\home\bnguy\qmk_utils\avr8-gnu-toolchain\avr\include\avr\pgmspace.h ****         "elpm %B0, Z+"  "\n\t"            \
 856:d:\program files\msys2\home\bnguy\qmk_utils\avr8-gnu-toolchain\avr\include\avr\pgmspace.h ****         "elpm %C0, Z+"  "\n\t"            \
 857:d:\program files\msys2\home\bnguy\qmk_utils\avr8-gnu-toolchain\avr\include\avr\pgmspace.h ****         "elpm %D0, Z"   "\n\t"            \
 858:d:\program files\msys2\home\bnguy\qmk_utils\avr8-gnu-toolchain\avr\include\avr\pgmspace.h ****         : "=r" (__result)                 \
 859:d:\program files\msys2\home\bnguy\qmk_utils\avr8-gnu-toolchain\avr\include\avr\pgmspace.h ****         : "r" (__addr32),                 \
 860:d:\program files\msys2\home\bnguy\qmk_utils\avr8-gnu-toolchain\avr\include\avr\pgmspace.h ****           "I" (_SFR_IO_ADDR(RAMPZ))       \
 861:d:\program files\msys2\home\bnguy\qmk_utils\avr8-gnu-toolchain\avr\include\avr\pgmspace.h ****         : "r30", "r31"                    \
 862:d:\program files\msys2\home\bnguy\qmk_utils\avr8-gnu-toolchain\avr\include\avr\pgmspace.h ****     );                                    \
 863:d:\program files\msys2\home\bnguy\qmk_utils\avr8-gnu-toolchain\avr\include\avr\pgmspace.h ****     __result;                             \
 864:d:\program files\msys2\home\bnguy\qmk_utils\avr8-gnu-toolchain\avr\include\avr\pgmspace.h **** }))
 865:d:\program files\msys2\home\bnguy\qmk_utils\avr8-gnu-toolchain\avr\include\avr\pgmspace.h **** 
 866:d:\program files\msys2\home\bnguy\qmk_utils\avr8-gnu-toolchain\avr\include\avr\pgmspace.h **** #define __ELPM_dword_xmega__(addr)        \
 867:d:\program files\msys2\home\bnguy\qmk_utils\avr8-gnu-toolchain\avr\include\avr\pgmspace.h **** (__extension__({                          \
 868:d:\program files\msys2\home\bnguy\qmk_utils\avr8-gnu-toolchain\avr\include\avr\pgmspace.h ****     uint32_t __addr32 = (uint32_t)(addr); \
 869:d:\program files\msys2\home\bnguy\qmk_utils\avr8-gnu-toolchain\avr\include\avr\pgmspace.h ****     uint32_t __result;                    \
 870:d:\program files\msys2\home\bnguy\qmk_utils\avr8-gnu-toolchain\avr\include\avr\pgmspace.h ****     __asm__ __volatile__                  \
 871:d:\program files\msys2\home\bnguy\qmk_utils\avr8-gnu-toolchain\avr\include\avr\pgmspace.h ****     (                                     \
 872:d:\program files\msys2\home\bnguy\qmk_utils\avr8-gnu-toolchain\avr\include\avr\pgmspace.h ****         "in __tmp_reg__, %2" "\n\t"       \
 873:d:\program files\msys2\home\bnguy\qmk_utils\avr8-gnu-toolchain\avr\include\avr\pgmspace.h ****         "out %2, %C1"   "\n\t"            \
 874:d:\program files\msys2\home\bnguy\qmk_utils\avr8-gnu-toolchain\avr\include\avr\pgmspace.h ****         "movw r30, %1"  "\n\t"            \
 875:d:\program files\msys2\home\bnguy\qmk_utils\avr8-gnu-toolchain\avr\include\avr\pgmspace.h ****         "elpm %A0, Z+"  "\n\t"            \
 876:d:\program files\msys2\home\bnguy\qmk_utils\avr8-gnu-toolchain\avr\include\avr\pgmspace.h ****         "elpm %B0, Z+"  "\n\t"            \
 877:d:\program files\msys2\home\bnguy\qmk_utils\avr8-gnu-toolchain\avr\include\avr\pgmspace.h ****         "elpm %C0, Z+"  "\n\t"            \
 878:d:\program files\msys2\home\bnguy\qmk_utils\avr8-gnu-toolchain\avr\include\avr\pgmspace.h ****         "elpm %D0, Z"   "\n\t"            \
 879:d:\program files\msys2\home\bnguy\qmk_utils\avr8-gnu-toolchain\avr\include\avr\pgmspace.h ****         "out %2, __tmp_reg__"             \
 880:d:\program files\msys2\home\bnguy\qmk_utils\avr8-gnu-toolchain\avr\include\avr\pgmspace.h ****         : "=r" (__result)                 \
 881:d:\program files\msys2\home\bnguy\qmk_utils\avr8-gnu-toolchain\avr\include\avr\pgmspace.h ****         : "r" (__addr32),                 \
 882:d:\program files\msys2\home\bnguy\qmk_utils\avr8-gnu-toolchain\avr\include\avr\pgmspace.h ****           "I" (_SFR_IO_ADDR(RAMPZ))       \
 883:d:\program files\msys2\home\bnguy\qmk_utils\avr8-gnu-toolchain\avr\include\avr\pgmspace.h ****         : "r30", "r31"                    \
 884:d:\program files\msys2\home\bnguy\qmk_utils\avr8-gnu-toolchain\avr\include\avr\pgmspace.h ****     );                                    \
 885:d:\program files\msys2\home\bnguy\qmk_utils\avr8-gnu-toolchain\avr\include\avr\pgmspace.h ****     __result;                             \
 886:d:\program files\msys2\home\bnguy\qmk_utils\avr8-gnu-toolchain\avr\include\avr\pgmspace.h **** }))
 887:d:\program files\msys2\home\bnguy\qmk_utils\avr8-gnu-toolchain\avr\include\avr\pgmspace.h **** 
 888:d:\program files\msys2\home\bnguy\qmk_utils\avr8-gnu-toolchain\avr\include\avr\pgmspace.h **** #define __ELPM_float_classic__(addr)      \
 889:d:\program files\msys2\home\bnguy\qmk_utils\avr8-gnu-toolchain\avr\include\avr\pgmspace.h **** (__extension__({                          \
 890:d:\program files\msys2\home\bnguy\qmk_utils\avr8-gnu-toolchain\avr\include\avr\pgmspace.h ****     uint32_t __addr32 = (uint32_t)(addr); \
 891:d:\program files\msys2\home\bnguy\qmk_utils\avr8-gnu-toolchain\avr\include\avr\pgmspace.h ****     float __result;                       \
 892:d:\program files\msys2\home\bnguy\qmk_utils\avr8-gnu-toolchain\avr\include\avr\pgmspace.h ****     __asm__ __volatile__                  \
 893:d:\program files\msys2\home\bnguy\qmk_utils\avr8-gnu-toolchain\avr\include\avr\pgmspace.h ****     (                                     \
 894:d:\program files\msys2\home\bnguy\qmk_utils\avr8-gnu-toolchain\avr\include\avr\pgmspace.h ****         "out %2, %C1"          "\n\t"     \
 895:d:\program files\msys2\home\bnguy\qmk_utils\avr8-gnu-toolchain\avr\include\avr\pgmspace.h ****         "mov r31, %B1"         "\n\t"     \
 896:d:\program files\msys2\home\bnguy\qmk_utils\avr8-gnu-toolchain\avr\include\avr\pgmspace.h ****         "mov r30, %A1"         "\n\t"     \
 897:d:\program files\msys2\home\bnguy\qmk_utils\avr8-gnu-toolchain\avr\include\avr\pgmspace.h ****         "elpm"                 "\n\t"     \
 898:d:\program files\msys2\home\bnguy\qmk_utils\avr8-gnu-toolchain\avr\include\avr\pgmspace.h ****         "mov %A0, r0"          "\n\t"     \
 899:d:\program files\msys2\home\bnguy\qmk_utils\avr8-gnu-toolchain\avr\include\avr\pgmspace.h ****         "in r0, %2"            "\n\t"     \
 900:d:\program files\msys2\home\bnguy\qmk_utils\avr8-gnu-toolchain\avr\include\avr\pgmspace.h ****         "adiw r30, 1"          "\n\t"     \
 901:d:\program files\msys2\home\bnguy\qmk_utils\avr8-gnu-toolchain\avr\include\avr\pgmspace.h ****         "adc r0, __zero_reg__" "\n\t"     \
 902:d:\program files\msys2\home\bnguy\qmk_utils\avr8-gnu-toolchain\avr\include\avr\pgmspace.h ****         "out %2, r0"           "\n\t"     \
 903:d:\program files\msys2\home\bnguy\qmk_utils\avr8-gnu-toolchain\avr\include\avr\pgmspace.h ****         "elpm"                 "\n\t"     \
 904:d:\program files\msys2\home\bnguy\qmk_utils\avr8-gnu-toolchain\avr\include\avr\pgmspace.h ****         "mov %B0, r0"          "\n\t"     \
 905:d:\program files\msys2\home\bnguy\qmk_utils\avr8-gnu-toolchain\avr\include\avr\pgmspace.h ****         "in r0, %2"            "\n\t"     \
 906:d:\program files\msys2\home\bnguy\qmk_utils\avr8-gnu-toolchain\avr\include\avr\pgmspace.h ****         "adiw r30, 1"          "\n\t"     \
 907:d:\program files\msys2\home\bnguy\qmk_utils\avr8-gnu-toolchain\avr\include\avr\pgmspace.h ****         "adc r0, __zero_reg__" "\n\t"     \
 908:d:\program files\msys2\home\bnguy\qmk_utils\avr8-gnu-toolchain\avr\include\avr\pgmspace.h ****         "out %2, r0"           "\n\t"     \
 909:d:\program files\msys2\home\bnguy\qmk_utils\avr8-gnu-toolchain\avr\include\avr\pgmspace.h ****         "elpm"                 "\n\t"     \
 910:d:\program files\msys2\home\bnguy\qmk_utils\avr8-gnu-toolchain\avr\include\avr\pgmspace.h ****         "mov %C0, r0"          "\n\t"     \
 911:d:\program files\msys2\home\bnguy\qmk_utils\avr8-gnu-toolchain\avr\include\avr\pgmspace.h ****         "in r0, %2"            "\n\t"     \
 912:d:\program files\msys2\home\bnguy\qmk_utils\avr8-gnu-toolchain\avr\include\avr\pgmspace.h ****         "adiw r30, 1"          "\n\t"     \
 913:d:\program files\msys2\home\bnguy\qmk_utils\avr8-gnu-toolchain\avr\include\avr\pgmspace.h ****         "adc r0, __zero_reg__" "\n\t"     \
 914:d:\program files\msys2\home\bnguy\qmk_utils\avr8-gnu-toolchain\avr\include\avr\pgmspace.h ****         "out %2, r0"           "\n\t"     \
 915:d:\program files\msys2\home\bnguy\qmk_utils\avr8-gnu-toolchain\avr\include\avr\pgmspace.h ****         "elpm"                 "\n\t"     \
 916:d:\program files\msys2\home\bnguy\qmk_utils\avr8-gnu-toolchain\avr\include\avr\pgmspace.h ****         "mov %D0, r0"          "\n\t"     \
 917:d:\program files\msys2\home\bnguy\qmk_utils\avr8-gnu-toolchain\avr\include\avr\pgmspace.h ****         : "=r" (__result)                 \
 918:d:\program files\msys2\home\bnguy\qmk_utils\avr8-gnu-toolchain\avr\include\avr\pgmspace.h ****         : "r" (__addr32),                 \
 919:d:\program files\msys2\home\bnguy\qmk_utils\avr8-gnu-toolchain\avr\include\avr\pgmspace.h ****           "I" (_SFR_IO_ADDR(RAMPZ))       \
 920:d:\program files\msys2\home\bnguy\qmk_utils\avr8-gnu-toolchain\avr\include\avr\pgmspace.h ****         : "r0", "r30", "r31"              \
 921:d:\program files\msys2\home\bnguy\qmk_utils\avr8-gnu-toolchain\avr\include\avr\pgmspace.h ****     );                                    \
 922:d:\program files\msys2\home\bnguy\qmk_utils\avr8-gnu-toolchain\avr\include\avr\pgmspace.h ****     __result;                             \
 923:d:\program files\msys2\home\bnguy\qmk_utils\avr8-gnu-toolchain\avr\include\avr\pgmspace.h **** }))
 924:d:\program files\msys2\home\bnguy\qmk_utils\avr8-gnu-toolchain\avr\include\avr\pgmspace.h **** 
 925:d:\program files\msys2\home\bnguy\qmk_utils\avr8-gnu-toolchain\avr\include\avr\pgmspace.h **** #define __ELPM_float_enhanced__(addr)     \
 926:d:\program files\msys2\home\bnguy\qmk_utils\avr8-gnu-toolchain\avr\include\avr\pgmspace.h **** (__extension__({                          \
 927:d:\program files\msys2\home\bnguy\qmk_utils\avr8-gnu-toolchain\avr\include\avr\pgmspace.h ****     uint32_t __addr32 = (uint32_t)(addr); \
 928:d:\program files\msys2\home\bnguy\qmk_utils\avr8-gnu-toolchain\avr\include\avr\pgmspace.h ****     float __result;                       \
 929:d:\program files\msys2\home\bnguy\qmk_utils\avr8-gnu-toolchain\avr\include\avr\pgmspace.h ****     __asm__ __volatile__                  \
 930:d:\program files\msys2\home\bnguy\qmk_utils\avr8-gnu-toolchain\avr\include\avr\pgmspace.h ****     (                                     \
 931:d:\program files\msys2\home\bnguy\qmk_utils\avr8-gnu-toolchain\avr\include\avr\pgmspace.h ****         "out %2, %C1"   "\n\t"            \
 932:d:\program files\msys2\home\bnguy\qmk_utils\avr8-gnu-toolchain\avr\include\avr\pgmspace.h ****         "movw r30, %1"  "\n\t"            \
 933:d:\program files\msys2\home\bnguy\qmk_utils\avr8-gnu-toolchain\avr\include\avr\pgmspace.h ****         "elpm %A0, Z+"  "\n\t"            \
 934:d:\program files\msys2\home\bnguy\qmk_utils\avr8-gnu-toolchain\avr\include\avr\pgmspace.h ****         "elpm %B0, Z+"  "\n\t"            \
 935:d:\program files\msys2\home\bnguy\qmk_utils\avr8-gnu-toolchain\avr\include\avr\pgmspace.h ****         "elpm %C0, Z+"  "\n\t"            \
 936:d:\program files\msys2\home\bnguy\qmk_utils\avr8-gnu-toolchain\avr\include\avr\pgmspace.h ****         "elpm %D0, Z"   "\n\t"            \
 937:d:\program files\msys2\home\bnguy\qmk_utils\avr8-gnu-toolchain\avr\include\avr\pgmspace.h ****         : "=r" (__result)                 \
 938:d:\program files\msys2\home\bnguy\qmk_utils\avr8-gnu-toolchain\avr\include\avr\pgmspace.h ****         : "r" (__addr32),                 \
 939:d:\program files\msys2\home\bnguy\qmk_utils\avr8-gnu-toolchain\avr\include\avr\pgmspace.h ****           "I" (_SFR_IO_ADDR(RAMPZ))       \
 940:d:\program files\msys2\home\bnguy\qmk_utils\avr8-gnu-toolchain\avr\include\avr\pgmspace.h ****         : "r30", "r31"                    \
 941:d:\program files\msys2\home\bnguy\qmk_utils\avr8-gnu-toolchain\avr\include\avr\pgmspace.h ****     );                                    \
 942:d:\program files\msys2\home\bnguy\qmk_utils\avr8-gnu-toolchain\avr\include\avr\pgmspace.h ****     __result;                             \
 943:d:\program files\msys2\home\bnguy\qmk_utils\avr8-gnu-toolchain\avr\include\avr\pgmspace.h **** }))
 944:d:\program files\msys2\home\bnguy\qmk_utils\avr8-gnu-toolchain\avr\include\avr\pgmspace.h **** 
 945:d:\program files\msys2\home\bnguy\qmk_utils\avr8-gnu-toolchain\avr\include\avr\pgmspace.h **** #define __ELPM_float_xmega__(addr)        \
 946:d:\program files\msys2\home\bnguy\qmk_utils\avr8-gnu-toolchain\avr\include\avr\pgmspace.h **** (__extension__({                          \
 947:d:\program files\msys2\home\bnguy\qmk_utils\avr8-gnu-toolchain\avr\include\avr\pgmspace.h ****     uint32_t __addr32 = (uint32_t)(addr); \
 948:d:\program files\msys2\home\bnguy\qmk_utils\avr8-gnu-toolchain\avr\include\avr\pgmspace.h ****     float __result;                       \
 949:d:\program files\msys2\home\bnguy\qmk_utils\avr8-gnu-toolchain\avr\include\avr\pgmspace.h ****     __asm__ __volatile__                  \
 950:d:\program files\msys2\home\bnguy\qmk_utils\avr8-gnu-toolchain\avr\include\avr\pgmspace.h ****     (                                     \
 951:d:\program files\msys2\home\bnguy\qmk_utils\avr8-gnu-toolchain\avr\include\avr\pgmspace.h ****         "in __tmp_reg__, %2" "\n\t"       \
 952:d:\program files\msys2\home\bnguy\qmk_utils\avr8-gnu-toolchain\avr\include\avr\pgmspace.h ****         "out %2, %C1"   "\n\t"            \
 953:d:\program files\msys2\home\bnguy\qmk_utils\avr8-gnu-toolchain\avr\include\avr\pgmspace.h ****         "movw r30, %1"  "\n\t"            \
 954:d:\program files\msys2\home\bnguy\qmk_utils\avr8-gnu-toolchain\avr\include\avr\pgmspace.h ****         "elpm %A0, Z+"  "\n\t"            \
 955:d:\program files\msys2\home\bnguy\qmk_utils\avr8-gnu-toolchain\avr\include\avr\pgmspace.h ****         "elpm %B0, Z+"  "\n\t"            \
 956:d:\program files\msys2\home\bnguy\qmk_utils\avr8-gnu-toolchain\avr\include\avr\pgmspace.h ****         "elpm %C0, Z+"  "\n\t"            \
 957:d:\program files\msys2\home\bnguy\qmk_utils\avr8-gnu-toolchain\avr\include\avr\pgmspace.h ****         "elpm %D0, Z"   "\n\t"            \
 958:d:\program files\msys2\home\bnguy\qmk_utils\avr8-gnu-toolchain\avr\include\avr\pgmspace.h ****         "out %2, __tmp_reg__"             \
 959:d:\program files\msys2\home\bnguy\qmk_utils\avr8-gnu-toolchain\avr\include\avr\pgmspace.h ****         : "=r" (__result)                 \
 960:d:\program files\msys2\home\bnguy\qmk_utils\avr8-gnu-toolchain\avr\include\avr\pgmspace.h ****         : "r" (__addr32),                 \
 961:d:\program files\msys2\home\bnguy\qmk_utils\avr8-gnu-toolchain\avr\include\avr\pgmspace.h ****           "I" (_SFR_IO_ADDR(RAMPZ))       \
 962:d:\program files\msys2\home\bnguy\qmk_utils\avr8-gnu-toolchain\avr\include\avr\pgmspace.h ****         : "r30", "r31"                    \
 963:d:\program files\msys2\home\bnguy\qmk_utils\avr8-gnu-toolchain\avr\include\avr\pgmspace.h ****     );                                    \
 964:d:\program files\msys2\home\bnguy\qmk_utils\avr8-gnu-toolchain\avr\include\avr\pgmspace.h ****     __result;                             \
 965:d:\program files\msys2\home\bnguy\qmk_utils\avr8-gnu-toolchain\avr\include\avr\pgmspace.h **** }))
 966:d:\program files\msys2\home\bnguy\qmk_utils\avr8-gnu-toolchain\avr\include\avr\pgmspace.h **** 
 967:d:\program files\msys2\home\bnguy\qmk_utils\avr8-gnu-toolchain\avr\include\avr\pgmspace.h **** /*
 968:d:\program files\msys2\home\bnguy\qmk_utils\avr8-gnu-toolchain\avr\include\avr\pgmspace.h **** Check for architectures that implement RAMPD (avrxmega5, avrxmega7)
 969:d:\program files\msys2\home\bnguy\qmk_utils\avr8-gnu-toolchain\avr\include\avr\pgmspace.h **** as they need to save/restore RAMPZ for ELPM macros so it does
 970:d:\program files\msys2\home\bnguy\qmk_utils\avr8-gnu-toolchain\avr\include\avr\pgmspace.h **** not interfere with data accesses.
 971:d:\program files\msys2\home\bnguy\qmk_utils\avr8-gnu-toolchain\avr\include\avr\pgmspace.h **** */
 972:d:\program files\msys2\home\bnguy\qmk_utils\avr8-gnu-toolchain\avr\include\avr\pgmspace.h **** #if defined (__AVR_HAVE_RAMPD__)
 973:d:\program files\msys2\home\bnguy\qmk_utils\avr8-gnu-toolchain\avr\include\avr\pgmspace.h **** 
 974:d:\program files\msys2\home\bnguy\qmk_utils\avr8-gnu-toolchain\avr\include\avr\pgmspace.h **** #define __ELPM(addr)        __ELPM_xmega__(addr)
 975:d:\program files\msys2\home\bnguy\qmk_utils\avr8-gnu-toolchain\avr\include\avr\pgmspace.h **** #define __ELPM_word(addr)   __ELPM_word_xmega__(addr)
 976:d:\program files\msys2\home\bnguy\qmk_utils\avr8-gnu-toolchain\avr\include\avr\pgmspace.h **** #define __ELPM_dword(addr)  __ELPM_dword_xmega__(addr)
 977:d:\program files\msys2\home\bnguy\qmk_utils\avr8-gnu-toolchain\avr\include\avr\pgmspace.h **** #define __ELPM_float(addr)  __ELPM_float_xmega__(addr)
 978:d:\program files\msys2\home\bnguy\qmk_utils\avr8-gnu-toolchain\avr\include\avr\pgmspace.h **** 
 979:d:\program files\msys2\home\bnguy\qmk_utils\avr8-gnu-toolchain\avr\include\avr\pgmspace.h **** #else
 980:d:\program files\msys2\home\bnguy\qmk_utils\avr8-gnu-toolchain\avr\include\avr\pgmspace.h **** 
 981:d:\program files\msys2\home\bnguy\qmk_utils\avr8-gnu-toolchain\avr\include\avr\pgmspace.h **** #if defined (__AVR_HAVE_LPMX__)
 982:d:\program files\msys2\home\bnguy\qmk_utils\avr8-gnu-toolchain\avr\include\avr\pgmspace.h **** 
 983:d:\program files\msys2\home\bnguy\qmk_utils\avr8-gnu-toolchain\avr\include\avr\pgmspace.h **** #define __ELPM(addr)        __ELPM_enhanced__(addr)
 984:d:\program files\msys2\home\bnguy\qmk_utils\avr8-gnu-toolchain\avr\include\avr\pgmspace.h **** #define __ELPM_word(addr)   __ELPM_word_enhanced__(addr)
 985:d:\program files\msys2\home\bnguy\qmk_utils\avr8-gnu-toolchain\avr\include\avr\pgmspace.h **** #define __ELPM_dword(addr)  __ELPM_dword_enhanced__(addr)
 986:d:\program files\msys2\home\bnguy\qmk_utils\avr8-gnu-toolchain\avr\include\avr\pgmspace.h **** #define __ELPM_float(addr)  __ELPM_float_enhanced__(addr)
 987:d:\program files\msys2\home\bnguy\qmk_utils\avr8-gnu-toolchain\avr\include\avr\pgmspace.h **** 
 988:d:\program files\msys2\home\bnguy\qmk_utils\avr8-gnu-toolchain\avr\include\avr\pgmspace.h **** #else
 989:d:\program files\msys2\home\bnguy\qmk_utils\avr8-gnu-toolchain\avr\include\avr\pgmspace.h **** 
 990:d:\program files\msys2\home\bnguy\qmk_utils\avr8-gnu-toolchain\avr\include\avr\pgmspace.h **** #define __ELPM(addr)        __ELPM_classic__(addr)
 991:d:\program files\msys2\home\bnguy\qmk_utils\avr8-gnu-toolchain\avr\include\avr\pgmspace.h **** #define __ELPM_word(addr)   __ELPM_word_classic__(addr)
 992:d:\program files\msys2\home\bnguy\qmk_utils\avr8-gnu-toolchain\avr\include\avr\pgmspace.h **** #define __ELPM_dword(addr)  __ELPM_dword_classic__(addr)
 993:d:\program files\msys2\home\bnguy\qmk_utils\avr8-gnu-toolchain\avr\include\avr\pgmspace.h **** #define __ELPM_float(addr)  __ELPM_float_classic__(addr)
 994:d:\program files\msys2\home\bnguy\qmk_utils\avr8-gnu-toolchain\avr\include\avr\pgmspace.h **** 
 995:d:\program files\msys2\home\bnguy\qmk_utils\avr8-gnu-toolchain\avr\include\avr\pgmspace.h **** #endif  /* __AVR_HAVE_LPMX__ */
 996:d:\program files\msys2\home\bnguy\qmk_utils\avr8-gnu-toolchain\avr\include\avr\pgmspace.h **** 
 997:d:\program files\msys2\home\bnguy\qmk_utils\avr8-gnu-toolchain\avr\include\avr\pgmspace.h **** #endif  /* __AVR_HAVE_RAMPD__ */
 998:d:\program files\msys2\home\bnguy\qmk_utils\avr8-gnu-toolchain\avr\include\avr\pgmspace.h **** 
 999:d:\program files\msys2\home\bnguy\qmk_utils\avr8-gnu-toolchain\avr\include\avr\pgmspace.h **** #endif	/* !__DOXYGEN__ */
1000:d:\program files\msys2\home\bnguy\qmk_utils\avr8-gnu-toolchain\avr\include\avr\pgmspace.h **** 
1001:d:\program files\msys2\home\bnguy\qmk_utils\avr8-gnu-toolchain\avr\include\avr\pgmspace.h **** /** \ingroup avr_pgmspace
1002:d:\program files\msys2\home\bnguy\qmk_utils\avr8-gnu-toolchain\avr\include\avr\pgmspace.h ****     \def pgm_read_byte_far(address_long)
1003:d:\program files\msys2\home\bnguy\qmk_utils\avr8-gnu-toolchain\avr\include\avr\pgmspace.h ****     Read a byte from the program space with a 32-bit (far) address. 
1004:d:\program files\msys2\home\bnguy\qmk_utils\avr8-gnu-toolchain\avr\include\avr\pgmspace.h **** 
1005:d:\program files\msys2\home\bnguy\qmk_utils\avr8-gnu-toolchain\avr\include\avr\pgmspace.h ****     \note The address is a byte address. 
1006:d:\program files\msys2\home\bnguy\qmk_utils\avr8-gnu-toolchain\avr\include\avr\pgmspace.h ****     The address is in the program space. */
1007:d:\program files\msys2\home\bnguy\qmk_utils\avr8-gnu-toolchain\avr\include\avr\pgmspace.h **** 
1008:d:\program files\msys2\home\bnguy\qmk_utils\avr8-gnu-toolchain\avr\include\avr\pgmspace.h **** #define pgm_read_byte_far(address_long)  __ELPM((uint32_t)(address_long))
1009:d:\program files\msys2\home\bnguy\qmk_utils\avr8-gnu-toolchain\avr\include\avr\pgmspace.h **** 
1010:d:\program files\msys2\home\bnguy\qmk_utils\avr8-gnu-toolchain\avr\include\avr\pgmspace.h **** /** \ingroup avr_pgmspace
1011:d:\program files\msys2\home\bnguy\qmk_utils\avr8-gnu-toolchain\avr\include\avr\pgmspace.h ****     \def pgm_read_word_far(address_long)
1012:d:\program files\msys2\home\bnguy\qmk_utils\avr8-gnu-toolchain\avr\include\avr\pgmspace.h ****     Read a word from the program space with a 32-bit (far) address. 
1013:d:\program files\msys2\home\bnguy\qmk_utils\avr8-gnu-toolchain\avr\include\avr\pgmspace.h **** 
1014:d:\program files\msys2\home\bnguy\qmk_utils\avr8-gnu-toolchain\avr\include\avr\pgmspace.h ****     \note The address is a byte address.
1015:d:\program files\msys2\home\bnguy\qmk_utils\avr8-gnu-toolchain\avr\include\avr\pgmspace.h ****     The address is in the program space. */
1016:d:\program files\msys2\home\bnguy\qmk_utils\avr8-gnu-toolchain\avr\include\avr\pgmspace.h **** 
1017:d:\program files\msys2\home\bnguy\qmk_utils\avr8-gnu-toolchain\avr\include\avr\pgmspace.h **** #define pgm_read_word_far(address_long)  __ELPM_word((uint32_t)(address_long))
1018:d:\program files\msys2\home\bnguy\qmk_utils\avr8-gnu-toolchain\avr\include\avr\pgmspace.h **** 
1019:d:\program files\msys2\home\bnguy\qmk_utils\avr8-gnu-toolchain\avr\include\avr\pgmspace.h **** /** \ingroup avr_pgmspace
1020:d:\program files\msys2\home\bnguy\qmk_utils\avr8-gnu-toolchain\avr\include\avr\pgmspace.h ****     \def pgm_read_dword_far(address_long)
1021:d:\program files\msys2\home\bnguy\qmk_utils\avr8-gnu-toolchain\avr\include\avr\pgmspace.h ****     Read a double word from the program space with a 32-bit (far) address. 
1022:d:\program files\msys2\home\bnguy\qmk_utils\avr8-gnu-toolchain\avr\include\avr\pgmspace.h **** 
1023:d:\program files\msys2\home\bnguy\qmk_utils\avr8-gnu-toolchain\avr\include\avr\pgmspace.h ****     \note The address is a byte address.
1024:d:\program files\msys2\home\bnguy\qmk_utils\avr8-gnu-toolchain\avr\include\avr\pgmspace.h ****     The address is in the program space. */
1025:d:\program files\msys2\home\bnguy\qmk_utils\avr8-gnu-toolchain\avr\include\avr\pgmspace.h **** 
1026:d:\program files\msys2\home\bnguy\qmk_utils\avr8-gnu-toolchain\avr\include\avr\pgmspace.h **** #define pgm_read_dword_far(address_long) __ELPM_dword((uint32_t)(address_long))
1027:d:\program files\msys2\home\bnguy\qmk_utils\avr8-gnu-toolchain\avr\include\avr\pgmspace.h **** 
1028:d:\program files\msys2\home\bnguy\qmk_utils\avr8-gnu-toolchain\avr\include\avr\pgmspace.h **** /** \ingroup avr_pgmspace
1029:d:\program files\msys2\home\bnguy\qmk_utils\avr8-gnu-toolchain\avr\include\avr\pgmspace.h ****     \def pgm_read_float_far(address_long)
1030:d:\program files\msys2\home\bnguy\qmk_utils\avr8-gnu-toolchain\avr\include\avr\pgmspace.h ****     Read a float from the program space with a 32-bit (far) address. 
1031:d:\program files\msys2\home\bnguy\qmk_utils\avr8-gnu-toolchain\avr\include\avr\pgmspace.h **** 
1032:d:\program files\msys2\home\bnguy\qmk_utils\avr8-gnu-toolchain\avr\include\avr\pgmspace.h ****     \note The address is a byte address.
1033:d:\program files\msys2\home\bnguy\qmk_utils\avr8-gnu-toolchain\avr\include\avr\pgmspace.h ****     The address is in the program space. */
1034:d:\program files\msys2\home\bnguy\qmk_utils\avr8-gnu-toolchain\avr\include\avr\pgmspace.h **** 
1035:d:\program files\msys2\home\bnguy\qmk_utils\avr8-gnu-toolchain\avr\include\avr\pgmspace.h **** #define pgm_read_float_far(address_long) __ELPM_float((uint32_t)(address_long))
1036:d:\program files\msys2\home\bnguy\qmk_utils\avr8-gnu-toolchain\avr\include\avr\pgmspace.h **** 
1037:d:\program files\msys2\home\bnguy\qmk_utils\avr8-gnu-toolchain\avr\include\avr\pgmspace.h **** /** \ingroup avr_pgmspace
1038:d:\program files\msys2\home\bnguy\qmk_utils\avr8-gnu-toolchain\avr\include\avr\pgmspace.h ****     \def pgm_read_ptr_far(address_long)
1039:d:\program files\msys2\home\bnguy\qmk_utils\avr8-gnu-toolchain\avr\include\avr\pgmspace.h ****     Read a pointer from the program space with a 32-bit (far) address. 
1040:d:\program files\msys2\home\bnguy\qmk_utils\avr8-gnu-toolchain\avr\include\avr\pgmspace.h **** 
1041:d:\program files\msys2\home\bnguy\qmk_utils\avr8-gnu-toolchain\avr\include\avr\pgmspace.h ****     \note The address is a byte address.
1042:d:\program files\msys2\home\bnguy\qmk_utils\avr8-gnu-toolchain\avr\include\avr\pgmspace.h ****     The address is in the program space. */
1043:d:\program files\msys2\home\bnguy\qmk_utils\avr8-gnu-toolchain\avr\include\avr\pgmspace.h **** 
1044:d:\program files\msys2\home\bnguy\qmk_utils\avr8-gnu-toolchain\avr\include\avr\pgmspace.h **** #define pgm_read_ptr_far(address_long) (void*)__ELPM_word((uint32_t)(address_long))
1045:d:\program files\msys2\home\bnguy\qmk_utils\avr8-gnu-toolchain\avr\include\avr\pgmspace.h **** 
1046:d:\program files\msys2\home\bnguy\qmk_utils\avr8-gnu-toolchain\avr\include\avr\pgmspace.h **** #endif /* RAMPZ or __DOXYGEN__ */
1047:d:\program files\msys2\home\bnguy\qmk_utils\avr8-gnu-toolchain\avr\include\avr\pgmspace.h **** 
1048:d:\program files\msys2\home\bnguy\qmk_utils\avr8-gnu-toolchain\avr\include\avr\pgmspace.h **** /** \ingroup avr_pgmspace
1049:d:\program files\msys2\home\bnguy\qmk_utils\avr8-gnu-toolchain\avr\include\avr\pgmspace.h ****     \def pgm_read_byte(address_short)
1050:d:\program files\msys2\home\bnguy\qmk_utils\avr8-gnu-toolchain\avr\include\avr\pgmspace.h ****     Read a byte from the program space with a 16-bit (near) address. 
1051:d:\program files\msys2\home\bnguy\qmk_utils\avr8-gnu-toolchain\avr\include\avr\pgmspace.h **** 
1052:d:\program files\msys2\home\bnguy\qmk_utils\avr8-gnu-toolchain\avr\include\avr\pgmspace.h ****     \note The address is a byte address. 
1053:d:\program files\msys2\home\bnguy\qmk_utils\avr8-gnu-toolchain\avr\include\avr\pgmspace.h ****     The address is in the program space. */
1054:d:\program files\msys2\home\bnguy\qmk_utils\avr8-gnu-toolchain\avr\include\avr\pgmspace.h **** 
1055:d:\program files\msys2\home\bnguy\qmk_utils\avr8-gnu-toolchain\avr\include\avr\pgmspace.h **** #define pgm_read_byte(address_short)    pgm_read_byte_near(address_short)
1056:d:\program files\msys2\home\bnguy\qmk_utils\avr8-gnu-toolchain\avr\include\avr\pgmspace.h **** 
1057:d:\program files\msys2\home\bnguy\qmk_utils\avr8-gnu-toolchain\avr\include\avr\pgmspace.h **** /** \ingroup avr_pgmspace
1058:d:\program files\msys2\home\bnguy\qmk_utils\avr8-gnu-toolchain\avr\include\avr\pgmspace.h ****     \def pgm_read_word(address_short)
1059:d:\program files\msys2\home\bnguy\qmk_utils\avr8-gnu-toolchain\avr\include\avr\pgmspace.h ****     Read a word from the program space with a 16-bit (near) address. 
1060:d:\program files\msys2\home\bnguy\qmk_utils\avr8-gnu-toolchain\avr\include\avr\pgmspace.h **** 
1061:d:\program files\msys2\home\bnguy\qmk_utils\avr8-gnu-toolchain\avr\include\avr\pgmspace.h ****     \note The address is a byte address. 
1062:d:\program files\msys2\home\bnguy\qmk_utils\avr8-gnu-toolchain\avr\include\avr\pgmspace.h ****     The address is in the program space. */
1063:d:\program files\msys2\home\bnguy\qmk_utils\avr8-gnu-toolchain\avr\include\avr\pgmspace.h **** 
1064:d:\program files\msys2\home\bnguy\qmk_utils\avr8-gnu-toolchain\avr\include\avr\pgmspace.h **** #define pgm_read_word(address_short)    pgm_read_word_near(address_short)
1065:d:\program files\msys2\home\bnguy\qmk_utils\avr8-gnu-toolchain\avr\include\avr\pgmspace.h **** 
1066:d:\program files\msys2\home\bnguy\qmk_utils\avr8-gnu-toolchain\avr\include\avr\pgmspace.h **** /** \ingroup avr_pgmspace
1067:d:\program files\msys2\home\bnguy\qmk_utils\avr8-gnu-toolchain\avr\include\avr\pgmspace.h ****     \def pgm_read_dword(address_short)
1068:d:\program files\msys2\home\bnguy\qmk_utils\avr8-gnu-toolchain\avr\include\avr\pgmspace.h ****     Read a double word from the program space with a 16-bit (near) address. 
1069:d:\program files\msys2\home\bnguy\qmk_utils\avr8-gnu-toolchain\avr\include\avr\pgmspace.h **** 
1070:d:\program files\msys2\home\bnguy\qmk_utils\avr8-gnu-toolchain\avr\include\avr\pgmspace.h ****     \note The address is a byte address. 
1071:d:\program files\msys2\home\bnguy\qmk_utils\avr8-gnu-toolchain\avr\include\avr\pgmspace.h ****     The address is in the program space. */
1072:d:\program files\msys2\home\bnguy\qmk_utils\avr8-gnu-toolchain\avr\include\avr\pgmspace.h **** 
1073:d:\program files\msys2\home\bnguy\qmk_utils\avr8-gnu-toolchain\avr\include\avr\pgmspace.h **** #define pgm_read_dword(address_short)   pgm_read_dword_near(address_short)
1074:d:\program files\msys2\home\bnguy\qmk_utils\avr8-gnu-toolchain\avr\include\avr\pgmspace.h **** 
1075:d:\program files\msys2\home\bnguy\qmk_utils\avr8-gnu-toolchain\avr\include\avr\pgmspace.h **** /** \ingroup avr_pgmspace
1076:d:\program files\msys2\home\bnguy\qmk_utils\avr8-gnu-toolchain\avr\include\avr\pgmspace.h ****     \def pgm_read_float(address_short)
1077:d:\program files\msys2\home\bnguy\qmk_utils\avr8-gnu-toolchain\avr\include\avr\pgmspace.h ****     Read a float from the program space with a 16-bit (near) address. 
1078:d:\program files\msys2\home\bnguy\qmk_utils\avr8-gnu-toolchain\avr\include\avr\pgmspace.h **** 
1079:d:\program files\msys2\home\bnguy\qmk_utils\avr8-gnu-toolchain\avr\include\avr\pgmspace.h ****     \note The address is a byte address. 
1080:d:\program files\msys2\home\bnguy\qmk_utils\avr8-gnu-toolchain\avr\include\avr\pgmspace.h ****     The address is in the program space. */
1081:d:\program files\msys2\home\bnguy\qmk_utils\avr8-gnu-toolchain\avr\include\avr\pgmspace.h **** 
1082:d:\program files\msys2\home\bnguy\qmk_utils\avr8-gnu-toolchain\avr\include\avr\pgmspace.h **** #define pgm_read_float(address_short)   pgm_read_float_near(address_short)
1083:d:\program files\msys2\home\bnguy\qmk_utils\avr8-gnu-toolchain\avr\include\avr\pgmspace.h **** 
1084:d:\program files\msys2\home\bnguy\qmk_utils\avr8-gnu-toolchain\avr\include\avr\pgmspace.h **** /** \ingroup avr_pgmspace
1085:d:\program files\msys2\home\bnguy\qmk_utils\avr8-gnu-toolchain\avr\include\avr\pgmspace.h ****     \def pgm_read_ptr(address_short)
1086:d:\program files\msys2\home\bnguy\qmk_utils\avr8-gnu-toolchain\avr\include\avr\pgmspace.h ****     Read a pointer from the program space with a 16-bit (near) address. 
1087:d:\program files\msys2\home\bnguy\qmk_utils\avr8-gnu-toolchain\avr\include\avr\pgmspace.h **** 
1088:d:\program files\msys2\home\bnguy\qmk_utils\avr8-gnu-toolchain\avr\include\avr\pgmspace.h ****     \note The address is a byte address. 
1089:d:\program files\msys2\home\bnguy\qmk_utils\avr8-gnu-toolchain\avr\include\avr\pgmspace.h ****     The address is in the program space. */
1090:d:\program files\msys2\home\bnguy\qmk_utils\avr8-gnu-toolchain\avr\include\avr\pgmspace.h **** 
1091:d:\program files\msys2\home\bnguy\qmk_utils\avr8-gnu-toolchain\avr\include\avr\pgmspace.h **** #define pgm_read_ptr(address_short)     pgm_read_ptr_near(address_short)
1092:d:\program files\msys2\home\bnguy\qmk_utils\avr8-gnu-toolchain\avr\include\avr\pgmspace.h **** 
1093:d:\program files\msys2\home\bnguy\qmk_utils\avr8-gnu-toolchain\avr\include\avr\pgmspace.h **** /** \ingroup avr_pgmspace
1094:d:\program files\msys2\home\bnguy\qmk_utils\avr8-gnu-toolchain\avr\include\avr\pgmspace.h ****     \def pgm_get_far_address(var)
1095:d:\program files\msys2\home\bnguy\qmk_utils\avr8-gnu-toolchain\avr\include\avr\pgmspace.h **** 
1096:d:\program files\msys2\home\bnguy\qmk_utils\avr8-gnu-toolchain\avr\include\avr\pgmspace.h ****    This macro facilitates the obtention of a 32 bit "far" pointer (only 24 bits
1097:d:\program files\msys2\home\bnguy\qmk_utils\avr8-gnu-toolchain\avr\include\avr\pgmspace.h ****    used) to data even passed the 64KB limit for the 16 bit ordinary pointer. It
1098:d:\program files\msys2\home\bnguy\qmk_utils\avr8-gnu-toolchain\avr\include\avr\pgmspace.h ****    is similar to the '&' operator, with some limitations.
1099:d:\program files\msys2\home\bnguy\qmk_utils\avr8-gnu-toolchain\avr\include\avr\pgmspace.h **** 
1100:d:\program files\msys2\home\bnguy\qmk_utils\avr8-gnu-toolchain\avr\include\avr\pgmspace.h ****    Comments:
1101:d:\program files\msys2\home\bnguy\qmk_utils\avr8-gnu-toolchain\avr\include\avr\pgmspace.h **** 
1102:d:\program files\msys2\home\bnguy\qmk_utils\avr8-gnu-toolchain\avr\include\avr\pgmspace.h ****    - The overhead is minimal and it's mainly due to the 32 bit size operation.
1103:d:\program files\msys2\home\bnguy\qmk_utils\avr8-gnu-toolchain\avr\include\avr\pgmspace.h **** 
1104:d:\program files\msys2\home\bnguy\qmk_utils\avr8-gnu-toolchain\avr\include\avr\pgmspace.h ****    - 24 bit sizes guarantees the code compatibility for use in future devices.
1105:d:\program files\msys2\home\bnguy\qmk_utils\avr8-gnu-toolchain\avr\include\avr\pgmspace.h **** 
1106:d:\program files\msys2\home\bnguy\qmk_utils\avr8-gnu-toolchain\avr\include\avr\pgmspace.h ****    - hh8() is an undocumented feature but seems to give the third significant byte
1107:d:\program files\msys2\home\bnguy\qmk_utils\avr8-gnu-toolchain\avr\include\avr\pgmspace.h ****      of a 32 bit data and accepts symbols, complementing the functionality of hi8()
1108:d:\program files\msys2\home\bnguy\qmk_utils\avr8-gnu-toolchain\avr\include\avr\pgmspace.h ****      and lo8(). There is not an equivalent assembler function to get the high
1109:d:\program files\msys2\home\bnguy\qmk_utils\avr8-gnu-toolchain\avr\include\avr\pgmspace.h ****      significant byte.
1110:d:\program files\msys2\home\bnguy\qmk_utils\avr8-gnu-toolchain\avr\include\avr\pgmspace.h **** 
1111:d:\program files\msys2\home\bnguy\qmk_utils\avr8-gnu-toolchain\avr\include\avr\pgmspace.h ****    - 'var' has to be resolved at linking time as an existing symbol, i.e, a simple
1112:d:\program files\msys2\home\bnguy\qmk_utils\avr8-gnu-toolchain\avr\include\avr\pgmspace.h ****      type variable name, an array name (not an indexed element of the array, if the
1113:d:\program files\msys2\home\bnguy\qmk_utils\avr8-gnu-toolchain\avr\include\avr\pgmspace.h ****      index is a constant the compiler does not complain but fails to get the address
1114:d:\program files\msys2\home\bnguy\qmk_utils\avr8-gnu-toolchain\avr\include\avr\pgmspace.h ****      if optimization is enabled), a struct name or a struct field name, a function
1115:d:\program files\msys2\home\bnguy\qmk_utils\avr8-gnu-toolchain\avr\include\avr\pgmspace.h ****      identifier, a linker defined identifier,...
1116:d:\program files\msys2\home\bnguy\qmk_utils\avr8-gnu-toolchain\avr\include\avr\pgmspace.h **** 
1117:d:\program files\msys2\home\bnguy\qmk_utils\avr8-gnu-toolchain\avr\include\avr\pgmspace.h ****    - The returned value is the identifier's VMA (virtual memory address) determined
1118:d:\program files\msys2\home\bnguy\qmk_utils\avr8-gnu-toolchain\avr\include\avr\pgmspace.h ****      by the linker and falls in the corresponding memory region. The AVR Harvard
1119:d:\program files\msys2\home\bnguy\qmk_utils\avr8-gnu-toolchain\avr\include\avr\pgmspace.h ****      architecture requires non overlapping VMA areas for the multiple address spaces
1120:d:\program files\msys2\home\bnguy\qmk_utils\avr8-gnu-toolchain\avr\include\avr\pgmspace.h ****      in the processor: Flash ROM, RAM, and EEPROM. Typical offset for this are
1121:d:\program files\msys2\home\bnguy\qmk_utils\avr8-gnu-toolchain\avr\include\avr\pgmspace.h ****      0x00000000, 0x00800xx0, and 0x00810000 respectively, derived from the linker
1122:d:\program files\msys2\home\bnguy\qmk_utils\avr8-gnu-toolchain\avr\include\avr\pgmspace.h ****      script used and linker options. The value returned can be seen then as a
1123:d:\program files\msys2\home\bnguy\qmk_utils\avr8-gnu-toolchain\avr\include\avr\pgmspace.h ****      universal pointer.
1124:d:\program files\msys2\home\bnguy\qmk_utils\avr8-gnu-toolchain\avr\include\avr\pgmspace.h **** */
1125:d:\program files\msys2\home\bnguy\qmk_utils\avr8-gnu-toolchain\avr\include\avr\pgmspace.h **** 
1126:d:\program files\msys2\home\bnguy\qmk_utils\avr8-gnu-toolchain\avr\include\avr\pgmspace.h **** #define pgm_get_far_address(var)                          \
1127:d:\program files\msys2\home\bnguy\qmk_utils\avr8-gnu-toolchain\avr\include\avr\pgmspace.h **** ({                                                    \
1128:d:\program files\msys2\home\bnguy\qmk_utils\avr8-gnu-toolchain\avr\include\avr\pgmspace.h **** 	uint_farptr_t tmp;                                \
1129:d:\program files\msys2\home\bnguy\qmk_utils\avr8-gnu-toolchain\avr\include\avr\pgmspace.h ****                                                       \
1130:d:\program files\msys2\home\bnguy\qmk_utils\avr8-gnu-toolchain\avr\include\avr\pgmspace.h **** 	__asm__ __volatile__(                             \
1131:d:\program files\msys2\home\bnguy\qmk_utils\avr8-gnu-toolchain\avr\include\avr\pgmspace.h ****                                                       \
1132:d:\program files\msys2\home\bnguy\qmk_utils\avr8-gnu-toolchain\avr\include\avr\pgmspace.h **** 			"ldi	%A0, lo8(%1)"           "\n\t"    \
1133:d:\program files\msys2\home\bnguy\qmk_utils\avr8-gnu-toolchain\avr\include\avr\pgmspace.h **** 			"ldi	%B0, hi8(%1)"           "\n\t"    \
1134:d:\program files\msys2\home\bnguy\qmk_utils\avr8-gnu-toolchain\avr\include\avr\pgmspace.h **** 			"ldi	%C0, hh8(%1)"           "\n\t"    \
1135:d:\program files\msys2\home\bnguy\qmk_utils\avr8-gnu-toolchain\avr\include\avr\pgmspace.h **** 			"clr	%D0"                    "\n\t"    \
1136:d:\program files\msys2\home\bnguy\qmk_utils\avr8-gnu-toolchain\avr\include\avr\pgmspace.h **** 		:                                             \
1137:d:\program files\msys2\home\bnguy\qmk_utils\avr8-gnu-toolchain\avr\include\avr\pgmspace.h **** 			"=d" (tmp)                                \
1138:d:\program files\msys2\home\bnguy\qmk_utils\avr8-gnu-toolchain\avr\include\avr\pgmspace.h **** 		:                                             \
1139:d:\program files\msys2\home\bnguy\qmk_utils\avr8-gnu-toolchain\avr\include\avr\pgmspace.h **** 			"p"  (&(var))                             \
1140:d:\program files\msys2\home\bnguy\qmk_utils\avr8-gnu-toolchain\avr\include\avr\pgmspace.h **** 	);                                                \
1141:d:\program files\msys2\home\bnguy\qmk_utils\avr8-gnu-toolchain\avr\include\avr\pgmspace.h **** 	tmp;                                              \
1142:d:\program files\msys2\home\bnguy\qmk_utils\avr8-gnu-toolchain\avr\include\avr\pgmspace.h **** })
1143:d:\program files\msys2\home\bnguy\qmk_utils\avr8-gnu-toolchain\avr\include\avr\pgmspace.h **** 
1144:d:\program files\msys2\home\bnguy\qmk_utils\avr8-gnu-toolchain\avr\include\avr\pgmspace.h **** 
1145:d:\program files\msys2\home\bnguy\qmk_utils\avr8-gnu-toolchain\avr\include\avr\pgmspace.h **** 
1146:d:\program files\msys2\home\bnguy\qmk_utils\avr8-gnu-toolchain\avr\include\avr\pgmspace.h **** /** \ingroup avr_pgmspace
1147:d:\program files\msys2\home\bnguy\qmk_utils\avr8-gnu-toolchain\avr\include\avr\pgmspace.h ****     \fn const void * memchr_P(const void *s, int val, size_t len)
1148:d:\program files\msys2\home\bnguy\qmk_utils\avr8-gnu-toolchain\avr\include\avr\pgmspace.h ****     \brief Scan flash memory for a character.
1149:d:\program files\msys2\home\bnguy\qmk_utils\avr8-gnu-toolchain\avr\include\avr\pgmspace.h **** 
1150:d:\program files\msys2\home\bnguy\qmk_utils\avr8-gnu-toolchain\avr\include\avr\pgmspace.h ****     The memchr_P() function scans the first \p len bytes of the flash
1151:d:\program files\msys2\home\bnguy\qmk_utils\avr8-gnu-toolchain\avr\include\avr\pgmspace.h ****     memory area pointed to by \p s for the character \p val.  The first
1152:d:\program files\msys2\home\bnguy\qmk_utils\avr8-gnu-toolchain\avr\include\avr\pgmspace.h ****     byte to match \p val (interpreted as an unsigned character) stops
1153:d:\program files\msys2\home\bnguy\qmk_utils\avr8-gnu-toolchain\avr\include\avr\pgmspace.h ****     the operation.
1154:d:\program files\msys2\home\bnguy\qmk_utils\avr8-gnu-toolchain\avr\include\avr\pgmspace.h **** 
1155:d:\program files\msys2\home\bnguy\qmk_utils\avr8-gnu-toolchain\avr\include\avr\pgmspace.h ****     \return The memchr_P() function returns a pointer to the matching
1156:d:\program files\msys2\home\bnguy\qmk_utils\avr8-gnu-toolchain\avr\include\avr\pgmspace.h ****     byte or \c NULL if the character does not occur in the given memory
1157:d:\program files\msys2\home\bnguy\qmk_utils\avr8-gnu-toolchain\avr\include\avr\pgmspace.h ****     area.	*/
1158:d:\program files\msys2\home\bnguy\qmk_utils\avr8-gnu-toolchain\avr\include\avr\pgmspace.h **** extern const void * memchr_P(const void *, int __val, size_t __len) __ATTR_CONST__;
1159:d:\program files\msys2\home\bnguy\qmk_utils\avr8-gnu-toolchain\avr\include\avr\pgmspace.h **** 
1160:d:\program files\msys2\home\bnguy\qmk_utils\avr8-gnu-toolchain\avr\include\avr\pgmspace.h **** /** \ingroup avr_pgmspace
1161:d:\program files\msys2\home\bnguy\qmk_utils\avr8-gnu-toolchain\avr\include\avr\pgmspace.h ****     \fn int memcmp_P(const void *s1, const void *s2, size_t len)
1162:d:\program files\msys2\home\bnguy\qmk_utils\avr8-gnu-toolchain\avr\include\avr\pgmspace.h ****     \brief Compare memory areas
1163:d:\program files\msys2\home\bnguy\qmk_utils\avr8-gnu-toolchain\avr\include\avr\pgmspace.h **** 
1164:d:\program files\msys2\home\bnguy\qmk_utils\avr8-gnu-toolchain\avr\include\avr\pgmspace.h ****     The memcmp_P() function compares the first \p len bytes of the memory
1165:d:\program files\msys2\home\bnguy\qmk_utils\avr8-gnu-toolchain\avr\include\avr\pgmspace.h ****     areas \p s1 and flash \p s2. The comparision is performed using unsigned
1166:d:\program files\msys2\home\bnguy\qmk_utils\avr8-gnu-toolchain\avr\include\avr\pgmspace.h ****     char operations.
1167:d:\program files\msys2\home\bnguy\qmk_utils\avr8-gnu-toolchain\avr\include\avr\pgmspace.h **** 
1168:d:\program files\msys2\home\bnguy\qmk_utils\avr8-gnu-toolchain\avr\include\avr\pgmspace.h ****     \returns The memcmp_P() function returns an integer less than, equal
1169:d:\program files\msys2\home\bnguy\qmk_utils\avr8-gnu-toolchain\avr\include\avr\pgmspace.h ****     to, or greater than zero if the first \p len bytes of \p s1 is found,
1170:d:\program files\msys2\home\bnguy\qmk_utils\avr8-gnu-toolchain\avr\include\avr\pgmspace.h ****     respectively, to be less than, to match, or be greater than the first
1171:d:\program files\msys2\home\bnguy\qmk_utils\avr8-gnu-toolchain\avr\include\avr\pgmspace.h ****     \p len bytes of \p s2.	*/
1172:d:\program files\msys2\home\bnguy\qmk_utils\avr8-gnu-toolchain\avr\include\avr\pgmspace.h **** extern int memcmp_P(const void *, const void *, size_t) __ATTR_PURE__;
1173:d:\program files\msys2\home\bnguy\qmk_utils\avr8-gnu-toolchain\avr\include\avr\pgmspace.h **** 
1174:d:\program files\msys2\home\bnguy\qmk_utils\avr8-gnu-toolchain\avr\include\avr\pgmspace.h **** /** \ingroup avr_pgmspace
1175:d:\program files\msys2\home\bnguy\qmk_utils\avr8-gnu-toolchain\avr\include\avr\pgmspace.h ****     \fn void *memccpy_P (void *dest, const void *src, int val, size_t len)
1176:d:\program files\msys2\home\bnguy\qmk_utils\avr8-gnu-toolchain\avr\include\avr\pgmspace.h **** 
1177:d:\program files\msys2\home\bnguy\qmk_utils\avr8-gnu-toolchain\avr\include\avr\pgmspace.h ****     This function is similar to memccpy() except that \p src is pointer
1178:d:\program files\msys2\home\bnguy\qmk_utils\avr8-gnu-toolchain\avr\include\avr\pgmspace.h ****     to a string in program space.	*/
1179:d:\program files\msys2\home\bnguy\qmk_utils\avr8-gnu-toolchain\avr\include\avr\pgmspace.h **** extern void *memccpy_P(void *, const void *, int __val, size_t);
1180:d:\program files\msys2\home\bnguy\qmk_utils\avr8-gnu-toolchain\avr\include\avr\pgmspace.h **** 
1181:d:\program files\msys2\home\bnguy\qmk_utils\avr8-gnu-toolchain\avr\include\avr\pgmspace.h **** /** \ingroup avr_pgmspace
1182:d:\program files\msys2\home\bnguy\qmk_utils\avr8-gnu-toolchain\avr\include\avr\pgmspace.h ****     \fn void *memcpy_P(void *dest, const void *src, size_t n)
1183:d:\program files\msys2\home\bnguy\qmk_utils\avr8-gnu-toolchain\avr\include\avr\pgmspace.h **** 
1184:d:\program files\msys2\home\bnguy\qmk_utils\avr8-gnu-toolchain\avr\include\avr\pgmspace.h ****     The memcpy_P() function is similar to memcpy(), except the src string
1185:d:\program files\msys2\home\bnguy\qmk_utils\avr8-gnu-toolchain\avr\include\avr\pgmspace.h ****     resides in program space.
1186:d:\program files\msys2\home\bnguy\qmk_utils\avr8-gnu-toolchain\avr\include\avr\pgmspace.h **** 
1187:d:\program files\msys2\home\bnguy\qmk_utils\avr8-gnu-toolchain\avr\include\avr\pgmspace.h ****     \returns The memcpy_P() function returns a pointer to dest.  */
1188:d:\program files\msys2\home\bnguy\qmk_utils\avr8-gnu-toolchain\avr\include\avr\pgmspace.h **** extern void *memcpy_P(void *, const void *, size_t);
1189:d:\program files\msys2\home\bnguy\qmk_utils\avr8-gnu-toolchain\avr\include\avr\pgmspace.h **** 
1190:d:\program files\msys2\home\bnguy\qmk_utils\avr8-gnu-toolchain\avr\include\avr\pgmspace.h **** /** \ingroup avr_pgmspace
1191:d:\program files\msys2\home\bnguy\qmk_utils\avr8-gnu-toolchain\avr\include\avr\pgmspace.h ****     \fn void *memmem_P(const void *s1, size_t len1, const void *s2, size_t len2)
1192:d:\program files\msys2\home\bnguy\qmk_utils\avr8-gnu-toolchain\avr\include\avr\pgmspace.h **** 
1193:d:\program files\msys2\home\bnguy\qmk_utils\avr8-gnu-toolchain\avr\include\avr\pgmspace.h ****     The memmem_P() function is similar to memmem() except that \p s2 is
1194:d:\program files\msys2\home\bnguy\qmk_utils\avr8-gnu-toolchain\avr\include\avr\pgmspace.h ****     pointer to a string in program space.	*/
1195:d:\program files\msys2\home\bnguy\qmk_utils\avr8-gnu-toolchain\avr\include\avr\pgmspace.h **** extern void *memmem_P(const void *, size_t, const void *, size_t) __ATTR_PURE__;
1196:d:\program files\msys2\home\bnguy\qmk_utils\avr8-gnu-toolchain\avr\include\avr\pgmspace.h **** 
1197:d:\program files\msys2\home\bnguy\qmk_utils\avr8-gnu-toolchain\avr\include\avr\pgmspace.h **** /** \ingroup avr_pgmspace
1198:d:\program files\msys2\home\bnguy\qmk_utils\avr8-gnu-toolchain\avr\include\avr\pgmspace.h ****     \fn const void +memrchr_P(const void *src, int val, size_t len)
1199:d:\program files\msys2\home\bnguy\qmk_utils\avr8-gnu-toolchain\avr\include\avr\pgmspace.h **** 
1200:d:\program files\msys2\home\bnguy\qmk_utils\avr8-gnu-toolchain\avr\include\avr\pgmspace.h ****     The memrchr_P() function is like the memchr_P() function, except
1201:d:\program files\msys2\home\bnguy\qmk_utils\avr8-gnu-toolchain\avr\include\avr\pgmspace.h ****     that it searches backwards from the end of the \p len bytes pointed
1202:d:\program files\msys2\home\bnguy\qmk_utils\avr8-gnu-toolchain\avr\include\avr\pgmspace.h ****     to by \p src instead of forwards from the front. (Glibc, GNU extension.)
1203:d:\program files\msys2\home\bnguy\qmk_utils\avr8-gnu-toolchain\avr\include\avr\pgmspace.h **** 
1204:d:\program files\msys2\home\bnguy\qmk_utils\avr8-gnu-toolchain\avr\include\avr\pgmspace.h ****     \return The memrchr_P() function returns a pointer to the matching
1205:d:\program files\msys2\home\bnguy\qmk_utils\avr8-gnu-toolchain\avr\include\avr\pgmspace.h ****     byte or \c NULL if the character does not occur in the given memory
1206:d:\program files\msys2\home\bnguy\qmk_utils\avr8-gnu-toolchain\avr\include\avr\pgmspace.h ****     area.	*/
1207:d:\program files\msys2\home\bnguy\qmk_utils\avr8-gnu-toolchain\avr\include\avr\pgmspace.h **** extern const void * memrchr_P(const void *, int __val, size_t __len) __ATTR_CONST__;
1208:d:\program files\msys2\home\bnguy\qmk_utils\avr8-gnu-toolchain\avr\include\avr\pgmspace.h **** 
1209:d:\program files\msys2\home\bnguy\qmk_utils\avr8-gnu-toolchain\avr\include\avr\pgmspace.h **** /** \ingroup avr_pgmspace
1210:d:\program files\msys2\home\bnguy\qmk_utils\avr8-gnu-toolchain\avr\include\avr\pgmspace.h ****     \fn char *strcat_P(char *dest, const char *src)
1211:d:\program files\msys2\home\bnguy\qmk_utils\avr8-gnu-toolchain\avr\include\avr\pgmspace.h **** 
1212:d:\program files\msys2\home\bnguy\qmk_utils\avr8-gnu-toolchain\avr\include\avr\pgmspace.h ****     The strcat_P() function is similar to strcat() except that the \e src
1213:d:\program files\msys2\home\bnguy\qmk_utils\avr8-gnu-toolchain\avr\include\avr\pgmspace.h ****     string must be located in program space (flash).
1214:d:\program files\msys2\home\bnguy\qmk_utils\avr8-gnu-toolchain\avr\include\avr\pgmspace.h **** 
1215:d:\program files\msys2\home\bnguy\qmk_utils\avr8-gnu-toolchain\avr\include\avr\pgmspace.h ****     \returns The strcat() function returns a pointer to the resulting string
1216:d:\program files\msys2\home\bnguy\qmk_utils\avr8-gnu-toolchain\avr\include\avr\pgmspace.h ****     \e dest. */
1217:d:\program files\msys2\home\bnguy\qmk_utils\avr8-gnu-toolchain\avr\include\avr\pgmspace.h **** extern char *strcat_P(char *, const char *);
1218:d:\program files\msys2\home\bnguy\qmk_utils\avr8-gnu-toolchain\avr\include\avr\pgmspace.h **** 
1219:d:\program files\msys2\home\bnguy\qmk_utils\avr8-gnu-toolchain\avr\include\avr\pgmspace.h **** /** \ingroup avr_pgmspace
1220:d:\program files\msys2\home\bnguy\qmk_utils\avr8-gnu-toolchain\avr\include\avr\pgmspace.h ****     \fn const char *strchr_P(const char *s, int val)
1221:d:\program files\msys2\home\bnguy\qmk_utils\avr8-gnu-toolchain\avr\include\avr\pgmspace.h ****     \brief Locate character in program space string.
1222:d:\program files\msys2\home\bnguy\qmk_utils\avr8-gnu-toolchain\avr\include\avr\pgmspace.h **** 
1223:d:\program files\msys2\home\bnguy\qmk_utils\avr8-gnu-toolchain\avr\include\avr\pgmspace.h ****     The strchr_P() function locates the first occurrence of \p val
1224:d:\program files\msys2\home\bnguy\qmk_utils\avr8-gnu-toolchain\avr\include\avr\pgmspace.h ****     (converted to a char) in the string pointed to by \p s in program
1225:d:\program files\msys2\home\bnguy\qmk_utils\avr8-gnu-toolchain\avr\include\avr\pgmspace.h ****     space. The terminating null character is considered to be part of
1226:d:\program files\msys2\home\bnguy\qmk_utils\avr8-gnu-toolchain\avr\include\avr\pgmspace.h ****     the string.
1227:d:\program files\msys2\home\bnguy\qmk_utils\avr8-gnu-toolchain\avr\include\avr\pgmspace.h **** 
1228:d:\program files\msys2\home\bnguy\qmk_utils\avr8-gnu-toolchain\avr\include\avr\pgmspace.h ****     The strchr_P() function is similar to strchr() except that \p s is
1229:d:\program files\msys2\home\bnguy\qmk_utils\avr8-gnu-toolchain\avr\include\avr\pgmspace.h ****     pointer to a string in program space.
1230:d:\program files\msys2\home\bnguy\qmk_utils\avr8-gnu-toolchain\avr\include\avr\pgmspace.h **** 
1231:d:\program files\msys2\home\bnguy\qmk_utils\avr8-gnu-toolchain\avr\include\avr\pgmspace.h ****     \returns The strchr_P() function returns a pointer to the matched
1232:d:\program files\msys2\home\bnguy\qmk_utils\avr8-gnu-toolchain\avr\include\avr\pgmspace.h ****     character or \c NULL if the character is not found. */
1233:d:\program files\msys2\home\bnguy\qmk_utils\avr8-gnu-toolchain\avr\include\avr\pgmspace.h **** extern const char * strchr_P(const char *, int __val) __ATTR_CONST__;
1234:d:\program files\msys2\home\bnguy\qmk_utils\avr8-gnu-toolchain\avr\include\avr\pgmspace.h **** 
1235:d:\program files\msys2\home\bnguy\qmk_utils\avr8-gnu-toolchain\avr\include\avr\pgmspace.h **** /** \ingroup avr_pgmspace
1236:d:\program files\msys2\home\bnguy\qmk_utils\avr8-gnu-toolchain\avr\include\avr\pgmspace.h ****     \fn const char *strchrnul_P(const char *s, int c)
1237:d:\program files\msys2\home\bnguy\qmk_utils\avr8-gnu-toolchain\avr\include\avr\pgmspace.h **** 
1238:d:\program files\msys2\home\bnguy\qmk_utils\avr8-gnu-toolchain\avr\include\avr\pgmspace.h ****     The strchrnul_P() function is like strchr_P() except that if \p c is
1239:d:\program files\msys2\home\bnguy\qmk_utils\avr8-gnu-toolchain\avr\include\avr\pgmspace.h ****     not found in \p s, then it returns a pointer to the null byte at the
1240:d:\program files\msys2\home\bnguy\qmk_utils\avr8-gnu-toolchain\avr\include\avr\pgmspace.h ****     end of \p s, rather than \c NULL. (Glibc, GNU extension.)
1241:d:\program files\msys2\home\bnguy\qmk_utils\avr8-gnu-toolchain\avr\include\avr\pgmspace.h **** 
1242:d:\program files\msys2\home\bnguy\qmk_utils\avr8-gnu-toolchain\avr\include\avr\pgmspace.h ****     \return The strchrnul_P() function returns a pointer to the matched
1243:d:\program files\msys2\home\bnguy\qmk_utils\avr8-gnu-toolchain\avr\include\avr\pgmspace.h ****     character, or a pointer to the null byte at the end of \p s (i.e.,
1244:d:\program files\msys2\home\bnguy\qmk_utils\avr8-gnu-toolchain\avr\include\avr\pgmspace.h ****     \c s+strlen(s)) if the character is not found.	*/
1245:d:\program files\msys2\home\bnguy\qmk_utils\avr8-gnu-toolchain\avr\include\avr\pgmspace.h **** extern const char * strchrnul_P(const char *, int __val) __ATTR_CONST__;
1246:d:\program files\msys2\home\bnguy\qmk_utils\avr8-gnu-toolchain\avr\include\avr\pgmspace.h **** 
1247:d:\program files\msys2\home\bnguy\qmk_utils\avr8-gnu-toolchain\avr\include\avr\pgmspace.h **** /** \ingroup avr_pgmspace
1248:d:\program files\msys2\home\bnguy\qmk_utils\avr8-gnu-toolchain\avr\include\avr\pgmspace.h ****     \fn int strcmp_P(const char *s1, const char *s2)
1249:d:\program files\msys2\home\bnguy\qmk_utils\avr8-gnu-toolchain\avr\include\avr\pgmspace.h **** 
1250:d:\program files\msys2\home\bnguy\qmk_utils\avr8-gnu-toolchain\avr\include\avr\pgmspace.h ****     The strcmp_P() function is similar to strcmp() except that \p s2 is
1251:d:\program files\msys2\home\bnguy\qmk_utils\avr8-gnu-toolchain\avr\include\avr\pgmspace.h ****     pointer to a string in program space.
1252:d:\program files\msys2\home\bnguy\qmk_utils\avr8-gnu-toolchain\avr\include\avr\pgmspace.h **** 
1253:d:\program files\msys2\home\bnguy\qmk_utils\avr8-gnu-toolchain\avr\include\avr\pgmspace.h ****     \returns The strcmp_P() function returns an integer less than, equal
1254:d:\program files\msys2\home\bnguy\qmk_utils\avr8-gnu-toolchain\avr\include\avr\pgmspace.h ****     to, or greater than zero if \p s1 is found, respectively, to be less
1255:d:\program files\msys2\home\bnguy\qmk_utils\avr8-gnu-toolchain\avr\include\avr\pgmspace.h ****     than, to match, or be greater than \p s2. A consequence of the
1256:d:\program files\msys2\home\bnguy\qmk_utils\avr8-gnu-toolchain\avr\include\avr\pgmspace.h ****     ordering used by strcmp_P() is that if \p s1 is an initial substring
1257:d:\program files\msys2\home\bnguy\qmk_utils\avr8-gnu-toolchain\avr\include\avr\pgmspace.h ****     of \p s2, then \p s1 is considered to be "less than" \p s2. */
1258:d:\program files\msys2\home\bnguy\qmk_utils\avr8-gnu-toolchain\avr\include\avr\pgmspace.h **** extern int strcmp_P(const char *, const char *) __ATTR_PURE__;
1259:d:\program files\msys2\home\bnguy\qmk_utils\avr8-gnu-toolchain\avr\include\avr\pgmspace.h **** 
1260:d:\program files\msys2\home\bnguy\qmk_utils\avr8-gnu-toolchain\avr\include\avr\pgmspace.h **** /** \ingroup avr_pgmspace
1261:d:\program files\msys2\home\bnguy\qmk_utils\avr8-gnu-toolchain\avr\include\avr\pgmspace.h ****     \fn char *strcpy_P(char *dest, const char *src)
1262:d:\program files\msys2\home\bnguy\qmk_utils\avr8-gnu-toolchain\avr\include\avr\pgmspace.h **** 
1263:d:\program files\msys2\home\bnguy\qmk_utils\avr8-gnu-toolchain\avr\include\avr\pgmspace.h ****     The strcpy_P() function is similar to strcpy() except that src is a
1264:d:\program files\msys2\home\bnguy\qmk_utils\avr8-gnu-toolchain\avr\include\avr\pgmspace.h ****     pointer to a string in program space.
1265:d:\program files\msys2\home\bnguy\qmk_utils\avr8-gnu-toolchain\avr\include\avr\pgmspace.h **** 
1266:d:\program files\msys2\home\bnguy\qmk_utils\avr8-gnu-toolchain\avr\include\avr\pgmspace.h ****     \returns The strcpy_P() function returns a pointer to the destination
1267:d:\program files\msys2\home\bnguy\qmk_utils\avr8-gnu-toolchain\avr\include\avr\pgmspace.h ****     string dest. */
1268:d:\program files\msys2\home\bnguy\qmk_utils\avr8-gnu-toolchain\avr\include\avr\pgmspace.h **** extern char *strcpy_P(char *, const char *);
1269:d:\program files\msys2\home\bnguy\qmk_utils\avr8-gnu-toolchain\avr\include\avr\pgmspace.h **** 
1270:d:\program files\msys2\home\bnguy\qmk_utils\avr8-gnu-toolchain\avr\include\avr\pgmspace.h **** /** \ingroup avr_pgmspace
1271:d:\program files\msys2\home\bnguy\qmk_utils\avr8-gnu-toolchain\avr\include\avr\pgmspace.h ****     \fn int strcasecmp_P(const char *s1, const char *s2)
1272:d:\program files\msys2\home\bnguy\qmk_utils\avr8-gnu-toolchain\avr\include\avr\pgmspace.h ****     \brief Compare two strings ignoring case.
1273:d:\program files\msys2\home\bnguy\qmk_utils\avr8-gnu-toolchain\avr\include\avr\pgmspace.h **** 
1274:d:\program files\msys2\home\bnguy\qmk_utils\avr8-gnu-toolchain\avr\include\avr\pgmspace.h ****     The strcasecmp_P() function compares the two strings \p s1 and \p s2,
1275:d:\program files\msys2\home\bnguy\qmk_utils\avr8-gnu-toolchain\avr\include\avr\pgmspace.h ****     ignoring the case of the characters.
1276:d:\program files\msys2\home\bnguy\qmk_utils\avr8-gnu-toolchain\avr\include\avr\pgmspace.h **** 
1277:d:\program files\msys2\home\bnguy\qmk_utils\avr8-gnu-toolchain\avr\include\avr\pgmspace.h ****     \param s1 A pointer to a string in the devices SRAM.
1278:d:\program files\msys2\home\bnguy\qmk_utils\avr8-gnu-toolchain\avr\include\avr\pgmspace.h ****     \param s2 A pointer to a string in the devices Flash.
1279:d:\program files\msys2\home\bnguy\qmk_utils\avr8-gnu-toolchain\avr\include\avr\pgmspace.h **** 
1280:d:\program files\msys2\home\bnguy\qmk_utils\avr8-gnu-toolchain\avr\include\avr\pgmspace.h ****     \returns The strcasecmp_P() function returns an integer less than,
1281:d:\program files\msys2\home\bnguy\qmk_utils\avr8-gnu-toolchain\avr\include\avr\pgmspace.h ****     equal to, or greater than zero if \p s1 is found, respectively, to
1282:d:\program files\msys2\home\bnguy\qmk_utils\avr8-gnu-toolchain\avr\include\avr\pgmspace.h ****     be less than, to match, or be greater than \p s2. A consequence of
1283:d:\program files\msys2\home\bnguy\qmk_utils\avr8-gnu-toolchain\avr\include\avr\pgmspace.h ****     the ordering used by strcasecmp_P() is that if \p s1 is an initial
1284:d:\program files\msys2\home\bnguy\qmk_utils\avr8-gnu-toolchain\avr\include\avr\pgmspace.h ****     substring of \p s2, then \p s1 is considered to be "less than" \p s2. */
1285:d:\program files\msys2\home\bnguy\qmk_utils\avr8-gnu-toolchain\avr\include\avr\pgmspace.h **** extern int strcasecmp_P(const char *, const char *) __ATTR_PURE__;
1286:d:\program files\msys2\home\bnguy\qmk_utils\avr8-gnu-toolchain\avr\include\avr\pgmspace.h **** 
1287:d:\program files\msys2\home\bnguy\qmk_utils\avr8-gnu-toolchain\avr\include\avr\pgmspace.h **** /** \ingroup avr_pgmspace
1288:d:\program files\msys2\home\bnguy\qmk_utils\avr8-gnu-toolchain\avr\include\avr\pgmspace.h ****     \fn char *strcasestr_P(const char *s1, const char *s2)
1289:d:\program files\msys2\home\bnguy\qmk_utils\avr8-gnu-toolchain\avr\include\avr\pgmspace.h **** 
1290:d:\program files\msys2\home\bnguy\qmk_utils\avr8-gnu-toolchain\avr\include\avr\pgmspace.h ****     This funtion is similar to strcasestr() except that \p s2 is pointer
1291:d:\program files\msys2\home\bnguy\qmk_utils\avr8-gnu-toolchain\avr\include\avr\pgmspace.h ****     to a string in program space.	*/
1292:d:\program files\msys2\home\bnguy\qmk_utils\avr8-gnu-toolchain\avr\include\avr\pgmspace.h **** extern char *strcasestr_P(const char *, const char *) __ATTR_PURE__;
1293:d:\program files\msys2\home\bnguy\qmk_utils\avr8-gnu-toolchain\avr\include\avr\pgmspace.h **** 
1294:d:\program files\msys2\home\bnguy\qmk_utils\avr8-gnu-toolchain\avr\include\avr\pgmspace.h **** /** \ingroup avr_pgmspace
1295:d:\program files\msys2\home\bnguy\qmk_utils\avr8-gnu-toolchain\avr\include\avr\pgmspace.h ****     \fn size_t strcspn_P(const char *s, const char *reject)
1296:d:\program files\msys2\home\bnguy\qmk_utils\avr8-gnu-toolchain\avr\include\avr\pgmspace.h **** 
1297:d:\program files\msys2\home\bnguy\qmk_utils\avr8-gnu-toolchain\avr\include\avr\pgmspace.h ****     The strcspn_P() function calculates the length of the initial segment
1298:d:\program files\msys2\home\bnguy\qmk_utils\avr8-gnu-toolchain\avr\include\avr\pgmspace.h ****     of \p s which consists entirely of characters not in \p reject. This
1299:d:\program files\msys2\home\bnguy\qmk_utils\avr8-gnu-toolchain\avr\include\avr\pgmspace.h ****     function is similar to strcspn() except that \p reject is a pointer
1300:d:\program files\msys2\home\bnguy\qmk_utils\avr8-gnu-toolchain\avr\include\avr\pgmspace.h ****     to a string in program space.
1301:d:\program files\msys2\home\bnguy\qmk_utils\avr8-gnu-toolchain\avr\include\avr\pgmspace.h **** 
1302:d:\program files\msys2\home\bnguy\qmk_utils\avr8-gnu-toolchain\avr\include\avr\pgmspace.h ****     \return The strcspn_P() function returns the number of characters in
1303:d:\program files\msys2\home\bnguy\qmk_utils\avr8-gnu-toolchain\avr\include\avr\pgmspace.h ****     the initial segment of \p s which are not in the string \p reject.
1304:d:\program files\msys2\home\bnguy\qmk_utils\avr8-gnu-toolchain\avr\include\avr\pgmspace.h ****     The terminating zero is not considered as a part of string.	*/
1305:d:\program files\msys2\home\bnguy\qmk_utils\avr8-gnu-toolchain\avr\include\avr\pgmspace.h **** extern size_t strcspn_P(const char *__s, const char * __reject) __ATTR_PURE__;
1306:d:\program files\msys2\home\bnguy\qmk_utils\avr8-gnu-toolchain\avr\include\avr\pgmspace.h **** 
1307:d:\program files\msys2\home\bnguy\qmk_utils\avr8-gnu-toolchain\avr\include\avr\pgmspace.h **** /** \ingroup avr_pgmspace
1308:d:\program files\msys2\home\bnguy\qmk_utils\avr8-gnu-toolchain\avr\include\avr\pgmspace.h ****     \fn size_t strlcat_P(char *dst, const char *src, size_t siz)
1309:d:\program files\msys2\home\bnguy\qmk_utils\avr8-gnu-toolchain\avr\include\avr\pgmspace.h ****     \brief Concatenate two strings.
1310:d:\program files\msys2\home\bnguy\qmk_utils\avr8-gnu-toolchain\avr\include\avr\pgmspace.h **** 
1311:d:\program files\msys2\home\bnguy\qmk_utils\avr8-gnu-toolchain\avr\include\avr\pgmspace.h ****     The strlcat_P() function is similar to strlcat(), except that the \p src
1312:d:\program files\msys2\home\bnguy\qmk_utils\avr8-gnu-toolchain\avr\include\avr\pgmspace.h ****     string must be located in program space (flash).
1313:d:\program files\msys2\home\bnguy\qmk_utils\avr8-gnu-toolchain\avr\include\avr\pgmspace.h **** 
1314:d:\program files\msys2\home\bnguy\qmk_utils\avr8-gnu-toolchain\avr\include\avr\pgmspace.h ****     Appends \p src to string \p dst of size \p siz (unlike strncat(),
1315:d:\program files\msys2\home\bnguy\qmk_utils\avr8-gnu-toolchain\avr\include\avr\pgmspace.h ****     \p siz is the full size of \p dst, not space left).  At most \p siz-1
1316:d:\program files\msys2\home\bnguy\qmk_utils\avr8-gnu-toolchain\avr\include\avr\pgmspace.h ****     characters will be copied.  Always NULL terminates (unless \p siz <=
1317:d:\program files\msys2\home\bnguy\qmk_utils\avr8-gnu-toolchain\avr\include\avr\pgmspace.h ****     \p strlen(dst)).
1318:d:\program files\msys2\home\bnguy\qmk_utils\avr8-gnu-toolchain\avr\include\avr\pgmspace.h **** 
1319:d:\program files\msys2\home\bnguy\qmk_utils\avr8-gnu-toolchain\avr\include\avr\pgmspace.h ****     \returns The strlcat_P() function returns strlen(src) + MIN(siz,
1320:d:\program files\msys2\home\bnguy\qmk_utils\avr8-gnu-toolchain\avr\include\avr\pgmspace.h ****     strlen(initial dst)).  If retval >= siz, truncation occurred.	*/
1321:d:\program files\msys2\home\bnguy\qmk_utils\avr8-gnu-toolchain\avr\include\avr\pgmspace.h **** extern size_t strlcat_P (char *, const char *, size_t );
1322:d:\program files\msys2\home\bnguy\qmk_utils\avr8-gnu-toolchain\avr\include\avr\pgmspace.h **** 
1323:d:\program files\msys2\home\bnguy\qmk_utils\avr8-gnu-toolchain\avr\include\avr\pgmspace.h **** /** \ingroup avr_pgmspace
1324:d:\program files\msys2\home\bnguy\qmk_utils\avr8-gnu-toolchain\avr\include\avr\pgmspace.h ****     \fn size_t strlcpy_P(char *dst, const char *src, size_t siz)
1325:d:\program files\msys2\home\bnguy\qmk_utils\avr8-gnu-toolchain\avr\include\avr\pgmspace.h ****     \brief Copy a string from progmem to RAM.
1326:d:\program files\msys2\home\bnguy\qmk_utils\avr8-gnu-toolchain\avr\include\avr\pgmspace.h **** 
1327:d:\program files\msys2\home\bnguy\qmk_utils\avr8-gnu-toolchain\avr\include\avr\pgmspace.h ****     Copy \p src to string \p dst of size \p siz.  At most \p siz-1
1328:d:\program files\msys2\home\bnguy\qmk_utils\avr8-gnu-toolchain\avr\include\avr\pgmspace.h ****     characters will be copied.  Always NULL terminates (unless \p siz == 0).
1329:d:\program files\msys2\home\bnguy\qmk_utils\avr8-gnu-toolchain\avr\include\avr\pgmspace.h ****     The strlcpy_P() function is similar to strlcpy() except that the
1330:d:\program files\msys2\home\bnguy\qmk_utils\avr8-gnu-toolchain\avr\include\avr\pgmspace.h ****     \p src is pointer to a string in memory space.
1331:d:\program files\msys2\home\bnguy\qmk_utils\avr8-gnu-toolchain\avr\include\avr\pgmspace.h **** 
1332:d:\program files\msys2\home\bnguy\qmk_utils\avr8-gnu-toolchain\avr\include\avr\pgmspace.h ****     \returns The strlcpy_P() function returns strlen(src). If
1333:d:\program files\msys2\home\bnguy\qmk_utils\avr8-gnu-toolchain\avr\include\avr\pgmspace.h ****     retval >= siz, truncation occurred.  */
1334:d:\program files\msys2\home\bnguy\qmk_utils\avr8-gnu-toolchain\avr\include\avr\pgmspace.h **** extern size_t strlcpy_P (char *, const char *, size_t );
1335:d:\program files\msys2\home\bnguy\qmk_utils\avr8-gnu-toolchain\avr\include\avr\pgmspace.h **** 
1336:d:\program files\msys2\home\bnguy\qmk_utils\avr8-gnu-toolchain\avr\include\avr\pgmspace.h **** /** \ingroup avr_pgmspace
1337:d:\program files\msys2\home\bnguy\qmk_utils\avr8-gnu-toolchain\avr\include\avr\pgmspace.h ****     \fn size_t strnlen_P(const char *src, size_t len)
1338:d:\program files\msys2\home\bnguy\qmk_utils\avr8-gnu-toolchain\avr\include\avr\pgmspace.h ****     \brief Determine the length of a fixed-size string.
1339:d:\program files\msys2\home\bnguy\qmk_utils\avr8-gnu-toolchain\avr\include\avr\pgmspace.h **** 
1340:d:\program files\msys2\home\bnguy\qmk_utils\avr8-gnu-toolchain\avr\include\avr\pgmspace.h ****     The strnlen_P() function is similar to strnlen(), except that \c src is a
1341:d:\program files\msys2\home\bnguy\qmk_utils\avr8-gnu-toolchain\avr\include\avr\pgmspace.h ****     pointer to a string in program space.
1342:d:\program files\msys2\home\bnguy\qmk_utils\avr8-gnu-toolchain\avr\include\avr\pgmspace.h **** 
1343:d:\program files\msys2\home\bnguy\qmk_utils\avr8-gnu-toolchain\avr\include\avr\pgmspace.h ****     \returns The strnlen_P function returns strlen_P(src), if that is less than
1344:d:\program files\msys2\home\bnguy\qmk_utils\avr8-gnu-toolchain\avr\include\avr\pgmspace.h ****     \c len, or \c len if there is no '\\0' character among the first \c len
1345:d:\program files\msys2\home\bnguy\qmk_utils\avr8-gnu-toolchain\avr\include\avr\pgmspace.h ****     characters pointed to by \c src. */
1346:d:\program files\msys2\home\bnguy\qmk_utils\avr8-gnu-toolchain\avr\include\avr\pgmspace.h **** extern size_t strnlen_P(const char *, size_t) __ATTR_CONST__; /* program memory can't change */
1347:d:\program files\msys2\home\bnguy\qmk_utils\avr8-gnu-toolchain\avr\include\avr\pgmspace.h **** 
1348:d:\program files\msys2\home\bnguy\qmk_utils\avr8-gnu-toolchain\avr\include\avr\pgmspace.h **** /** \ingroup avr_pgmspace
1349:d:\program files\msys2\home\bnguy\qmk_utils\avr8-gnu-toolchain\avr\include\avr\pgmspace.h ****     \fn int strncmp_P(const char *s1, const char *s2, size_t n)
1350:d:\program files\msys2\home\bnguy\qmk_utils\avr8-gnu-toolchain\avr\include\avr\pgmspace.h **** 
1351:d:\program files\msys2\home\bnguy\qmk_utils\avr8-gnu-toolchain\avr\include\avr\pgmspace.h ****     The strncmp_P() function is similar to strcmp_P() except it only compares
1352:d:\program files\msys2\home\bnguy\qmk_utils\avr8-gnu-toolchain\avr\include\avr\pgmspace.h ****     the first (at most) n characters of s1 and s2.
1353:d:\program files\msys2\home\bnguy\qmk_utils\avr8-gnu-toolchain\avr\include\avr\pgmspace.h **** 
1354:d:\program files\msys2\home\bnguy\qmk_utils\avr8-gnu-toolchain\avr\include\avr\pgmspace.h ****     \returns The strncmp_P() function returns an integer less than, equal to,
1355:d:\program files\msys2\home\bnguy\qmk_utils\avr8-gnu-toolchain\avr\include\avr\pgmspace.h ****     or greater than zero if s1 (or the first n bytes thereof) is found,
1356:d:\program files\msys2\home\bnguy\qmk_utils\avr8-gnu-toolchain\avr\include\avr\pgmspace.h ****     respectively, to be less than, to match, or be greater than s2.  */
1357:d:\program files\msys2\home\bnguy\qmk_utils\avr8-gnu-toolchain\avr\include\avr\pgmspace.h **** extern int strncmp_P(const char *, const char *, size_t) __ATTR_PURE__;
1358:d:\program files\msys2\home\bnguy\qmk_utils\avr8-gnu-toolchain\avr\include\avr\pgmspace.h **** 
1359:d:\program files\msys2\home\bnguy\qmk_utils\avr8-gnu-toolchain\avr\include\avr\pgmspace.h **** /** \ingroup avr_pgmspace
1360:d:\program files\msys2\home\bnguy\qmk_utils\avr8-gnu-toolchain\avr\include\avr\pgmspace.h ****     \fn int strncasecmp_P(const char *s1, const char *s2, size_t n)
1361:d:\program files\msys2\home\bnguy\qmk_utils\avr8-gnu-toolchain\avr\include\avr\pgmspace.h ****     \brief Compare two strings ignoring case.
1362:d:\program files\msys2\home\bnguy\qmk_utils\avr8-gnu-toolchain\avr\include\avr\pgmspace.h **** 
1363:d:\program files\msys2\home\bnguy\qmk_utils\avr8-gnu-toolchain\avr\include\avr\pgmspace.h ****     The strncasecmp_P() function is similar to strcasecmp_P(), except it
1364:d:\program files\msys2\home\bnguy\qmk_utils\avr8-gnu-toolchain\avr\include\avr\pgmspace.h ****     only compares the first \p n characters of \p s1.
1365:d:\program files\msys2\home\bnguy\qmk_utils\avr8-gnu-toolchain\avr\include\avr\pgmspace.h **** 
1366:d:\program files\msys2\home\bnguy\qmk_utils\avr8-gnu-toolchain\avr\include\avr\pgmspace.h ****     \param s1 A pointer to a string in the devices SRAM.
1367:d:\program files\msys2\home\bnguy\qmk_utils\avr8-gnu-toolchain\avr\include\avr\pgmspace.h ****     \param s2 A pointer to a string in the devices Flash.
1368:d:\program files\msys2\home\bnguy\qmk_utils\avr8-gnu-toolchain\avr\include\avr\pgmspace.h ****     \param n The maximum number of bytes to compare.
1369:d:\program files\msys2\home\bnguy\qmk_utils\avr8-gnu-toolchain\avr\include\avr\pgmspace.h **** 
1370:d:\program files\msys2\home\bnguy\qmk_utils\avr8-gnu-toolchain\avr\include\avr\pgmspace.h ****     \returns The strncasecmp_P() function returns an integer less than,
1371:d:\program files\msys2\home\bnguy\qmk_utils\avr8-gnu-toolchain\avr\include\avr\pgmspace.h ****     equal to, or greater than zero if \p s1 (or the first \p n bytes
1372:d:\program files\msys2\home\bnguy\qmk_utils\avr8-gnu-toolchain\avr\include\avr\pgmspace.h ****     thereof) is found, respectively, to be less than, to match, or be
1373:d:\program files\msys2\home\bnguy\qmk_utils\avr8-gnu-toolchain\avr\include\avr\pgmspace.h ****     greater than \p s2. A consequence of the ordering used by
1374:d:\program files\msys2\home\bnguy\qmk_utils\avr8-gnu-toolchain\avr\include\avr\pgmspace.h ****     strncasecmp_P() is that if \p s1 is an initial substring of \p s2,
1375:d:\program files\msys2\home\bnguy\qmk_utils\avr8-gnu-toolchain\avr\include\avr\pgmspace.h ****     then \p s1 is considered to be "less than" \p s2.  */
1376:d:\program files\msys2\home\bnguy\qmk_utils\avr8-gnu-toolchain\avr\include\avr\pgmspace.h **** extern int strncasecmp_P(const char *, const char *, size_t) __ATTR_PURE__;
1377:d:\program files\msys2\home\bnguy\qmk_utils\avr8-gnu-toolchain\avr\include\avr\pgmspace.h **** 
1378:d:\program files\msys2\home\bnguy\qmk_utils\avr8-gnu-toolchain\avr\include\avr\pgmspace.h **** /** \ingroup avr_pgmspace
