   1               		.file	"process_space_cadet.c"
   2               	__SP_H__ = 0x3e
   3               	__SP_L__ = 0x3d
   4               	__SREG__ = 0x3f
   5               	__tmp_reg__ = 0
   6               	__zero_reg__ = 1
   7               		.text
   8               	.Ltext0:
   9               		.cfi_sections	.debug_frame
  10               		.section	.text.perform_space_cadet,"ax",@progbits
  11               	.global	perform_space_cadet
  13               	perform_space_cadet:
  14               	.LFB111:
  15               		.file 1 "quantum/process_keycode/process_space_cadet.c"
   1:quantum/process_keycode/process_space_cadet.c **** /* Copyright 2019 Jack Humbert
   2:quantum/process_keycode/process_space_cadet.c ****  *
   3:quantum/process_keycode/process_space_cadet.c ****  * This program is free software: you can redistribute it and/or modify
   4:quantum/process_keycode/process_space_cadet.c ****  * it under the terms of the GNU General Public License as published by
   5:quantum/process_keycode/process_space_cadet.c ****  * the Free Software Foundation, either version 2 of the License, or
   6:quantum/process_keycode/process_space_cadet.c ****  * (at your option) any later version.
   7:quantum/process_keycode/process_space_cadet.c ****  *
   8:quantum/process_keycode/process_space_cadet.c ****  * This program is distributed in the hope that it will be useful,
   9:quantum/process_keycode/process_space_cadet.c ****  * but WITHOUT ANY WARRANTY; without even the implied warranty of
  10:quantum/process_keycode/process_space_cadet.c ****  * MERCHANTABILITY or FITNESS FOR A PARTICULAR PURPOSE.  See the
  11:quantum/process_keycode/process_space_cadet.c ****  * GNU General Public License for more details.
  12:quantum/process_keycode/process_space_cadet.c ****  *
  13:quantum/process_keycode/process_space_cadet.c ****  * You should have received a copy of the GNU General Public License
  14:quantum/process_keycode/process_space_cadet.c ****  * along with this program.  If not, see <http://www.gnu.org/licenses/>.
  15:quantum/process_keycode/process_space_cadet.c ****  */
  16:quantum/process_keycode/process_space_cadet.c **** #include "process_space_cadet.h"
  17:quantum/process_keycode/process_space_cadet.c **** 
  18:quantum/process_keycode/process_space_cadet.c **** #ifndef TAPPING_TERM
  19:quantum/process_keycode/process_space_cadet.c ****   #define TAPPING_TERM 200
  20:quantum/process_keycode/process_space_cadet.c **** #endif
  21:quantum/process_keycode/process_space_cadet.c **** 
  22:quantum/process_keycode/process_space_cadet.c **** // ********** OBSOLETE DEFINES, STOP USING! (pls?) **********
  23:quantum/process_keycode/process_space_cadet.c **** // Shift / paren setup
  24:quantum/process_keycode/process_space_cadet.c **** #ifndef LSPO_KEY
  25:quantum/process_keycode/process_space_cadet.c ****   #define LSPO_KEY KC_9
  26:quantum/process_keycode/process_space_cadet.c **** #endif
  27:quantum/process_keycode/process_space_cadet.c **** #ifndef RSPC_KEY
  28:quantum/process_keycode/process_space_cadet.c ****   #define RSPC_KEY KC_0
  29:quantum/process_keycode/process_space_cadet.c **** #endif
  30:quantum/process_keycode/process_space_cadet.c **** 
  31:quantum/process_keycode/process_space_cadet.c **** // Shift / Enter setup
  32:quantum/process_keycode/process_space_cadet.c **** #ifndef SFTENT_KEY
  33:quantum/process_keycode/process_space_cadet.c ****   #define SFTENT_KEY KC_ENT
  34:quantum/process_keycode/process_space_cadet.c **** #endif
  35:quantum/process_keycode/process_space_cadet.c **** 
  36:quantum/process_keycode/process_space_cadet.c **** #ifdef DISABLE_SPACE_CADET_MODIFIER
  37:quantum/process_keycode/process_space_cadet.c ****   #ifndef LSPO_MOD
  38:quantum/process_keycode/process_space_cadet.c ****     #define LSPO_MOD KC_TRNS
  39:quantum/process_keycode/process_space_cadet.c ****   #endif
  40:quantum/process_keycode/process_space_cadet.c ****   #ifndef RSPC_MOD
  41:quantum/process_keycode/process_space_cadet.c ****     #define RSPC_MOD KC_TRNS
  42:quantum/process_keycode/process_space_cadet.c ****   #endif
  43:quantum/process_keycode/process_space_cadet.c **** #else
  44:quantum/process_keycode/process_space_cadet.c ****   #ifndef LSPO_MOD
  45:quantum/process_keycode/process_space_cadet.c ****     #define LSPO_MOD KC_LSFT
  46:quantum/process_keycode/process_space_cadet.c ****   #endif
  47:quantum/process_keycode/process_space_cadet.c ****   #ifndef RSPC_MOD
  48:quantum/process_keycode/process_space_cadet.c ****     #define RSPC_MOD KC_RSFT
  49:quantum/process_keycode/process_space_cadet.c ****   #endif
  50:quantum/process_keycode/process_space_cadet.c **** #endif
  51:quantum/process_keycode/process_space_cadet.c **** // **********************************************************
  52:quantum/process_keycode/process_space_cadet.c **** 
  53:quantum/process_keycode/process_space_cadet.c **** // Shift / paren setup
  54:quantum/process_keycode/process_space_cadet.c **** #ifndef LSPO_KEYS
  55:quantum/process_keycode/process_space_cadet.c ****   #define LSPO_KEYS KC_LSFT, LSPO_MOD, LSPO_KEY
  56:quantum/process_keycode/process_space_cadet.c **** #endif
  57:quantum/process_keycode/process_space_cadet.c **** #ifndef RSPC_KEYS
  58:quantum/process_keycode/process_space_cadet.c ****   #define RSPC_KEYS KC_RSFT, RSPC_MOD, RSPC_KEY
  59:quantum/process_keycode/process_space_cadet.c **** #endif
  60:quantum/process_keycode/process_space_cadet.c **** 
  61:quantum/process_keycode/process_space_cadet.c **** // Control / paren setup
  62:quantum/process_keycode/process_space_cadet.c **** #ifndef LCPO_KEYS
  63:quantum/process_keycode/process_space_cadet.c ****   #define LCPO_KEYS KC_LCTL, KC_LSFT, KC_9
  64:quantum/process_keycode/process_space_cadet.c **** #endif
  65:quantum/process_keycode/process_space_cadet.c **** #ifndef RCPC_KEYS
  66:quantum/process_keycode/process_space_cadet.c ****   #define RCPC_KEYS KC_RCTL, KC_RSFT, KC_0
  67:quantum/process_keycode/process_space_cadet.c **** #endif
  68:quantum/process_keycode/process_space_cadet.c **** 
  69:quantum/process_keycode/process_space_cadet.c **** // Alt / paren setup
  70:quantum/process_keycode/process_space_cadet.c **** #ifndef LAPO_KEYS
  71:quantum/process_keycode/process_space_cadet.c ****   #define LAPO_KEYS KC_LALT, KC_LSFT, KC_9
  72:quantum/process_keycode/process_space_cadet.c **** #endif
  73:quantum/process_keycode/process_space_cadet.c **** #ifndef RAPC_KEYS
  74:quantum/process_keycode/process_space_cadet.c ****   #define RAPC_KEYS KC_RALT, KC_RSFT, KC_0
  75:quantum/process_keycode/process_space_cadet.c **** #endif
  76:quantum/process_keycode/process_space_cadet.c **** 
  77:quantum/process_keycode/process_space_cadet.c **** // Shift / Enter setup
  78:quantum/process_keycode/process_space_cadet.c **** #ifndef SFTENT_KEYS
  79:quantum/process_keycode/process_space_cadet.c ****   #define SFTENT_KEYS KC_RSFT, KC_TRNS, SFTENT_KEY
  80:quantum/process_keycode/process_space_cadet.c **** #endif
  81:quantum/process_keycode/process_space_cadet.c **** 
  82:quantum/process_keycode/process_space_cadet.c **** static uint8_t sc_last = 0;
  83:quantum/process_keycode/process_space_cadet.c **** static uint16_t sc_timer = 0;
  84:quantum/process_keycode/process_space_cadet.c **** 
  85:quantum/process_keycode/process_space_cadet.c **** void perform_space_cadet(keyrecord_t *record, uint8_t holdMod, uint8_t tapMod, uint8_t keycode) {
  16               		.loc 1 85 0
  17               		.cfi_startproc
  18               	.LVL0:
  19 0000 0F93      		push r16
  20               	.LCFI0:
  21               		.cfi_def_cfa_offset 3
  22               		.cfi_offset 16, -2
  23 0002 1F93      		push r17
  24               	.LCFI1:
  25               		.cfi_def_cfa_offset 4
  26               		.cfi_offset 17, -3
  27 0004 CF93      		push r28
  28               	.LCFI2:
  29               		.cfi_def_cfa_offset 5
  30               		.cfi_offset 28, -4
  31 0006 DF93      		push r29
  32               	.LCFI3:
  33               		.cfi_def_cfa_offset 6
  34               		.cfi_offset 29, -5
  35               	/* prologue: function */
  36               	/* frame size = 0 */
  37               	/* stack size = 4 */
  38               	.L__stack_usage = 4
  39 0008 C62F      		mov r28,r22
  40 000a D42F      		mov r29,r20
  41 000c 122F      		mov r17,r18
  86:quantum/process_keycode/process_space_cadet.c ****   if (record->event.pressed) {
  42               		.loc 1 86 0
  43 000e FC01      		movw r30,r24
  44 0010 8281      		ldd r24,Z+2
  45               	.LVL1:
  46 0012 8823      		tst r24
  47 0014 01F0      		breq .L2
  87:quantum/process_keycode/process_space_cadet.c ****     sc_last = holdMod;
  48               		.loc 1 87 0
  49 0016 6093 0000 		sts sc_last,r22
  88:quantum/process_keycode/process_space_cadet.c ****     sc_timer = timer_read ();
  50               		.loc 1 88 0
  51 001a 0E94 0000 		call timer_read
  52               	.LVL2:
  53 001e 9093 0000 		sts sc_timer+1,r25
  54 0022 8093 0000 		sts sc_timer,r24
  89:quantum/process_keycode/process_space_cadet.c ****     if (IS_MOD(holdMod)) {
  55               		.loc 1 89 0
  56 0026 80E2      		ldi r24,lo8(32)
  57 0028 8C0F      		add r24,r28
  58 002a 8830      		cpi r24,lo8(8)
  59 002c 00F0      		brlo .+2
  60 002e 00C0      		rjmp .L1
  90:quantum/process_keycode/process_space_cadet.c ****       register_mods(MOD_BIT(holdMod));
  61               		.loc 1 90 0
  62 0030 C770      		andi r28,lo8(7)
  63               	.LVL3:
  64 0032 81E0      		ldi r24,lo8(1)
  65 0034 00C0      		rjmp 2f
  66               		1:
  67 0036 880F      		lsl r24
  68               		2:
  69 0038 CA95      		dec r28
  70 003a 02F4      		brpl 1b
  71               	/* epilogue start */
  91:quantum/process_keycode/process_space_cadet.c ****     }
  92:quantum/process_keycode/process_space_cadet.c ****   }
  93:quantum/process_keycode/process_space_cadet.c ****   else {
  94:quantum/process_keycode/process_space_cadet.c ****     if (sc_last == holdMod && timer_elapsed(sc_timer) < TAPPING_TERM) {
  95:quantum/process_keycode/process_space_cadet.c ****       if (holdMod != tapMod) {
  96:quantum/process_keycode/process_space_cadet.c ****         if (IS_MOD(holdMod)) {
  97:quantum/process_keycode/process_space_cadet.c ****           unregister_mods(MOD_BIT(holdMod));
  98:quantum/process_keycode/process_space_cadet.c ****         }
  99:quantum/process_keycode/process_space_cadet.c ****         if (IS_MOD(tapMod)) {
 100:quantum/process_keycode/process_space_cadet.c ****           register_mods(MOD_BIT(tapMod));
 101:quantum/process_keycode/process_space_cadet.c ****         }
 102:quantum/process_keycode/process_space_cadet.c ****       }
 103:quantum/process_keycode/process_space_cadet.c ****       tap_code(keycode);
 104:quantum/process_keycode/process_space_cadet.c ****       if (IS_MOD(tapMod)) {
 105:quantum/process_keycode/process_space_cadet.c ****         unregister_mods(MOD_BIT(tapMod));
 106:quantum/process_keycode/process_space_cadet.c ****       }
 107:quantum/process_keycode/process_space_cadet.c ****     } else {
 108:quantum/process_keycode/process_space_cadet.c ****       if (IS_MOD(holdMod)) {
 109:quantum/process_keycode/process_space_cadet.c ****         unregister_mods(MOD_BIT(holdMod));
 110:quantum/process_keycode/process_space_cadet.c ****       }
 111:quantum/process_keycode/process_space_cadet.c ****     }
 112:quantum/process_keycode/process_space_cadet.c ****   }
 113:quantum/process_keycode/process_space_cadet.c **** }
  72               		.loc 1 113 0
  73 003c DF91      		pop r29
  74               	.LVL4:
  75 003e CF91      		pop r28
  76 0040 1F91      		pop r17
  77               	.LVL5:
  78 0042 0F91      		pop r16
  90:quantum/process_keycode/process_space_cadet.c ****       register_mods(MOD_BIT(holdMod));
  79               		.loc 1 90 0
  80 0044 0C94 0000 		jmp register_mods
  81               	.LVL6:
  82               	.L2:
  94:quantum/process_keycode/process_space_cadet.c ****       if (holdMod != tapMod) {
  83               		.loc 1 94 0
  84 0048 8091 0000 		lds r24,sc_last
  85 004c 6813      		cpse r22,r24
  86 004e 00C0      		rjmp .L5
  94:quantum/process_keycode/process_space_cadet.c ****       if (holdMod != tapMod) {
  87               		.loc 1 94 0 is_stmt 0 discriminator 1
  88 0050 8091 0000 		lds r24,sc_timer
  89 0054 9091 0000 		lds r25,sc_timer+1
  90 0058 0E94 0000 		call timer_elapsed
  91               	.LVL7:
  92 005c 883C      		cpi r24,-56
  93 005e 9105      		cpc r25,__zero_reg__
  94 0060 00F4      		brsh .L5
  95 0062 00E2      		ldi r16,lo8(32)
  96 0064 0D0F      		add r16,r29
  95:quantum/process_keycode/process_space_cadet.c ****         if (IS_MOD(holdMod)) {
  97               		.loc 1 95 0 is_stmt 1
  98 0066 CD17      		cp r28,r29
  99 0068 01F0      		breq .L6
  96:quantum/process_keycode/process_space_cadet.c ****           unregister_mods(MOD_BIT(holdMod));
 100               		.loc 1 96 0
 101 006a 80E2      		ldi r24,lo8(32)
 102 006c 8C0F      		add r24,r28
 103 006e 8830      		cpi r24,lo8(8)
 104 0070 00F4      		brsh .L7
  97:quantum/process_keycode/process_space_cadet.c ****         }
 105               		.loc 1 97 0
 106 0072 C770      		andi r28,lo8(7)
 107               	.LVL8:
 108 0074 81E0      		ldi r24,lo8(1)
 109 0076 00C0      		rjmp 2f
 110               		1:
 111 0078 880F      		lsl r24
 112               		2:
 113 007a CA95      		dec r28
 114 007c 02F4      		brpl 1b
 115 007e 0E94 0000 		call unregister_mods
 116               	.LVL9:
 117               	.L7:
  99:quantum/process_keycode/process_space_cadet.c ****           register_mods(MOD_BIT(tapMod));
 118               		.loc 1 99 0
 119 0082 0830      		cpi r16,lo8(8)
 120 0084 00F4      		brsh .L8
 100:quantum/process_keycode/process_space_cadet.c ****         }
 121               		.loc 1 100 0
 122 0086 81E0      		ldi r24,lo8(1)
 123 0088 9D2F      		mov r25,r29
 124 008a 9770      		andi r25,lo8(7)
 125 008c 00C0      		rjmp 2f
 126               		1:
 127 008e 880F      		lsl r24
 128               		2:
 129 0090 9A95      		dec r25
 130 0092 02F4      		brpl 1b
 131 0094 0E94 0000 		call register_mods
 132               	.LVL10:
 133               	.L6:
 103:quantum/process_keycode/process_space_cadet.c ****       if (IS_MOD(tapMod)) {
 134               		.loc 1 103 0
 135 0098 812F      		mov r24,r17
 136 009a 0E94 0000 		call tap_code
 137               	.LVL11:
 104:quantum/process_keycode/process_space_cadet.c ****         unregister_mods(MOD_BIT(tapMod));
 138               		.loc 1 104 0
 139 009e 0830      		cpi r16,lo8(8)
 140 00a0 00F4      		brsh .L1
 105:quantum/process_keycode/process_space_cadet.c ****       }
 141               		.loc 1 105 0
 142 00a2 D770      		andi r29,lo8(7)
 143               	.LVL12:
 144 00a4 81E0      		ldi r24,lo8(1)
 145 00a6 00C0      		rjmp 2f
 146               		1:
 147 00a8 880F      		lsl r24
 148               		2:
 149 00aa DA95      		dec r29
 150 00ac 02F4      		brpl 1b
 151 00ae 00C0      		rjmp .L10
 152               	.LVL13:
 153               	.L5:
 108:quantum/process_keycode/process_space_cadet.c ****         unregister_mods(MOD_BIT(holdMod));
 154               		.loc 1 108 0
 155 00b0 80E2      		ldi r24,lo8(32)
 156 00b2 8C0F      		add r24,r28
 157 00b4 8830      		cpi r24,lo8(8)
 158 00b6 00F4      		brsh .L1
 109:quantum/process_keycode/process_space_cadet.c ****       }
 159               		.loc 1 109 0
 160 00b8 C770      		andi r28,lo8(7)
 161               	.LVL14:
 162 00ba 81E0      		ldi r24,lo8(1)
 163 00bc 00C0      		rjmp 2f
 164               		1:
 165 00be 880F      		lsl r24
 166               		2:
 167 00c0 CA95      		dec r28
 168 00c2 02F4      		brpl 1b
 169               	.LVL15:
 170               	.L10:
 171               	/* epilogue start */
 172               		.loc 1 113 0
 173 00c4 DF91      		pop r29
 174 00c6 CF91      		pop r28
 175 00c8 1F91      		pop r17
 176               	.LVL16:
 177 00ca 0F91      		pop r16
 109:quantum/process_keycode/process_space_cadet.c ****       }
 178               		.loc 1 109 0
 179 00cc 0C94 0000 		jmp unregister_mods
 180               	.LVL17:
 181               	.L8:
 103:quantum/process_keycode/process_space_cadet.c ****       if (IS_MOD(tapMod)) {
 182               		.loc 1 103 0
 183 00d0 812F      		mov r24,r17
 184               	/* epilogue start */
 185               		.loc 1 113 0
 186 00d2 DF91      		pop r29
 187               	.LVL18:
 188 00d4 CF91      		pop r28
 189 00d6 1F91      		pop r17
 190               	.LVL19:
 191 00d8 0F91      		pop r16
 103:quantum/process_keycode/process_space_cadet.c ****       if (IS_MOD(tapMod)) {
 192               		.loc 1 103 0
 193 00da 0C94 0000 		jmp tap_code
 194               	.LVL20:
 195               	.L1:
 196               	/* epilogue start */
 197               		.loc 1 113 0
 198 00de DF91      		pop r29
 199               	.LVL21:
 200 00e0 CF91      		pop r28
 201 00e2 1F91      		pop r17
 202               	.LVL22:
 203 00e4 0F91      		pop r16
 204 00e6 0895      		ret
 205               		.cfi_endproc
 206               	.LFE111:
 208               		.section	.text.process_space_cadet,"ax",@progbits
 209               	.global	process_space_cadet
 211               	process_space_cadet:
 212               	.LFB112:
 114:quantum/process_keycode/process_space_cadet.c **** 
 115:quantum/process_keycode/process_space_cadet.c **** bool process_space_cadet(uint16_t keycode, keyrecord_t *record) {
 213               		.loc 1 115 0
 214               		.cfi_startproc
 215               	.LVL23:
 216               	/* prologue: function */
 217               	/* frame size = 0 */
 218               	/* stack size = 0 */
 219               	.L__stack_usage = 0
 220 0000 9C01      		movw r18,r24
 221 0002 CB01      		movw r24,r22
 222               	.LVL24:
 116:quantum/process_keycode/process_space_cadet.c ****   switch(keycode) {
 223               		.loc 1 116 0
 224 0004 203F      		cpi r18,-16
 225 0006 4CE5      		ldi r20,92
 226 0008 3407      		cpc r19,r20
 227 000a 01F0      		breq .L14
 228 000c 00F4      		brsh .L15
 229 000e 283D      		cpi r18,-40
 230 0010 FCE5      		ldi r31,92
 231 0012 3F07      		cpc r19,r31
 232 0014 01F0      		breq .L16
 233 0016 293D      		cpi r18,-39
 234 0018 4CE5      		ldi r20,92
 235 001a 3407      		cpc r19,r20
 236 001c 01F0      		breq .L17
 237 001e 273D      		cpi r18,-41
 238 0020 3C45      		sbci r19,92
 239 0022 01F4      		brne .L13
 117:quantum/process_keycode/process_space_cadet.c ****     case KC_LSPO: {
 118:quantum/process_keycode/process_space_cadet.c ****       perform_space_cadet(record, LSPO_KEYS);
 240               		.loc 1 118 0
 241 0024 26E2      		ldi r18,lo8(38)
 242               	.LVL25:
 243 0026 41EE      		ldi r20,lo8(-31)
 244 0028 61EE      		ldi r22,lo8(-31)
 245               	.LVL26:
 246 002a 00C0      		rjmp .L24
 247               	.LVL27:
 248               	.L15:
 116:quantum/process_keycode/process_space_cadet.c ****   switch(keycode) {
 249               		.loc 1 116 0
 250 002c 223F      		cpi r18,-14
 251 002e FCE5      		ldi r31,92
 252 0030 3F07      		cpc r19,r31
 253 0032 01F0      		breq .L19
 254 0034 00F0      		brlo .L20
 255 0036 233F      		cpi r18,-13
 256 0038 3C45      		sbci r19,92
 257 003a 01F4      		brne .L13
 119:quantum/process_keycode/process_space_cadet.c ****       return false;
 120:quantum/process_keycode/process_space_cadet.c ****     }
 121:quantum/process_keycode/process_space_cadet.c ****     case KC_RSPC: {
 122:quantum/process_keycode/process_space_cadet.c ****       perform_space_cadet(record, RSPC_KEYS);
 123:quantum/process_keycode/process_space_cadet.c ****       return false;
 124:quantum/process_keycode/process_space_cadet.c ****     }
 125:quantum/process_keycode/process_space_cadet.c ****     case KC_LCPO: {
 126:quantum/process_keycode/process_space_cadet.c ****       perform_space_cadet(record, LCPO_KEYS);
 127:quantum/process_keycode/process_space_cadet.c ****       return false;
 128:quantum/process_keycode/process_space_cadet.c ****     }
 129:quantum/process_keycode/process_space_cadet.c ****     case KC_RCPC: {
 130:quantum/process_keycode/process_space_cadet.c ****       perform_space_cadet(record, RCPC_KEYS);
 131:quantum/process_keycode/process_space_cadet.c ****       return false;
 132:quantum/process_keycode/process_space_cadet.c ****     }
 133:quantum/process_keycode/process_space_cadet.c ****     case KC_LAPO: {
 134:quantum/process_keycode/process_space_cadet.c ****       perform_space_cadet(record, LAPO_KEYS);
 135:quantum/process_keycode/process_space_cadet.c ****       return false;
 136:quantum/process_keycode/process_space_cadet.c ****     }
 137:quantum/process_keycode/process_space_cadet.c ****     case KC_RAPC: {
 138:quantum/process_keycode/process_space_cadet.c ****       perform_space_cadet(record, RAPC_KEYS);
 258               		.loc 1 138 0
 259 003c 27E2      		ldi r18,lo8(39)
 260               	.LVL28:
 261 003e 45EE      		ldi r20,lo8(-27)
 262 0040 66EE      		ldi r22,lo8(-26)
 263               	.LVL29:
 264 0042 00C0      		rjmp .L24
 265               	.LVL30:
 266               	.L16:
 122:quantum/process_keycode/process_space_cadet.c ****       return false;
 267               		.loc 1 122 0
 268 0044 27E2      		ldi r18,lo8(39)
 269               	.LVL31:
 270 0046 45EE      		ldi r20,lo8(-27)
 271 0048 00C0      		rjmp .L25
 272               	.LVL32:
 273               	.L14:
 126:quantum/process_keycode/process_space_cadet.c ****       return false;
 274               		.loc 1 126 0
 275 004a 26E2      		ldi r18,lo8(38)
 276               	.LVL33:
 277 004c 41EE      		ldi r20,lo8(-31)
 278 004e 60EE      		ldi r22,lo8(-32)
 279               	.LVL34:
 280 0050 00C0      		rjmp .L24
 281               	.LVL35:
 282               	.L20:
 130:quantum/process_keycode/process_space_cadet.c ****       return false;
 283               		.loc 1 130 0
 284 0052 27E2      		ldi r18,lo8(39)
 285               	.LVL36:
 286 0054 45EE      		ldi r20,lo8(-27)
 287 0056 64EE      		ldi r22,lo8(-28)
 288               	.LVL37:
 289 0058 00C0      		rjmp .L24
 290               	.LVL38:
 291               	.L19:
 134:quantum/process_keycode/process_space_cadet.c ****       return false;
 292               		.loc 1 134 0
 293 005a 26E2      		ldi r18,lo8(38)
 294               	.LVL39:
 295 005c 41EE      		ldi r20,lo8(-31)
 296 005e 62EE      		ldi r22,lo8(-30)
 297               	.LVL40:
 298 0060 00C0      		rjmp .L24
 299               	.LVL41:
 300               	.L17:
 139:quantum/process_keycode/process_space_cadet.c ****       return false;
 140:quantum/process_keycode/process_space_cadet.c ****     }
 141:quantum/process_keycode/process_space_cadet.c ****     case KC_SFTENT: {
 142:quantum/process_keycode/process_space_cadet.c ****       perform_space_cadet(record, SFTENT_KEYS);
 301               		.loc 1 142 0
 302 0062 28E2      		ldi r18,lo8(40)
 303               	.LVL42:
 304 0064 41E0      		ldi r20,lo8(1)
 305               	.L25:
 306 0066 65EE      		ldi r22,lo8(-27)
 307               	.LVL43:
 308               	.L24:
 309 0068 0E94 0000 		call perform_space_cadet
 310               	.LVL44:
 143:quantum/process_keycode/process_space_cadet.c ****       return false;
 311               		.loc 1 143 0
 312 006c 80E0      		ldi r24,0
 313 006e 0895      		ret
 314               	.LVL45:
 315               	.L13:
 144:quantum/process_keycode/process_space_cadet.c ****     }
 145:quantum/process_keycode/process_space_cadet.c ****     default: {
 146:quantum/process_keycode/process_space_cadet.c ****       if (record->event.pressed) {
 316               		.loc 1 146 0
 317 0070 FC01      		movw r30,r24
 318 0072 8281      		ldd r24,Z+2
 319 0074 8823      		tst r24
 320 0076 01F0      		breq .L23
 147:quantum/process_keycode/process_space_cadet.c ****         sc_last = 0;
 321               		.loc 1 147 0
 322 0078 1092 0000 		sts sc_last,__zero_reg__
 323 007c 0895      		ret
 324               	.L23:
 148:quantum/process_keycode/process_space_cadet.c ****       }
 149:quantum/process_keycode/process_space_cadet.c ****       break;
 150:quantum/process_keycode/process_space_cadet.c ****     }
 151:quantum/process_keycode/process_space_cadet.c ****   }
 152:quantum/process_keycode/process_space_cadet.c ****   return true;
 325               		.loc 1 152 0
 326 007e 81E0      		ldi r24,lo8(1)
 153:quantum/process_keycode/process_space_cadet.c **** }
 327               		.loc 1 153 0
 328 0080 0895      		ret
 329               		.cfi_endproc
 330               	.LFE112:
 332               		.section	.bss.sc_timer,"aw",@nobits
 335               	sc_timer:
 336 0000 0000      		.zero	2
 337               		.section	.bss.sc_last,"aw",@nobits
 340               	sc_last:
 341 0000 00        		.zero	1
 342               		.text
 343               	.Letext0:
 344               		.file 2 "c:\\msys64_2\\home\\egypt2\\qmk_utils\\avr8-gnu-toolchain\\avr\\include\\stdint.h"
 345               		.file 3 "tmk_core/common/keyboard.h"
 346               		.file 4 "tmk_core/common/action.h"
 347               		.file 5 "tmk_core/common/report.h"
 348               		.file 6 "tmk_core/common/keycode.h"
 349               		.file 7 "quantum/quantum_keycodes.h"
 350               		.file 8 "lib/lufa/LUFA/Drivers/USB/Core/USBTask.h"
 351               		.file 9 "tmk_core/common/action_util.h"
 352               		.file 10 "tmk_core/common/timer.h"